
Chameleon-Mini.elf:     file format elf32-avr

Sections:
Idx Name          Size      VMA       LMA       File off  Algn
  0 .text         000062ee  00000000  00000000  000000b4  2**1
                  CONTENTS, ALLOC, LOAD, READONLY, CODE
  1 .data         0000005c  00802000  000062ee  000063a2  2**0
                  CONTENTS, ALLOC, LOAD, DATA
  2 .bss          0000069b  0080205c  0080205c  000063fe  2**0
                  ALLOC
  3 .eeprom       0000002b  00810000  00810000  000063fe  2**0
                  CONTENTS, ALLOC, LOAD, DATA
  4 .comment      00000011  00000000  00000000  00006429  2**0
                  CONTENTS, READONLY
  5 .note.gnu.avr.deviceinfo 00000040  00000000  00000000  0000643c  2**2
                  CONTENTS, READONLY
  6 .debug_aranges 00000ba0  00000000  00000000  00006480  2**3
                  CONTENTS, READONLY, DEBUGGING
  7 .debug_info   0001d185  00000000  00000000  00007020  2**0
                  CONTENTS, READONLY, DEBUGGING
  8 .debug_abbrev 0000767c  00000000  00000000  000241a5  2**0
                  CONTENTS, READONLY, DEBUGGING
  9 .debug_line   0000b582  00000000  00000000  0002b821  2**0
                  CONTENTS, READONLY, DEBUGGING
 10 .debug_frame  00001cc8  00000000  00000000  00036da4  2**2
                  CONTENTS, READONLY, DEBUGGING
 11 .debug_str    00008369  00000000  00000000  00038a6c  2**0
                  CONTENTS, READONLY, DEBUGGING
 12 .debug_loc    0000ba6a  00000000  00000000  00040dd5  2**0
                  CONTENTS, READONLY, DEBUGGING
 13 .debug_ranges 000015c0  00000000  00000000  0004c83f  2**0
                  CONTENTS, READONLY, DEBUGGING

Disassembly of section .text:

00000000 <__vectors>:
       0:	9b c5       	rjmp	.+2870   	; 0xb38 <__ctors_end>
       2:	00 00       	nop
       4:	b5 c5       	rjmp	.+2922   	; 0xb70 <__bad_interrupt>
       6:	00 00       	nop
       8:	b3 c5       	rjmp	.+2918   	; 0xb70 <__bad_interrupt>
       a:	00 00       	nop
       c:	b1 c5       	rjmp	.+2914   	; 0xb70 <__bad_interrupt>
       e:	00 00       	nop
      10:	af c5       	rjmp	.+2910   	; 0xb70 <__bad_interrupt>
      12:	00 00       	nop
      14:	ad c5       	rjmp	.+2906   	; 0xb70 <__bad_interrupt>
      16:	00 00       	nop
      18:	ab c5       	rjmp	.+2902   	; 0xb70 <__bad_interrupt>
      1a:	00 00       	nop
      1c:	a9 c5       	rjmp	.+2898   	; 0xb70 <__bad_interrupt>
      1e:	00 00       	nop
      20:	a7 c5       	rjmp	.+2894   	; 0xb70 <__bad_interrupt>
      22:	00 00       	nop
      24:	a5 c5       	rjmp	.+2890   	; 0xb70 <__bad_interrupt>
      26:	00 00       	nop
      28:	a3 c5       	rjmp	.+2886   	; 0xb70 <__bad_interrupt>
      2a:	00 00       	nop
      2c:	a1 c5       	rjmp	.+2882   	; 0xb70 <__bad_interrupt>
      2e:	00 00       	nop
      30:	9f c5       	rjmp	.+2878   	; 0xb70 <__bad_interrupt>
      32:	00 00       	nop
      34:	9d c5       	rjmp	.+2874   	; 0xb70 <__bad_interrupt>
      36:	00 00       	nop
      38:	9b c5       	rjmp	.+2870   	; 0xb70 <__bad_interrupt>
      3a:	00 00       	nop
      3c:	99 c5       	rjmp	.+2866   	; 0xb70 <__bad_interrupt>
      3e:	00 00       	nop
      40:	97 c5       	rjmp	.+2862   	; 0xb70 <__bad_interrupt>
      42:	00 00       	nop
      44:	95 c5       	rjmp	.+2858   	; 0xb70 <__bad_interrupt>
      46:	00 00       	nop
      48:	93 c5       	rjmp	.+2854   	; 0xb70 <__bad_interrupt>
      4a:	00 00       	nop
      4c:	91 c5       	rjmp	.+2850   	; 0xb70 <__bad_interrupt>
      4e:	00 00       	nop
      50:	8f c5       	rjmp	.+2846   	; 0xb70 <__bad_interrupt>
      52:	00 00       	nop
      54:	8d c5       	rjmp	.+2842   	; 0xb70 <__bad_interrupt>
      56:	00 00       	nop
      58:	0c 94 a3 14 	jmp	0x2946	; 0x2946 <__vector_22>
      5c:	89 c5       	rjmp	.+2834   	; 0xb70 <__bad_interrupt>
      5e:	00 00       	nop
      60:	87 c5       	rjmp	.+2830   	; 0xb70 <__bad_interrupt>
      62:	00 00       	nop
      64:	85 c5       	rjmp	.+2826   	; 0xb70 <__bad_interrupt>
      66:	00 00       	nop
      68:	83 c5       	rjmp	.+2822   	; 0xb70 <__bad_interrupt>
      6a:	00 00       	nop
      6c:	81 c5       	rjmp	.+2818   	; 0xb70 <__bad_interrupt>
      6e:	00 00       	nop
      70:	7f c5       	rjmp	.+2814   	; 0xb70 <__bad_interrupt>
      72:	00 00       	nop
      74:	7d c5       	rjmp	.+2810   	; 0xb70 <__bad_interrupt>
      76:	00 00       	nop
      78:	7b c5       	rjmp	.+2806   	; 0xb70 <__bad_interrupt>
      7a:	00 00       	nop
      7c:	79 c5       	rjmp	.+2802   	; 0xb70 <__bad_interrupt>
      7e:	00 00       	nop
      80:	77 c5       	rjmp	.+2798   	; 0xb70 <__bad_interrupt>
      82:	00 00       	nop
      84:	75 c5       	rjmp	.+2794   	; 0xb70 <__bad_interrupt>
      86:	00 00       	nop
      88:	0c 94 60 14 	jmp	0x28c0	; 0x28c0 <__vector_34>
      8c:	71 c5       	rjmp	.+2786   	; 0xb70 <__bad_interrupt>
      8e:	00 00       	nop
      90:	6f c5       	rjmp	.+2782   	; 0xb70 <__bad_interrupt>
      92:	00 00       	nop
      94:	6d c5       	rjmp	.+2778   	; 0xb70 <__bad_interrupt>
      96:	00 00       	nop
      98:	6b c5       	rjmp	.+2774   	; 0xb70 <__bad_interrupt>
      9a:	00 00       	nop
      9c:	69 c5       	rjmp	.+2770   	; 0xb70 <__bad_interrupt>
      9e:	00 00       	nop
      a0:	67 c5       	rjmp	.+2766   	; 0xb70 <__bad_interrupt>
      a2:	00 00       	nop
      a4:	65 c5       	rjmp	.+2762   	; 0xb70 <__bad_interrupt>
      a6:	00 00       	nop
      a8:	63 c5       	rjmp	.+2758   	; 0xb70 <__bad_interrupt>
      aa:	00 00       	nop
      ac:	61 c5       	rjmp	.+2754   	; 0xb70 <__bad_interrupt>
      ae:	00 00       	nop
      b0:	5f c5       	rjmp	.+2750   	; 0xb70 <__bad_interrupt>
      b2:	00 00       	nop
      b4:	5d c5       	rjmp	.+2746   	; 0xb70 <__bad_interrupt>
      b6:	00 00       	nop
      b8:	5b c5       	rjmp	.+2742   	; 0xb70 <__bad_interrupt>
      ba:	00 00       	nop
      bc:	59 c5       	rjmp	.+2738   	; 0xb70 <__bad_interrupt>
      be:	00 00       	nop
      c0:	57 c5       	rjmp	.+2734   	; 0xb70 <__bad_interrupt>
      c2:	00 00       	nop
      c4:	55 c5       	rjmp	.+2730   	; 0xb70 <__bad_interrupt>
      c6:	00 00       	nop
      c8:	53 c5       	rjmp	.+2726   	; 0xb70 <__bad_interrupt>
      ca:	00 00       	nop
      cc:	51 c5       	rjmp	.+2722   	; 0xb70 <__bad_interrupt>
      ce:	00 00       	nop
      d0:	4f c5       	rjmp	.+2718   	; 0xb70 <__bad_interrupt>
      d2:	00 00       	nop
      d4:	4d c5       	rjmp	.+2714   	; 0xb70 <__bad_interrupt>
      d6:	00 00       	nop
      d8:	4b c5       	rjmp	.+2710   	; 0xb70 <__bad_interrupt>
      da:	00 00       	nop
      dc:	49 c5       	rjmp	.+2706   	; 0xb70 <__bad_interrupt>
      de:	00 00       	nop
      e0:	47 c5       	rjmp	.+2702   	; 0xb70 <__bad_interrupt>
      e2:	00 00       	nop
      e4:	45 c5       	rjmp	.+2698   	; 0xb70 <__bad_interrupt>
      e6:	00 00       	nop
      e8:	0c 94 ce 0d 	jmp	0x1b9c	; 0x1b9c <__vector_58>
      ec:	41 c5       	rjmp	.+2690   	; 0xb70 <__bad_interrupt>
      ee:	00 00       	nop
      f0:	3f c5       	rjmp	.+2686   	; 0xb70 <__bad_interrupt>
      f2:	00 00       	nop
      f4:	3d c5       	rjmp	.+2682   	; 0xb70 <__bad_interrupt>
      f6:	00 00       	nop
      f8:	3b c5       	rjmp	.+2678   	; 0xb70 <__bad_interrupt>
      fa:	00 00       	nop
      fc:	39 c5       	rjmp	.+2674   	; 0xb70 <__bad_interrupt>
      fe:	00 00       	nop
     100:	37 c5       	rjmp	.+2670   	; 0xb70 <__bad_interrupt>
     102:	00 00       	nop
     104:	35 c5       	rjmp	.+2666   	; 0xb70 <__bad_interrupt>
     106:	00 00       	nop
     108:	33 c5       	rjmp	.+2662   	; 0xb70 <__bad_interrupt>
     10a:	00 00       	nop
     10c:	31 c5       	rjmp	.+2658   	; 0xb70 <__bad_interrupt>
     10e:	00 00       	nop
     110:	2f c5       	rjmp	.+2654   	; 0xb70 <__bad_interrupt>
     112:	00 00       	nop
     114:	2d c5       	rjmp	.+2650   	; 0xb70 <__bad_interrupt>
     116:	00 00       	nop
     118:	2b c5       	rjmp	.+2646   	; 0xb70 <__bad_interrupt>
     11a:	00 00       	nop
     11c:	29 c5       	rjmp	.+2642   	; 0xb70 <__bad_interrupt>
     11e:	00 00       	nop
     120:	27 c5       	rjmp	.+2638   	; 0xb70 <__bad_interrupt>
     122:	00 00       	nop
     124:	25 c5       	rjmp	.+2634   	; 0xb70 <__bad_interrupt>
     126:	00 00       	nop
     128:	23 c5       	rjmp	.+2630   	; 0xb70 <__bad_interrupt>
     12a:	00 00       	nop
     12c:	21 c5       	rjmp	.+2626   	; 0xb70 <__bad_interrupt>
     12e:	00 00       	nop
     130:	1f c5       	rjmp	.+2622   	; 0xb70 <__bad_interrupt>
     132:	00 00       	nop
     134:	1d c5       	rjmp	.+2618   	; 0xb70 <__bad_interrupt>
     136:	00 00       	nop
     138:	1b c5       	rjmp	.+2614   	; 0xb70 <__bad_interrupt>
     13a:	00 00       	nop
     13c:	19 c5       	rjmp	.+2610   	; 0xb70 <__bad_interrupt>
     13e:	00 00       	nop
     140:	17 c5       	rjmp	.+2606   	; 0xb70 <__bad_interrupt>
     142:	00 00       	nop
     144:	15 c5       	rjmp	.+2602   	; 0xb70 <__bad_interrupt>
     146:	00 00       	nop
     148:	13 c5       	rjmp	.+2598   	; 0xb70 <__bad_interrupt>
     14a:	00 00       	nop
     14c:	0c 94 42 15 	jmp	0x2a84	; 0x2a84 <__vector_83>
     150:	0f c5       	rjmp	.+2590   	; 0xb70 <__bad_interrupt>
     152:	00 00       	nop
     154:	0d c5       	rjmp	.+2586   	; 0xb70 <__bad_interrupt>
     156:	00 00       	nop
     158:	0b c5       	rjmp	.+2582   	; 0xb70 <__bad_interrupt>
     15a:	00 00       	nop
     15c:	09 c5       	rjmp	.+2578   	; 0xb70 <__bad_interrupt>
     15e:	00 00       	nop
     160:	07 c5       	rjmp	.+2574   	; 0xb70 <__bad_interrupt>
     162:	00 00       	nop
     164:	05 c5       	rjmp	.+2570   	; 0xb70 <__bad_interrupt>
     166:	00 00       	nop
     168:	03 c5       	rjmp	.+2566   	; 0xb70 <__bad_interrupt>
     16a:	00 00       	nop
     16c:	01 c5       	rjmp	.+2562   	; 0xb70 <__bad_interrupt>
     16e:	00 00       	nop
     170:	ff c4       	rjmp	.+2558   	; 0xb70 <__bad_interrupt>
     172:	00 00       	nop
     174:	fd c4       	rjmp	.+2554   	; 0xb70 <__bad_interrupt>
     176:	00 00       	nop
     178:	fb c4       	rjmp	.+2550   	; 0xb70 <__bad_interrupt>
     17a:	00 00       	nop
     17c:	f9 c4       	rjmp	.+2546   	; 0xb70 <__bad_interrupt>
     17e:	00 00       	nop
     180:	f7 c4       	rjmp	.+2542   	; 0xb70 <__bad_interrupt>
     182:	00 00       	nop
     184:	f5 c4       	rjmp	.+2538   	; 0xb70 <__bad_interrupt>
     186:	00 00       	nop
     188:	f3 c4       	rjmp	.+2534   	; 0xb70 <__bad_interrupt>
     18a:	00 00       	nop
     18c:	f1 c4       	rjmp	.+2530   	; 0xb70 <__bad_interrupt>
     18e:	00 00       	nop
     190:	ef c4       	rjmp	.+2526   	; 0xb70 <__bad_interrupt>
     192:	00 00       	nop
     194:	ed c4       	rjmp	.+2522   	; 0xb70 <__bad_interrupt>
     196:	00 00       	nop
     198:	eb c4       	rjmp	.+2518   	; 0xb70 <__bad_interrupt>
     19a:	00 00       	nop
     19c:	e9 c4       	rjmp	.+2514   	; 0xb70 <__bad_interrupt>
     19e:	00 00       	nop
     1a0:	e7 c4       	rjmp	.+2510   	; 0xb70 <__bad_interrupt>
     1a2:	00 00       	nop
     1a4:	e5 c4       	rjmp	.+2506   	; 0xb70 <__bad_interrupt>
     1a6:	00 00       	nop
     1a8:	e3 c4       	rjmp	.+2502   	; 0xb70 <__bad_interrupt>
     1aa:	00 00       	nop
     1ac:	e1 c4       	rjmp	.+2498   	; 0xb70 <__bad_interrupt>
     1ae:	00 00       	nop
     1b0:	df c4       	rjmp	.+2494   	; 0xb70 <__bad_interrupt>
     1b2:	00 00       	nop
     1b4:	dd c4       	rjmp	.+2490   	; 0xb70 <__bad_interrupt>
     1b6:	00 00       	nop
     1b8:	db c4       	rjmp	.+2486   	; 0xb70 <__bad_interrupt>
     1ba:	00 00       	nop
     1bc:	d9 c4       	rjmp	.+2482   	; 0xb70 <__bad_interrupt>
     1be:	00 00       	nop
     1c0:	d7 c4       	rjmp	.+2478   	; 0xb70 <__bad_interrupt>
     1c2:	00 00       	nop
     1c4:	d5 c4       	rjmp	.+2474   	; 0xb70 <__bad_interrupt>
     1c6:	00 00       	nop
     1c8:	d3 c4       	rjmp	.+2470   	; 0xb70 <__bad_interrupt>
     1ca:	00 00       	nop
     1cc:	d1 c4       	rjmp	.+2466   	; 0xb70 <__bad_interrupt>
     1ce:	00 00       	nop
     1d0:	cf c4       	rjmp	.+2462   	; 0xb70 <__bad_interrupt>
     1d2:	00 00       	nop
     1d4:	cd c4       	rjmp	.+2458   	; 0xb70 <__bad_interrupt>
     1d6:	00 00       	nop
     1d8:	cb c4       	rjmp	.+2454   	; 0xb70 <__bad_interrupt>
     1da:	00 00       	nop
     1dc:	c9 c4       	rjmp	.+2450   	; 0xb70 <__bad_interrupt>
     1de:	00 00       	nop
     1e0:	c7 c4       	rjmp	.+2446   	; 0xb70 <__bad_interrupt>
     1e2:	00 00       	nop
     1e4:	c5 c4       	rjmp	.+2442   	; 0xb70 <__bad_interrupt>
     1e6:	00 00       	nop
     1e8:	c3 c4       	rjmp	.+2438   	; 0xb70 <__bad_interrupt>
     1ea:	00 00       	nop
     1ec:	c1 c4       	rjmp	.+2434   	; 0xb70 <__bad_interrupt>
     1ee:	00 00       	nop
     1f0:	bf c4       	rjmp	.+2430   	; 0xb70 <__bad_interrupt>
     1f2:	00 00       	nop
     1f4:	0c 94 06 2b 	jmp	0x560c	; 0x560c <__vector_125>
     1f8:	bb c4       	rjmp	.+2422   	; 0xb70 <__bad_interrupt>
     1fa:	00 00       	nop

000001fc <ProductString>:
     1fc:	24 03 43 00 68 00 61 00 6d 00 65 00 6c 00 65 00     $.C.h.a.m.e.l.e.
     20c:	6f 00 6e 00 45 00 2d 00 5a 00 68 00 65 00 6e 00     o.n.E.-.Z.h.e.n.
     21c:	65 00 72 00 00 00                                   e.r...

00000222 <ManufacturerString>:
     222:	18 03 44 00 65 00 61 00 6e 00 20 00 43 00 61 00     ..D.e.a.n. .C.a.
     232:	6d 00 65 00 72 00 61 00 00 00                       m.e.r.a...

0000023c <LanguageString>:
     23c:	04 03 09 04                                         ....

00000240 <ConfigurationDescriptor>:
     240:	09 02 3e 00 02 01 00 c0 32 09 04 00 00 01 02 02     ..>.....2.......
     250:	01 00 05 24 00 10 01 04 24 02 06 05 24 06 00 01     ...$....$...$...
     260:	07 05 82 03 08 00 ff 09 04 01 00 02 0a 00 00 00     ................
     270:	07 05 04 02 10 00 05 07 05 83 02 10 00 05           ..............

0000027e <DeviceDescriptor>:
     27e:	12 01 10 01 02 00 00 08 eb 03 44 20 01 00 01 02     ..........D ....
     28e:	dc 01                                               ..

00000290 <ConfigurationTable>:
     290:	94 07 00 00 9e 07 9d 07 9c 07 9b 07 9a 07 95 07     ................
     2a0:	98 07 99 07 00 04 04 01 28 16 00 00 5f 16 99 1a     ........(..._...
     2b0:	d5 1a d9 1a 9a 07 03 21 03 23 21 23 00 04 04 00     .......!.#!#....
     2c0:	28 16 00 00 5f 16 a8 1a d5 1a d9 1a 9a 07 c6 1f     (..._...........
     2d0:	03 23 21 23 00 04 04 00 28 16 00 00 5f 16 0c 17     .#!#....(..._...
     2e0:	28 17 2c 17 9a 07 2d 17 47 1a 5a 1a 40 00 07 00     (.,...-.G.Z.@...
     2f0:	28 16 00 00 5f 16 20 17 28 17 2c 17 9a 07 2d 17     (..._. .(.,...-.
     300:	47 1a 5a 1a 50 00 07 00 28 16 00 00 5f 16 24 17     G.Z.P...(..._.$.
     310:	28 17 2c 17 9a 07 2d 17 47 1a 5a 1a a4 00 07 00     (.,...-.G.Z.....
     320:	28 16 00 00 5f 16 b7 1a d5 1a d9 1a 9a 07 da 1a     (..._...........
     330:	03 23 21 23 00 04 04 00 28 16 00 00 5f 16 c6 1a     .#!#....(..._...
     340:	d5 1a d9 1a 9a 07 da 1a 03 23 21 23 00 10 04 00     .........#!#....
     350:	28 16 00 00 5f 16 28 26 35 26 d9 1a 9a 07 b5 24     (..._.(&5&.....$
     360:	03 23 21 23 00 04 04 00                             .#!#....

00000368 <ConfigurationMap>:
     368:	00 43 4c 4f 53 45 44 00 00 00 00 00 00 00 00 00     .CLOSED.........
     378:	00 00 00 00 00 00 00 00 00 00 00 00 00 00 00 00     ................
     388:	00 01 46 4d 31 31 52 46 30 30 35 53 48 00 00 00     ..FM11RF005SH...
     398:	00 00 00 00 00 00 00 00 00 00 00 00 00 00 00 00     ................
     3a8:	00 00 02 4a 43 4f 50 00 00 00 00 00 00 00 00 00     ...JCOP.........
     3b8:	00 00 00 00 00 00 00 00 00 00 00 00 00 00 00 00     ................
     3c8:	00 00 00 03 4d 46 5f 55 4c 54 52 41 4c 49 47 48     ....MF_ULTRALIGH
     3d8:	54 00 00 00 00 00 00 00 00 00 00 00 00 00 00 00     T...............
     3e8:	00 00 00 00 04 4d 46 5f 55 4c 54 52 41 4c 49 47     .....MF_ULTRALIG
     3f8:	48 54 5f 45 56 31 5f 38 30 42 00 00 00 00 00 00     HT_EV1_80B......
     408:	00 00 00 00 00 05 4d 46 5f 55 4c 54 52 41 4c 49     ......MF_ULTRALI
     418:	47 48 54 5f 45 56 31 5f 31 36 34 42 00 00 00 00     GHT_EV1_164B....
     428:	00 00 00 00 00 00 06 4d 46 5f 43 4c 41 53 53 49     .......MF_CLASSI
     438:	43 5f 31 4b 00 00 00 00 00 00 00 00 00 00 00 00     C_1K............
     448:	00 00 00 00 00 00 00 07 4d 46 5f 43 4c 41 53 53     ........MF_CLASS
     458:	49 43 5f 34 4b 00 00 00 00 00 00 00 00 00 00 00     IC_4K...........
     468:	00 00 00 00 00 00 00 00 08 4d 46 5f 44 45 54 45     .........MF_DETE
     478:	43 54 49 4f 4e 00 00 00 00 00 00 00 00 00 00 00     CTION...........
     488:	00 00 00 00 00 00 00 00 00                          .........

00000491 <OddParityByteTable>:
     491:	01 00 00 01 00 01 01 00 00 01 01 00 01 00 00 01     ................
     4a1:	00 01 01 00 01 00 00 01 01 00 00 01 00 01 01 00     ................
     4b1:	00 01 01 00 01 00 00 01 01 00 00 01 00 01 01 00     ................
     4c1:	01 00 00 01 00 01 01 00 00 01 01 00 01 00 00 01     ................
     4d1:	00 01 01 00 01 00 00 01 01 00 00 01 00 01 01 00     ................
     4e1:	01 00 00 01 00 01 01 00 00 01 01 00 01 00 00 01     ................
     4f1:	01 00 00 01 00 01 01 00 00 01 01 00 01 00 00 01     ................
     501:	00 01 01 00 01 00 00 01 01 00 00 01 00 01 01 00     ................
     511:	00 01 01 00 01 00 00 01 01 00 00 01 00 01 01 00     ................
     521:	01 00 00 01 00 01 01 00 00 01 01 00 01 00 00 01     ................
     531:	01 00 00 01 00 01 01 00 00 01 01 00 01 00 00 01     ................
     541:	00 01 01 00 01 00 00 01 01 00 00 01 00 01 01 00     ................
     551:	01 00 00 01 00 01 01 00 00 01 01 00 01 00 00 01     ................
     561:	00 01 01 00 01 00 00 01 01 00 00 01 00 01 01 00     ................
     571:	00 01 01 00 01 00 00 01 01 00 00 01 00 01 01 00     ................
     581:	01 00 00 01 00 01 01 00 00 01 01 00 01 00 00 01     ................

00000591 <BitReverseByteTable>:
     591:	00 80 40 c0 20 a0 60 e0 10 90 50 d0 30 b0 70 f0     ..@. .`...P.0.p.
     5a1:	08 88 48 c8 28 a8 68 e8 18 98 58 d8 38 b8 78 f8     ..H.(.h...X.8.x.
     5b1:	04 84 44 c4 24 a4 64 e4 14 94 54 d4 34 b4 74 f4     ..D.$.d...T.4.t.
     5c1:	0c 8c 4c cc 2c ac 6c ec 1c 9c 5c dc 3c bc 7c fc     ..L.,.l...\.<.|.
     5d1:	02 82 42 c2 22 a2 62 e2 12 92 52 d2 32 b2 72 f2     ..B.".b...R.2.r.
     5e1:	0a 8a 4a ca 2a aa 6a ea 1a 9a 5a da 3a ba 7a fa     ..J.*.j...Z.:.z.
     5f1:	06 86 46 c6 26 a6 66 e6 16 96 56 d6 36 b6 76 f6     ..F.&.f...V.6.v.
     601:	0e 8e 4e ce 2e ae 6e ee 1e 9e 5e de 3e be 7e fe     ..N...n...^.>.~.
     611:	01 81 41 c1 21 a1 61 e1 11 91 51 d1 31 b1 71 f1     ..A.!.a...Q.1.q.
     621:	09 89 49 c9 29 a9 69 e9 19 99 59 d9 39 b9 79 f9     ..I.).i...Y.9.y.
     631:	05 85 45 c5 25 a5 65 e5 15 95 55 d5 35 b5 75 f5     ..E.%.e...U.5.u.
     641:	0d 8d 4d cd 2d ad 6d ed 1d 9d 5d dd 3d bd 7d fd     ..M.-.m...].=.}.
     651:	03 83 43 c3 23 a3 63 e3 13 93 53 d3 33 b3 73 f3     ..C.#.c...S.3.s.
     661:	0b 8b 4b cb 2b ab 6b eb 1b 9b 5b db 3b bb 7b fb     ..K.+.k...[.;.{.
     671:	07 87 47 c7 27 a7 67 e7 17 97 57 d7 37 b7 77 f7     ..G.'.g...W.7.w.
     681:	0f 8f 4f cf 2f af 6f ef 1f 9f 5f df 3f bf 7f ff     ..O./.o..._.?...

00000691 <ButtonActionTable>:
     691:	43 4c 4f 53 45 44 00 00 00 00 00 00 00 00 00 00     CLOSED..........
     6a1:	00 00 00 00 00 00 00 00 00 00 00 00 00 00 00 00     ................
     6b1:	52 41 4e 44 4f 4d 5f 55 49 44 00 00 00 00 00 00     RANDOM_UID......
     6c1:	00 00 00 00 00 00 00 00 00 00 00 00 00 00 00 00     ................
     6d1:	55 49 44 5f 4c 45 46 54 5f 49 4e 43 52 45 4d 45     UID_LEFT_INCREME
     6e1:	4e 54 00 00 00 00 00 00 00 00 00 00 00 00 00 00     NT..............
     6f1:	55 49 44 5f 52 49 47 48 54 5f 49 4e 43 52 45 4d     UID_RIGHT_INCREM
     701:	45 4e 54 00 00 00 00 00 00 00 00 00 00 00 00 00     ENT.............
     711:	55 49 44 5f 4c 45 46 54 5f 44 45 43 52 45 4d 45     UID_LEFT_DECREME
     721:	4e 54 00 00 00 00 00 00 00 00 00 00 00 00 00 00     NT..............
     731:	55 49 44 5f 52 49 47 48 54 5f 44 45 43 52 45 4d     UID_RIGHT_DECREM
     741:	45 4e 54 00 00 00 00 00 00 00 00 00 00 00 00 00     ENT.............
     751:	53 57 49 54 43 48 43 41 52 44 00 00 00 00 00 00     SWITCHCARD......
     761:	00 00 00 00 00 00 00 00 00 00 00 00 00 00 00 00     ................

00000771 <__c.7053>:
     771:	25 30 32 78 25 30 32 78 25 30 32 78 25 30 32 78     %02x%02x%02x%02x
     781:	00                                                  .

00000782 <__c.7047>:
     782:	4d 61 6e 75 66 61 63 74 75 72 65 72 20 49 44 3a     Manufacturer ID:
     792:	20 25 30 32 78 68 0d 0a 46 61 6d 69 6c 79 20 63      %02xh..Family c
     7a2:	6f 64 65 3a 20 25 64 0d 0a 44 65 6e 73 69 74 79     ode: %d..Density
     7b2:	20 63 6f 64 65 3a 20 25 64 0d 0a 4d 4c 43 20 43      code: %d..MLC C
     7c2:	6f 64 65 3a 20 25 64 0d 0a 50 72 6f 64 75 63 74     ode: %d..Product
     7d2:	20 76 65 72 73 69 6f 6e 3a 20 25 64 0d 0a 46 6c      version: %d..Fl
     7e2:	61 73 68 20 6d 65 6d 6f 72 79 20 73 69 7a 65 3a     ash memory size:
     7f2:	20 25 64 2d 4d 62 69 74 20 28 25 64 2d 4b 42 79      %d-Mbit (%d-KBy
     802:	74 65 29 00                                         te).

00000806 <__c.7010>:
     806:	25 30 32 78 25 30 32 78 25 30 32 78 25 30 32 78     %02x%02x%02x%02x
     816:	00                                                  .

00000817 <__c.7004>:
     817:	25 35 75 20 6d 56 00                                %5u mV.

0000081e <__c.6953>:
     81e:	25 75 00                                            %u.

00000821 <__c.6948>:
     821:	25 75 00                                            %u.

00000824 <__c.6920>:
     824:	52 41 4e 44 4f 4d 4d 59 00                          RANDOMMY.

0000082d <__c.6897>:
     82d:	43 68 61 6d 65 6c 65 6f 6e 2d 6e 65 77 2d 31 2e     Chameleon-new-1.
     83d:	30 00                                               0.

0000083f <__c.6729>:
     83f:	0d 0a 00                                            ...

00000842 <__c.6717>:
     842:	0d 0a 00                                            ...

00000845 <__c.6715>:
     845:	0d 0a 00                                            ...

00000848 <__c.6703>:
     848:	0d 0a 00                                            ...

0000084b <__c.6692>:
     84b:	0d 0a 00                                            ...

0000084e <__c.6690>:
     84e:	0d 0a 00                                            ...

00000851 <StatusTable>:
     851:	64 31 30 30 3a 4f 4b 00 00 00 00 00 00 00 00 00     d100:OK.........
     861:	00 00 00 00 00 00 00 00 00 00 00 00 00 00 00 00     ................
     871:	00 65 31 30 31 3a 4f 4b 20 57 49 54 48 20 54 45     .e101:OK WITH TE
     881:	58 54 00 00 00 00 00 00 00 00 00 00 00 00 00 00     XT..............
     891:	00 00 6e 31 31 30 3a 57 41 49 54 49 4e 47 20 46     ..n110:WAITING F
     8a1:	4f 52 20 58 4d 4f 44 45 4d 00 00 00 00 00 00 00     OR XMODEM.......
     8b1:	00 00 00 c8 32 30 30 3a 55 4e 4b 4e 4f 57 4e 20     ....200:UNKNOWN 
     8c1:	43 4f 4d 4d 41 4e 44 00 00 00 00 00 00 00 00 00     COMMAND.........
     8d1:	00 00 00 00 c9 32 30 31 3a 49 4e 56 41 4c 49 44     .....201:INVALID
     8e1:	20 43 4f 4d 4d 41 4e 44 20 55 53 41 47 45 00 00      COMMAND USAGE..
     8f1:	00 00 00 00 00 ca 32 30 32 3a 49 4e 56 41 4c 49     ......202:INVALI
     901:	44 20 50 41 52 41 4d 45 54 45 52 00 00 00 00 00     D PARAMETER.....
     911:	00 00 00 00 00 00                                   ......

00000917 <CommandTable>:
     917:	56 45 52 53 49 4f 4e 4d 59 00 00 00 00 00 00 00     VERSIONMY.......
     927:	00 00 00 00 00 00 6d 0e 43 4f 4e 46 49 47 4d 59     ......m.CONFIGMY
     937:	00 00 00 00 00 00 00 00 8e 0e 00 00 85 0e 80 0e     ................
     947:	55 49 44 4d 59 00 00 00 00 00 00 00 00 00 00 00     UIDMY...........
     957:	00 00 00 00 bc 0e 93 0e 52 45 41 44 4f 4e 4c 59     ........READONLY
     967:	4d 59 00 00 00 00 00 00 00 00 00 00 07 0f fb 0e     MY..............
     977:	55 50 4c 4f 41 44 4d 59 00 00 00 00 00 00 00 00     UPLOADMY........
     987:	1a 0f 00 00 00 00 00 00 44 4f 57 4e 4c 4f 41 44     ........DOWNLOAD
     997:	4d 59 00 00 00 00 00 00 1f 0f 00 00 00 00 00 00     MY..............
     9a7:	52 45 53 45 54 4d 59 00 00 00 00 00 00 00 00 00     RESETMY.........
     9b7:	24 0f 00 00 00 00 00 00 55 50 47 52 41 44 45 4d     $.......UPGRADEM
     9c7:	59 00 00 00 00 00 00 00 2e 0f 00 00 00 00 00 00     Y...............
     9d7:	4d 45 4d 53 49 5a 45 4d 59 00 00 00 00 00 00 00     MEMSIZEMY.......
     9e7:	00 00 00 00 00 00 38 0f 55 49 44 53 49 5a 45 4d     ......8.UIDSIZEM
     9f7:	59 00 00 00 00 00 00 00 00 00 00 00 00 00 50 0f     Y.............P.
     a07:	42 55 54 54 4f 4e 4d 59 00 00 00 00 00 00 00 00     BUTTONMY........
     a17:	66 0f 00 00 72 0f 6b 0f 42 55 54 54 4f 4e 5f 4c     f...r.k.BUTTON_L
     a27:	4f 4e 47 4d 59 00 00 00 7b 0f 00 00 87 0f 80 0f     ONGMY...{.......
     a37:	53 45 54 54 49 4e 47 4d 59 00 00 00 00 00 00 00     SETTINGMY.......
     a47:	00 00 00 00 95 0f 90 0f 43 4c 45 41 52 4d 59 00     ........CLEARMY.
     a57:	00 00 00 00 00 00 00 00 9e 0f 00 00 00 00 00 00     ................
     a67:	48 45 4c 50 4d 59 00 00 00 00 00 00 00 00 00 00     HELPMY..........
     a77:	a1 0f 00 00 00 00 00 00 52 53 53 49 4d 59 00 00     ........RSSIMY..
     a87:	00 00 00 00 00 00 00 00 00 00 00 00 00 00 d9 0f     ................
     a97:	50 57 44 4d 59 00 00 00 00 00 00 00 00 00 00 00     PWDMY...........
     aa7:	00 00 00 00 00 00 0c 10 44 45 54 45 43 54 49 4f     ........DETECTIO
     ab7:	4e 4d 59 00 00 00 00 00 00 00 00 00 c6 10 90 10     NMY.............
     ac7:	53 50 49 5f 46 4c 41 53 48 5f 49 4e 46 4f 4d 59     SPI_FLASH_INFOMY
     ad7:	e5 10 00 00 00 00 3e 11 00 00 00 00 00 00 00 00     ......>.........
     ae7:	00 00 00 00 00 00 00 00 00 00 00 00 00 00 00 00     ................

00000af7 <TableB>:
     af7:	00 00 00 01 01 01 00 00 01 00 00 01 01 00 01 01     ................
     b07:	00 00 00 00 00 00 00 00 00 00 00 00 00 00 00 00     ................

00000b17 <TableA>:
     b17:	00 00 01 01 00 01 00 00 00 01 00 00 01 01 01 01     ................
     b27:	00 00 00 00 00 00 00 00 00 00 00 00 00 00 00 00     ................
     b37:	00                                                  .

00000b38 <__ctors_end>:
     b38:	11 24       	eor	r1, r1
     b3a:	1f be       	out	0x3f, r1	; 63
     b3c:	cf ef       	ldi	r28, 0xFF	; 255
     b3e:	cd bf       	out	0x3d, r28	; 61
     b40:	df e2       	ldi	r29, 0x2F	; 47
     b42:	de bf       	out	0x3e, r29	; 62

00000b44 <__do_copy_data>:
     b44:	10 e2       	ldi	r17, 0x20	; 32
     b46:	a0 e0       	ldi	r26, 0x00	; 0
     b48:	b0 e2       	ldi	r27, 0x20	; 32
     b4a:	ee ee       	ldi	r30, 0xEE	; 238
     b4c:	f2 e6       	ldi	r31, 0x62	; 98
     b4e:	02 c0       	rjmp	.+4      	; 0xb54 <__do_copy_data+0x10>
     b50:	05 90       	lpm	r0, Z+
     b52:	0d 92       	st	X+, r0
     b54:	ac 35       	cpi	r26, 0x5C	; 92
     b56:	b1 07       	cpc	r27, r17
     b58:	d9 f7       	brne	.-10     	; 0xb50 <__do_copy_data+0xc>

00000b5a <__do_clear_bss>:
     b5a:	26 e2       	ldi	r18, 0x26	; 38
     b5c:	ac e5       	ldi	r26, 0x5C	; 92
     b5e:	b0 e2       	ldi	r27, 0x20	; 32
     b60:	01 c0       	rjmp	.+2      	; 0xb64 <.do_clear_bss_start>

00000b62 <.do_clear_bss_loop>:
     b62:	1d 92       	st	X+, r1

00000b64 <.do_clear_bss_start>:
     b64:	a7 3f       	cpi	r26, 0xF7	; 247
     b66:	b2 07       	cpc	r27, r18
     b68:	e1 f7       	brne	.-8      	; 0xb62 <.do_clear_bss_loop>
     b6a:	f3 d0       	rcall	.+486    	; 0xd52 <main>
     b6c:	0c 94 75 31 	jmp	0x62ea	; 0x62ea <_exit>

00000b70 <__bad_interrupt>:
     b70:	66 c1       	rjmp	.+716    	; 0xe3e <__vector_default>

00000b72 <Crypto1FilterOutput>:
.global Crypto1FilterOutput
.global Crypto1Bit
.global Crypto1Proceed

Crypto1FilterOutput: ; sped up filter function for crypto1
	push r18
     b72:	2f 93       	push	r18
	push r17 ; push registers we want to use - these need to be preserved, try and switch to better ones later
     b74:	1f 93       	push	r17
	push r16
     b76:	0f 93       	push	r16
	lds r22, StateOdd
     b78:	60 91 66 23 	lds	r22, 0x2366	; 0x802366 <StateOdd>
	lds r23, StateOdd+1
     b7c:	70 91 67 23 	lds	r23, 0x2367	; 0x802367 <StateOdd+0x1>
	lds r24, StateOdd+2
     b80:	80 91 68 23 	lds	r24, 0x2368	; 0x802368 <StateOdd+0x2>
	mov r21, r22 ; set up each shift value into register
     b84:	56 2f       	mov	r21, r22
	andi r22, 0xf
     b86:	6f 70       	andi	r22, 0x0F	; 15
	mov r20, r23
     b88:	47 2f       	mov	r20, r23
	andi r23, 0xf
     b8a:	7f 70       	andi	r23, 0x0F	; 15
	andi r24, 0xf
     b8c:	8f 70       	andi	r24, 0x0F	; 15
	swap r21
     b8e:	52 95       	swap	r21
	andi r21, 0x0f
     b90:	5f 70       	andi	r21, 0x0F	; 15
	swap r20
     b92:	42 95       	swap	r20
	andi r20, 0x0f
     b94:	4f 70       	andi	r20, 0x0F	; 15
	ldi r17, 0x0a ; set shift constant 0xEC57E80A - not using reserved registers to save push and pop cycles hence the weird choices
     b96:	1a e0       	ldi	r17, 0x0A	; 10
	ldi r16, 0xe8
     b98:	08 ee       	ldi	r16, 0xE8	; 232
	ldi r27, 0x57
     b9a:	b7 e5       	ldi	r27, 0x57	; 87
	ldi r26, 0xec
     b9c:	ac ee       	ldi	r26, 0xEC	; 236
	ldi ZH, hi8(TableA) ; set up first space for lookup
     b9e:	fb e0       	ldi	r31, 0x0B	; 11
	ldi ZL, lo8(TableA)
     ba0:	e7 e1       	ldi	r30, 0x17	; 23
	add ZL, r22
     ba2:	e6 0f       	add	r30, r22
	adc ZH, r1
     ba4:	f1 1d       	adc	r31, r1
	lpm r22, Z
     ba6:	64 91       	lpm	r22, Z
	cpi r22, 0
     ba8:	60 30       	cpi	r22, 0x00	; 0
	breq Crypto1FilterOutputEndShiftSixteenBit
     baa:	11 f0       	breq	.+4      	; 0xbb0 <Crypto1FilterOutputEndShiftSixteenBit>
	mov r16, r26 ; this will shift 16 bits in two operations rather than the ton it usually takes
     bac:	0a 2f       	mov	r16, r26
	mov r17, r27
     bae:	1b 2f       	mov	r17, r27

00000bb0 <Crypto1FilterOutputEndShiftSixteenBit>:
Crypto1FilterOutputEndShiftSixteenBit:
	ldi ZH, hi8(TableB) ; set up first space for lookup
     bb0:	fa e0       	ldi	r31, 0x0A	; 10
	ldi ZL, lo8(TableB)
     bb2:	e7 ef       	ldi	r30, 0xF7	; 247
	add ZL, r21
     bb4:	e5 0f       	add	r30, r21
	adc ZH, r1
     bb6:	f1 1d       	adc	r31, r1
	lpm r21, Z
     bb8:	54 91       	lpm	r21, Z
	cpi r21, 0
     bba:	50 30       	cpi	r21, 0x00	; 0
	breq Crypto1FilterOutputEndShiftEightBit
     bbc:	09 f0       	breq	.+2      	; 0xbc0 <Crypto1FilterOutputEndShiftEightBit>
	mov r17, r16
     bbe:	10 2f       	mov	r17, r16

00000bc0 <Crypto1FilterOutputEndShiftEightBit>:
Crypto1FilterOutputEndShiftEightBit:
	ldi ZH, hi8(TableA) ; set up first space for lookup
     bc0:	fb e0       	ldi	r31, 0x0B	; 11
	ldi ZL, lo8(TableA)
     bc2:	e7 e1       	ldi	r30, 0x17	; 23
	add ZL, r23
     bc4:	e7 0f       	add	r30, r23
	adc ZH, r1
     bc6:	f1 1d       	adc	r31, r1
	lpm r23, Z
     bc8:	74 91       	lpm	r23, Z
	cpi r23, 0
     bca:	70 30       	cpi	r23, 0x00	; 0
	breq Crypto1FilterOutputEndShiftFourBit
     bcc:	11 f0       	breq	.+4      	; 0xbd2 <Crypto1FilterOutputEndShiftFourBit>
	swap r17
     bce:	12 95       	swap	r17
	andi r17, 0x0f ; may not be necessary
     bd0:	1f 70       	andi	r17, 0x0F	; 15

00000bd2 <Crypto1FilterOutputEndShiftFourBit>:
Crypto1FilterOutputEndShiftFourBit:
	ldi ZH, hi8(TableA)
     bd2:	fb e0       	ldi	r31, 0x0B	; 11
	ldi ZL, lo8(TableA)
     bd4:	e7 e1       	ldi	r30, 0x17	; 23
	add ZL, r20
     bd6:	e4 0f       	add	r30, r20
	adc ZH, r1
     bd8:	f1 1d       	adc	r31, r1
	lpm r20, Z
     bda:	44 91       	lpm	r20, Z
	cpi r20, 0 ; if its zero, skip
     bdc:	40 30       	cpi	r20, 0x00	; 0
	breq Crypto1FilterOutputEndShiftTwoBit
     bde:	11 f0       	breq	.+4      	; 0xbe4 <Crypto1FilterOutputEndShiftTwoBit>
	lsr r17
     be0:	16 95       	lsr	r17
	lsr r17
     be2:	16 95       	lsr	r17

00000be4 <Crypto1FilterOutputEndShiftTwoBit>:
Crypto1FilterOutputEndShiftTwoBit:
	ldi ZH, hi8(TableB)
     be4:	fa e0       	ldi	r31, 0x0A	; 10
	ldi ZL, lo8(TableB)
     be6:	e7 ef       	ldi	r30, 0xF7	; 247
	add ZL, r24
     be8:	e8 0f       	add	r30, r24
	adc ZH, r1
     bea:	f1 1d       	adc	r31, r1
	lpm r24, Z
     bec:	84 91       	lpm	r24, Z
	cpi r24, 0
     bee:	80 30       	cpi	r24, 0x00	; 0
	breq Crypto1FilterOutputEndShiftOneBit
     bf0:	09 f0       	breq	.+2      	; 0xbf4 <Crypto1FilterOutputEndShiftOneBit>
	lsr r17
     bf2:	16 95       	lsr	r17

00000bf4 <Crypto1FilterOutputEndShiftOneBit>:
Crypto1FilterOutputEndShiftOneBit:
	andi r17, 0x01
     bf4:	11 70       	andi	r17, 0x01	; 1
	mov r24, r17
     bf6:	81 2f       	mov	r24, r17
	pop r16
     bf8:	0f 91       	pop	r16
	pop r17
     bfa:	1f 91       	pop	r17
	pop r18
     bfc:	2f 91       	pop	r18
	ret
     bfe:	08 95       	ret

00000c00 <Crypto1Proceed>:

Crypto1Proceed:
	# 16 bit shift
	eor r22, r24
     c00:	68 27       	eor	r22, r24
	# 8 bit shift
	eor r22, r23
     c02:	67 27       	eor	r22, r23
	# 4 bit shift
	mov r23, r22
     c04:	76 2f       	mov	r23, r22
	swap r23
     c06:	72 95       	swap	r23
	eor r22, r23
     c08:	67 27       	eor	r22, r23
	andi r22, 0x0f
     c0a:	6f 70       	andi	r22, 0x0F	; 15
	# load shift value - endianness different to above to save an operation
	ldi r24, 0x96
     c0c:	86 e9       	ldi	r24, 0x96	; 150
	ldi r23, 0x69
     c0e:	79 e6       	ldi	r23, 0x69	; 105
	# shift value loop
	cpi r22, 0 ; if its zero, skip
     c10:	60 30       	cpi	r22, 0x00	; 0
	breq Crypto1ProceedSixteenBitShiftDone
     c12:	29 f0       	breq	.+10     	; 0xc1e <Crypto1ProceedSixteenBitShiftDone>

00000c14 <Crypto1ProceedSixteenBitShiftCheck>:
Crypto1ProceedSixteenBitShiftCheck:
	lsr r23
     c14:	76 95       	lsr	r23
	ror r24
     c16:	87 95       	ror	r24
	dec r22
     c18:	6a 95       	dec	r22
	cpi r22, 0
     c1a:	60 30       	cpi	r22, 0x00	; 0
	brne Crypto1ProceedSixteenBitShiftCheck
     c1c:	d9 f7       	brne	.-10     	; 0xc14 <Crypto1ProceedSixteenBitShiftCheck>

00000c1e <Crypto1ProceedSixteenBitShiftDone>:
Crypto1ProceedSixteenBitShiftDone:
	andi r24, 0x01
     c1e:	81 70       	andi	r24, 0x01	; 1
	ret
     c20:	08 95       	ret

00000c22 <Crypto1Bit>:

Crypto1Bit:
	push r24 ; first param
     c22:	8f 93       	push	r24
	push r22 ; second param
     c24:	6f 93       	push	r22
	lds r22, (StateOdd)
     c26:	60 91 66 23 	lds	r22, 0x2366	; 0x802366 <StateOdd>
	lds r23, (StateOdd+1)
     c2a:	70 91 67 23 	lds	r23, 0x2367	; 0x802367 <StateOdd+0x1>
	lds r24, (StateOdd+2)
     c2e:	80 91 68 23 	lds	r24, 0x2368	; 0x802368 <StateOdd+0x2>
	rcall Crypto1FilterOutput
     c32:	9f df       	rcall	.-194    	; 0xb72 <Crypto1FilterOutput>
	mov r25, r24 ; r25 contains filter output - r30 and r31 upper bits for calculations
     c34:	98 2f       	mov	r25, r24
	mov r0, r24
     c36:	08 2e       	mov	r0, r24
	ldi r30, 0x00
     c38:	e0 e0       	ldi	r30, 0x00	; 0
	ldi r31, 0x00
     c3a:	f0 e0       	ldi	r31, 0x00	; 0
	lds r18, (StateEven)
     c3c:	20 91 62 23 	lds	r18, 0x2362	; 0x802362 <StateEven>
	lds r19, (StateEven+1)
     c40:	30 91 63 23 	lds	r19, 0x2363	; 0x802363 <StateEven+0x1>
	lds r20, (StateEven+2)
     c44:	40 91 64 23 	lds	r20, 0x2364	; 0x802364 <StateEven+0x2>
	lds r22, (StateOdd)
     c48:	60 91 66 23 	lds	r22, 0x2366	; 0x802366 <StateOdd>
	lds r23, (StateOdd+1)
     c4c:	70 91 67 23 	lds	r23, 0x2367	; 0x802367 <StateOdd+0x1>
	lds r24, (StateOdd+2)
     c50:	80 91 68 23 	lds	r24, 0x2368	; 0x802368 <StateOdd+0x2>
	pop r26 ; second param
     c54:	af 91       	pop	r26
	pop r27 ; first param
     c56:	bf 91       	pop	r27

	and r25, r26
     c58:	9a 23       	and	r25, r26
	eor r25, r27
     c5a:	9b 27       	eor	r25, r27

	push r16
     c5c:	0f 93       	push	r16
	; and xor state 1 with 0x29CE5C
	ldi r16, 0x5c
     c5e:	0c e5       	ldi	r16, 0x5C	; 92
	and r22, r16
     c60:	60 23       	and	r22, r16
	ldi r16, 0xce
     c62:	0e ec       	ldi	r16, 0xCE	; 206
	and r23, r16
     c64:	70 23       	and	r23, r16
	ldi r16, 0x29
     c66:	09 e2       	ldi	r16, 0x29	; 41
	and r24, r16
     c68:	80 23       	and	r24, r16
	eor r25, r22
     c6a:	96 27       	eor	r25, r22
	eor r30, r23
     c6c:	e7 27       	eor	r30, r23
	eor r31, r24
     c6e:	f8 27       	eor	r31, r24

	; and xor state 0 with 0x0x870804
	ldi r16, 0x04
     c70:	04 e0       	ldi	r16, 0x04	; 4
	and r18, r16
     c72:	20 23       	and	r18, r16
	ldi r16, 0x08
     c74:	08 e0       	ldi	r16, 0x08	; 8
	and r19, r16
     c76:	30 23       	and	r19, r16
	ldi r16, 0x87
     c78:	07 e8       	ldi	r16, 0x87	; 135
	and r20, r16
     c7a:	40 23       	and	r20, r16

	eor r25, r18
     c7c:	92 27       	eor	r25, r18
	eor r30, r19
     c7e:	e3 27       	eor	r30, r19
	eor r31, r20
     c80:	f4 27       	eor	r31, r20

	; reload again, seriously need to improve this
	lds r18, (StateEven)
     c82:	20 91 62 23 	lds	r18, 0x2362	; 0x802362 <StateEven>
	lds r19, (StateEven+1)
     c86:	30 91 63 23 	lds	r19, 0x2363	; 0x802363 <StateEven+0x1>
	lds r20, (StateEven+2)
     c8a:	40 91 64 23 	lds	r20, 0x2364	; 0x802364 <StateEven+0x2>

	lsl r18
     c8e:	22 0f       	add	r18, r18
	rol r19
     c90:	33 1f       	adc	r19, r19
	rol r20
     c92:	44 1f       	adc	r20, r20

	; use parity function - r22,r23,r24
	push r24
     c94:	8f 93       	push	r24
	push r23
     c96:	7f 93       	push	r23
	push r22
     c98:	6f 93       	push	r22
	mov r22, r25
     c9a:	69 2f       	mov	r22, r25
	mov r23, r30
     c9c:	7e 2f       	mov	r23, r30
	mov r24, r31
     c9e:	8f 2f       	mov	r24, r31
	rcall Crypto1Proceed
     ca0:	af df       	rcall	.-162    	; 0xc00 <Crypto1Proceed>
	mov r16, r24
     ca2:	08 2f       	mov	r16, r24
	pop r22
     ca4:	6f 91       	pop	r22
	pop r23
     ca6:	7f 91       	pop	r23
	pop r24
     ca8:	8f 91       	pop	r24
	or r18,r16
     caa:	20 2b       	or	r18, r16
	pop r16
     cac:	0f 91       	pop	r16
	lds r22, (StateOdd)
     cae:	60 91 66 23 	lds	r22, 0x2366	; 0x802366 <StateOdd>
	lds r23, (StateOdd+1)
     cb2:	70 91 67 23 	lds	r23, 0x2367	; 0x802367 <StateOdd+0x1>
	lds r24, (StateOdd+2)
     cb6:	80 91 68 23 	lds	r24, 0x2368	; 0x802368 <StateOdd+0x2>

	; store in opposite registers
	sts (StateEven), r22
     cba:	60 93 62 23 	sts	0x2362, r22	; 0x802362 <StateEven>
	sts (StateEven+1), r23
     cbe:	70 93 63 23 	sts	0x2363, r23	; 0x802363 <StateEven+0x1>
	sts (StateEven+2), r24
     cc2:	80 93 64 23 	sts	0x2364, r24	; 0x802364 <StateEven+0x2>

	sts(StateOdd), r18
     cc6:	20 93 66 23 	sts	0x2366, r18	; 0x802366 <StateOdd>
	sts(StateOdd+1), r19
     cca:	30 93 67 23 	sts	0x2367, r19	; 0x802367 <StateOdd+0x1>
	sts(StateOdd+2), r20
     cce:	40 93 68 23 	sts	0x2368, r20	; 0x802368 <StateOdd+0x2>

	mov r24, r0
     cd2:	80 2d       	mov	r24, r0
     cd4:	08 95       	ret

00000cd6 <led_mode>:
	LED_LOW_PORT.OUTSET = Mask;
}

static inline
void CARDHEIGHSetOff(uint8_t Mask) {
	LED_HEIGH_PORT.OUTCLR = Mask;
     cd6:	60 e2       	ldi	r22, 0x20	; 32
     cd8:	60 93 06 06 	sts	0x0606, r22	; 0x800606 <__TEXT_REGION_LENGTH__+0x700606>
     cdc:	50 e1       	ldi	r21, 0x10	; 16
     cde:	50 93 06 06 	sts	0x0606, r21	; 0x800606 <__TEXT_REGION_LENGTH__+0x700606>
     ce2:	28 e0       	ldi	r18, 0x08	; 8
     ce4:	20 93 06 06 	sts	0x0606, r18	; 0x800606 <__TEXT_REGION_LENGTH__+0x700606>
     ce8:	94 e0       	ldi	r25, 0x04	; 4
     cea:	90 93 06 06 	sts	0x0606, r25	; 0x800606 <__TEXT_REGION_LENGTH__+0x700606>
}

static inline
void CARDLOWSetOff(uint8_t Mask) {
	LED_LOW_PORT.OUTCLR = Mask;
     cee:	20 93 86 06 	sts	0x0686, r18	; 0x800686 <__TEXT_REGION_LENGTH__+0x700686>
     cf2:	90 93 86 06 	sts	0x0686, r25	; 0x800686 <__TEXT_REGION_LENGTH__+0x700686>
     cf6:	42 e0       	ldi	r20, 0x02	; 2
     cf8:	40 93 86 06 	sts	0x0686, r20	; 0x800686 <__TEXT_REGION_LENGTH__+0x700686>
     cfc:	31 e0       	ldi	r19, 0x01	; 1
     cfe:	30 93 86 06 	sts	0x0686, r19	; 0x800686 <__TEXT_REGION_LENGTH__+0x700686>
	CARDLOWSetOff(LED_FIVE);
	CARDLOWSetOff(LED_SIX);
	CARDLOWSetOff(LED_SEVEN);
	CARDLOWSetOff(LED_EIGHT);

	switch(GlobalSettings.ActiveSetting) {
     d02:	80 91 00 20 	lds	r24, 0x2000	; 0x802000 <GlobalSettings>
     d06:	83 30       	cpi	r24, 0x03	; 3
     d08:	a9 f0       	breq	.+42     	; 0xd34 <led_mode+0x5e>
     d0a:	30 f4       	brcc	.+12     	; 0xd18 <led_mode+0x42>
     d0c:	81 30       	cpi	r24, 0x01	; 1
     d0e:	79 f0       	breq	.+30     	; 0xd2e <led_mode+0x58>
     d10:	58 f0       	brcs	.+22     	; 0xd28 <led_mode+0x52>
	LED_HEIGH_PORT.OUTSET = Mask;
     d12:	20 93 05 06 	sts	0x0605, r18	; 0x800605 <__TEXT_REGION_LENGTH__+0x700605>
     d16:	08 95       	ret
     d18:	85 30       	cpi	r24, 0x05	; 5
     d1a:	91 f0       	breq	.+36     	; 0xd40 <led_mode+0x6a>
     d1c:	70 f0       	brcs	.+28     	; 0xd3a <led_mode+0x64>
     d1e:	86 30       	cpi	r24, 0x06	; 6
     d20:	91 f0       	breq	.+36     	; 0xd46 <led_mode+0x70>
     d22:	87 30       	cpi	r24, 0x07	; 7
     d24:	99 f0       	breq	.+38     	; 0xd4c <led_mode+0x76>
     d26:	08 95       	ret
     d28:	60 93 05 06 	sts	0x0605, r22	; 0x800605 <__TEXT_REGION_LENGTH__+0x700605>
     d2c:	08 95       	ret
     d2e:	50 93 05 06 	sts	0x0605, r21	; 0x800605 <__TEXT_REGION_LENGTH__+0x700605>
     d32:	08 95       	ret
     d34:	90 93 05 06 	sts	0x0605, r25	; 0x800605 <__TEXT_REGION_LENGTH__+0x700605>
     d38:	08 95       	ret
	LED_LOW_PORT.OUTSET = Mask;
     d3a:	20 93 85 06 	sts	0x0685, r18	; 0x800685 <__TEXT_REGION_LENGTH__+0x700685>
     d3e:	08 95       	ret
     d40:	90 93 85 06 	sts	0x0685, r25	; 0x800685 <__TEXT_REGION_LENGTH__+0x700685>
     d44:	08 95       	ret
     d46:	40 93 85 06 	sts	0x0685, r20	; 0x800685 <__TEXT_REGION_LENGTH__+0x700685>
     d4a:	08 95       	ret
     d4c:	30 93 85 06 	sts	0x0685, r19	; 0x800685 <__TEXT_REGION_LENGTH__+0x700685>
		case 5:	CARDLOWSetOn(LED_SIX); break;
		case 6:	CARDLOWSetOn(LED_SEVEN); break;
		case 7:	CARDLOWSetOn(LED_EIGHT); break;
		default: break;
	}
}
     d50:	08 95       	ret

00000d52 <main>:

int main(void) {
	SystemInit();
     d52:	7b d0       	rcall	.+246    	; 0xe4a <SystemInit>
	MemoryInit();
     d54:	12 d2       	rcall	.+1060   	; 0x117a <MemoryInit>
	SettingsLoad();
     d56:	4f d6       	rcall	.+3230   	; 0x19f6 <SettingsLoad>
     d58:	8f e0       	ldi	r24, 0x0F	; 15
	LED_LOW_PORT.DIRSET = LED_LOW_MASK;
     d5a:	80 93 81 06 	sts	0x0681, r24	; 0x800681 <__TEXT_REGION_LENGTH__+0x700681>
     d5e:	9c e3       	ldi	r25, 0x3C	; 60
	LED_HEIGH_PORT.DIRSET = LED_HEIGH_MASK;
     d60:	90 93 01 06 	sts	0x0601, r25	; 0x800601 <__TEXT_REGION_LENGTH__+0x700601>
     d64:	90 93 01 06 	sts	0x0601, r25	; 0x800601 <__TEXT_REGION_LENGTH__+0x700601>
	LED_LOW_PORT.DIRSET = LED_LOW_MASK;
     d68:	80 93 81 06 	sts	0x0681, r24	; 0x800681 <__TEXT_REGION_LENGTH__+0x700681>
	LEDInit();
	CARDInit();
	ConfigurationInit();
	TerminalInit();
     d6c:	05 d1       	rcall	.+522    	; 0xf78 <ConfigurationInit>
     d6e:	56 d7       	rcall	.+3756   	; 0x1c1c <TerminalInit>
	RandomInit();
     d70:	40 d1       	rcall	.+640    	; 0xff2 <RandomInit>
     d72:	9e d5       	rcall	.+2876   	; 0x18b0 <ButtonInit>
	ButtonInit();
     d74:	81 e0       	ldi	r24, 0x01	; 1
     d76:	80 93 00 02 	sts	0x0200, r24	; 0x800200 <__TEXT_REGION_LENGTH__+0x700200>
#define ANTENNA_LEVEL_NUMERATOR	((uint32_t) (ANTENNA_LEVEL_MILLIVOLT * ANTENNA_LEVEL_FACTOR * ANTENNA_LEVEL_SCALE + .5))
#define ANTENNA_LEVEL_DENOMINATOR (ANTENNA_LEVEL_SCALE)

static inline void AntennaLevelInit(void)
{
	ADCA.CTRLA = ADC_ENABLE_bm;
     d7a:	10 92 01 02 	sts	0x0201, r1	; 0x800201 <__TEXT_REGION_LENGTH__+0x700201>
	ADCA.CTRLB = ADC_RESOLUTION_12BIT_gc;
     d7e:	92 e0       	ldi	r25, 0x02	; 2
     d80:	90 93 02 02 	sts	0x0202, r25	; 0x800202 <__TEXT_REGION_LENGTH__+0x700202>
	ADCA.REFCTRL = ADC_REFSEL_INT1V_gc | ADC_BANDGAP_bm;
     d84:	93 e0       	ldi	r25, 0x03	; 3
     d86:	90 93 04 02 	sts	0x0204, r25	; 0x800204 <__TEXT_REGION_LENGTH__+0x700204>
	ADCA.PRESCALER = ADC_PRESCALER_DIV32_gc;
     d8a:	80 93 20 02 	sts	0x0220, r24	; 0x800220 <__TEXT_REGION_LENGTH__+0x700220>
	ADCA.CH0.CTRL = ADC_CH_INPUTMODE_SINGLEENDED_gc;
	ADCA.CH0.MUXCTRL = ADC_CH_MUXPOS_PIN7_gc;
     d8e:	88 e3       	ldi	r24, 0x38	; 56
     d90:	80 93 21 02 	sts	0x0221, r24	; 0x800221 <__TEXT_REGION_LENGTH__+0x700221>
	AntennaLevelInit();
	SystemInterruptInit();
     d94:	c4 d0       	rcall	.+392    	; 0xf1e <SystemInterruptInit>
     d96:	9f df       	rcall	.-194    	; 0xcd6 <led_mode>
	led_mode();
     d98:	c1 e0       	ldi	r28, 0x01	; 1
     d9a:	44 d7       	rcall	.+3720   	; 0x1c24 <TerminalTask>
}

INLINE bool SystemTick100ms(void)
{
    if (TCE0.INTFLAGS & TC0_OVFIF_bm) {
        TCE0.INTFLAGS = TC0_OVFIF_bm;
     d9c:	e0 91 4e 21 	lds	r30, 0x214E	; 0x80214e <ActiveConfiguration+0x4>

	while(1) {
		TerminalTask();
     da0:	f0 91 4f 21 	lds	r31, 0x214F	; 0x80214f <ActiveConfiguration+0x5>
INLINE void CodecInit(void) {
    ActiveConfiguration.CodecInitFunc();
}

INLINE void CodecTask(void) {
    ActiveConfiguration.CodecTaskFunc();
     da4:	09 95       	icall
     da6:	e0 91 54 21 	lds	r30, 0x2154	; 0x802154 <ActiveConfiguration+0xa>
     daa:	f0 91 55 21 	lds	r31, 0x2155	; 0x802155 <ActiveConfiguration+0xb>
INLINE void ApplicationInit(void) {
    ActiveConfiguration.ApplicationInitFunc();
}

INLINE void ApplicationTask(void) {
    ActiveConfiguration.ApplicationTaskFunc();
     dae:	09 95       	icall
     db0:	80 91 0c 0a 	lds	r24, 0x0A0C	; 0x800a0c <__TEXT_REGION_LENGTH__+0x700a0c>
    if (TCE0.INTFLAGS & TC0_OVFIF_bm) {
     db4:	80 ff       	sbrs	r24, 0
     db6:	f1 cf       	rjmp	.-30     	; 0xd9a <main+0x48>
     db8:	c0 93 0c 0a 	sts	0x0A0C, r28	; 0x800a0c <__TEXT_REGION_LENGTH__+0x700a0c>
        TCE0.INTFLAGS = TC0_OVFIF_bm;
     dbc:	2f d1       	rcall	.+606    	; 0x101c <RandomTick>
		CodecTask();
		ApplicationTask();

		if (SystemTick100ms()) {
			RandomTick();
     dbe:	4b d7       	rcall	.+3734   	; 0x1c56 <TerminalTick>
     dc0:	7e d5       	rcall	.+2812   	; 0x18be <ButtonTick>
			TerminalTick();
     dc2:	89 df       	rcall	.-238    	; 0xcd6 <led_mode>
     dc4:	80 91 5e 20 	lds	r24, 0x205E	; 0x80205e <LEDLowPulseMask>
			ButtonTick();
     dc8:	80 93 06 06 	sts	0x0606, r24	; 0x800606 <__TEXT_REGION_LENGTH__+0x700606>
			led_mode();
     dcc:	10 92 5e 20 	sts	0x205E, r1	; 0x80205e <LEDLowPulseMask>
	LED_HEIGH_PORT.OUTCLR = LEDLowPulseMask;
     dd0:	80 91 5d 20 	lds	r24, 0x205D	; 0x80205d <LEDHighPulseMask>
     dd4:	80 93 86 06 	sts	0x0686, r24	; 0x800686 <__TEXT_REGION_LENGTH__+0x700686>
	LEDLowPulseMask = 0;
     dd8:	10 92 5d 20 	sts	0x205D, r1	; 0x80205d <LEDHighPulseMask>
	LED_LOW_PORT.OUTCLR = LEDHighPulseMask;
     ddc:	de cf       	rjmp	.-68     	; 0xd9a <main+0x48>

00000dde <CALLBACK_USB_GetDescriptor>:
 */
uint16_t CALLBACK_USB_GetDescriptor(const uint16_t wValue,
                                    const uint8_t wIndex,
                                    const void** const DescriptorAddress)
{
    const uint8_t  DescriptorType   = (wValue >> 8);
     dde:	29 2f       	mov	r18, r25
     de0:	33 27       	eor	r19, r19
    const uint8_t  DescriptorNumber = (wValue & 0xFF);

    const void* Address = NULL;
    uint16_t    Size    = NO_DESCRIPTOR;

    switch (DescriptorType)
     de2:	22 30       	cpi	r18, 0x02	; 2
     de4:	31 05       	cpc	r19, r1
     de6:	71 f0       	breq	.+28     	; 0xe04 <CALLBACK_USB_GetDescriptor+0x26>
     de8:	23 30       	cpi	r18, 0x03	; 3
     dea:	31 05       	cpc	r19, r1
     dec:	81 f0       	breq	.+32     	; 0xe0e <CALLBACK_USB_GetDescriptor+0x30>
     dee:	21 30       	cpi	r18, 0x01	; 1
     df0:	31 05       	cpc	r19, r1
     df2:	a1 f4       	brne	.+40     	; 0xe1c <CALLBACK_USB_GetDescriptor+0x3e>
    {
        case DTYPE_Device:
            Address = &DeviceDescriptor;
            Size    = sizeof(USB_Descriptor_Device_t);
     df4:	82 e1       	ldi	r24, 0x12	; 18
     df6:	90 e0       	ldi	r25, 0x00	; 0
            Address = &DeviceDescriptor;
     df8:	2e e7       	ldi	r18, 0x7E	; 126
     dfa:	32 e0       	ldi	r19, 0x02	; 2
            }

            break;
    }

    *DescriptorAddress = Address;
     dfc:	fa 01       	movw	r30, r20
     dfe:	20 83       	st	Z, r18
     e00:	31 83       	std	Z+1, r19	; 0x01
    return Size;
}
     e02:	08 95       	ret
            Size    = sizeof(USB_Descriptor_Configuration_t);
     e04:	8e e3       	ldi	r24, 0x3E	; 62
     e06:	90 e0       	ldi	r25, 0x00	; 0
            Address = &ConfigurationDescriptor;
     e08:	20 e4       	ldi	r18, 0x40	; 64
     e0a:	32 e0       	ldi	r19, 0x02	; 2
            break;
     e0c:	f7 cf       	rjmp	.-18     	; 0xdfc <CALLBACK_USB_GetDescriptor+0x1e>
            switch (DescriptorNumber)
     e0e:	99 27       	eor	r25, r25
     e10:	81 30       	cpi	r24, 0x01	; 1
     e12:	91 05       	cpc	r25, r1
     e14:	71 f0       	breq	.+28     	; 0xe32 <CALLBACK_USB_GetDescriptor+0x54>
     e16:	38 f0       	brcs	.+14     	; 0xe26 <CALLBACK_USB_GetDescriptor+0x48>
     e18:	02 97       	sbiw	r24, 0x02	; 2
     e1a:	71 f0       	breq	.+28     	; 0xe38 <CALLBACK_USB_GetDescriptor+0x5a>
    uint16_t    Size    = NO_DESCRIPTOR;
     e1c:	90 e0       	ldi	r25, 0x00	; 0
     e1e:	80 e0       	ldi	r24, 0x00	; 0
    const void* Address = NULL;
     e20:	30 e0       	ldi	r19, 0x00	; 0
     e22:	20 e0       	ldi	r18, 0x00	; 0
     e24:	eb cf       	rjmp	.-42     	; 0xdfc <CALLBACK_USB_GetDescriptor+0x1e>
                    Size    = pgm_read_byte(&LanguageString.Header.Size);
     e26:	ec e3       	ldi	r30, 0x3C	; 60
     e28:	f2 e0       	ldi	r31, 0x02	; 2
                    Size    = pgm_read_byte(&ProductString.Header.Size);
     e2a:	84 91       	lpm	r24, Z
     e2c:	90 e0       	ldi	r25, 0x00	; 0
                    Address = &ProductString;
     e2e:	9f 01       	movw	r18, r30
                    break;
     e30:	e5 cf       	rjmp	.-54     	; 0xdfc <CALLBACK_USB_GetDescriptor+0x1e>
                    Size    = pgm_read_byte(&ManufacturerString.Header.Size);
     e32:	e2 e2       	ldi	r30, 0x22	; 34
     e34:	f2 e0       	ldi	r31, 0x02	; 2
     e36:	f9 cf       	rjmp	.-14     	; 0xe2a <CALLBACK_USB_GetDescriptor+0x4c>
                    Size    = pgm_read_byte(&ProductString.Header.Size);
     e38:	ec ef       	ldi	r30, 0xFC	; 252
     e3a:	f1 e0       	ldi	r31, 0x01	; 1
     e3c:	f6 cf       	rjmp	.-20     	; 0xe2a <CALLBACK_USB_GetDescriptor+0x4c>

00000e3e <__vector_default>:

#include "System.h"
#include "LED.h"

ISR(BADISR_vect)
{
     e3e:	1f 92       	push	r1
     e40:	0f 92       	push	r0
     e42:	0f b6       	in	r0, 0x3f	; 63
     e44:	0f 92       	push	r0
     e46:	11 24       	eor	r1, r1
     e48:	ff cf       	rjmp	.-2      	; 0xe48 <__vector_default+0xa>

00000e4a <SystemInit>:
    while(1);
}

void SystemInit(void)
{
    if (RST.STATUS & RST_WDRF_bm) {
     e4a:	80 91 78 00 	lds	r24, 0x0078	; 0x800078 <__TEXT_REGION_LENGTH__+0x700078>
     e4e:	83 ff       	sbrs	r24, 3
     e50:	0a c0       	rjmp	.+20     	; 0xe66 <SystemInit+0x1c>
        /* On Watchdog reset clear WDRF bit, disable watchdog
        * and jump into bootloader */
        RST.STATUS = RST_WDRF_bm;
     e52:	88 e0       	ldi	r24, 0x08	; 8
     e54:	80 93 78 00 	sts	0x0078, r24	; 0x800078 <__TEXT_REGION_LENGTH__+0x700078>

        CCP = CCP_IOREG_gc;
     e58:	88 ed       	ldi	r24, 0xD8	; 216
     e5a:	84 bf       	out	0x34, r24	; 52
        WDT.CTRL = WDT_CEN_bm;
     e5c:	81 e0       	ldi	r24, 0x01	; 1
     e5e:	80 93 80 00 	sts	0x0080, r24	; 0x800080 <__TEXT_REGION_LENGTH__+0x700080>

        asm volatile ("jmp %0"::"i" (BOOT_SECTION_START + 0x1FC));
     e62:	fd 95 fe c0 	jmp	0x7f81fc	; 0x7f81fc <__TEXT_REGION_LENGTH__+0x6f81fc>
    }

    /* 32MHz system clock using internal RC and 32K DFLL*/
    OSC.CTRL |= OSC_RC32MEN_bm | OSC_RC32KEN_bm;
     e66:	80 91 50 00 	lds	r24, 0x0050	; 0x800050 <__TEXT_REGION_LENGTH__+0x700050>
     e6a:	86 60       	ori	r24, 0x06	; 6
     e6c:	80 93 50 00 	sts	0x0050, r24	; 0x800050 <__TEXT_REGION_LENGTH__+0x700050>
    while(!(OSC.STATUS & OSC_RC32MRDY_bm))
     e70:	80 91 51 00 	lds	r24, 0x0051	; 0x800051 <__TEXT_REGION_LENGTH__+0x700051>
     e74:	81 ff       	sbrs	r24, 1
     e76:	fc cf       	rjmp	.-8      	; 0xe70 <SystemInit+0x26>
        ;
    while(!(OSC.STATUS & OSC_RC32KRDY_bm))
     e78:	80 91 51 00 	lds	r24, 0x0051	; 0x800051 <__TEXT_REGION_LENGTH__+0x700051>
     e7c:	82 ff       	sbrs	r24, 2
     e7e:	fc cf       	rjmp	.-8      	; 0xe78 <SystemInit+0x2e>
        ;

    OSC.DFLLCTRL = OSC_RC32MCREF_RC32K_gc;
     e80:	10 92 56 00 	sts	0x0056, r1	; 0x800056 <__TEXT_REGION_LENGTH__+0x700056>
    DFLLRC32M.CTRL = DFLL_ENABLE_bm;
     e84:	81 e0       	ldi	r24, 0x01	; 1
     e86:	80 93 60 00 	sts	0x0060, r24	; 0x800060 <__TEXT_REGION_LENGTH__+0x700060>

    CCP = CCP_IOREG_gc;
     e8a:	98 ed       	ldi	r25, 0xD8	; 216
     e8c:	94 bf       	out	0x34, r25	; 52
    CLK.CTRL = CLK_SCLKSEL_RC32M_gc;
     e8e:	80 93 40 00 	sts	0x0040, r24	; 0x800040 <__TEXT_REGION_LENGTH__+0x700040>

    /* Use TCE0 as system tick */
    TCE0.PER = F_CPU / 256 / SYSTEM_TICK_FREQ - 1;
     e92:	23 ed       	ldi	r18, 0xD3	; 211
     e94:	30 e3       	ldi	r19, 0x30	; 48
     e96:	20 93 26 0a 	sts	0x0A26, r18	; 0x800a26 <__TEXT_REGION_LENGTH__+0x700a26>
     e9a:	30 93 27 0a 	sts	0x0A27, r19	; 0x800a27 <__TEXT_REGION_LENGTH__+0x700a27>
    TCE0.CTRLA = TC_CLKSEL_DIV256_gc;
     e9e:	96 e0       	ldi	r25, 0x06	; 6
     ea0:	90 93 00 0a 	sts	0x0A00, r25	; 0x800a00 <__TEXT_REGION_LENGTH__+0x700a00>

    /* Enable RTC with roughly 1kHz clock */
    CLK.RTCCTRL = CLK_RTCSRC_ULP_gc | CLK_RTCEN_bm;
     ea4:	80 93 43 00 	sts	0x0043, r24	; 0x800043 <__TEXT_REGION_LENGTH__+0x700043>
    RTC.CTRL = RTC_PRESCALER_DIV1_gc;
     ea8:	80 93 00 04 	sts	0x0400, r24	; 0x800400 <__TEXT_REGION_LENGTH__+0x700400>

    /* Enable EEPROM data memory mapping */
    NVM.CTRLB |= NVM_EEMAPEN_bm;
     eac:	80 91 cc 01 	lds	r24, 0x01CC	; 0x8001cc <__TEXT_REGION_LENGTH__+0x7001cc>
     eb0:	88 60       	ori	r24, 0x08	; 8
     eb2:	80 93 cc 01 	sts	0x01CC, r24	; 0x8001cc <__TEXT_REGION_LENGTH__+0x7001cc>
}
     eb6:	08 95       	ret

00000eb8 <SystemReset>:

void SystemReset(void)
{
    CCP = CCP_IOREG_gc;
     eb8:	88 ed       	ldi	r24, 0xD8	; 216
     eba:	84 bf       	out	0x34, r24	; 52
    RST.CTRL = RST_SWRST_bm;
     ebc:	81 e0       	ldi	r24, 0x01	; 1
     ebe:	80 93 79 00 	sts	0x0079, r24	; 0x800079 <__TEXT_REGION_LENGTH__+0x700079>

}
     ec2:	08 95       	ret

00000ec4 <SystemEnterBootloader>:

void SystemEnterBootloader(void)
{
    /* Use Watchdog timer to reset into bootloader. */
    CCP = CCP_IOREG_gc;
     ec4:	88 ed       	ldi	r24, 0xD8	; 216
     ec6:	84 bf       	out	0x34, r24	; 52
    WDT.CTRL = WDT_PER_512CLK_gc | WDT_ENABLE_bm | WDT_CEN_bm;
     ec8:	8b e1       	ldi	r24, 0x1B	; 27
     eca:	80 93 80 00 	sts	0x0080, r24	; 0x800080 <__TEXT_REGION_LENGTH__+0x700080>
}
     ece:	08 95       	ret

00000ed0 <SystemStartUSBClock>:


void SystemStartUSBClock(void)
{
    /* 48MHz USB Clock using 12MHz XTAL */
    OSC.XOSCCTRL = OSC_FRQRANGE_12TO16_gc | OSC_XOSCSEL_XTAL_16KCLK_gc;
     ed0:	8b ec       	ldi	r24, 0xCB	; 203
     ed2:	80 93 52 00 	sts	0x0052, r24	; 0x800052 <__TEXT_REGION_LENGTH__+0x700052>
    OSC.CTRL |= OSC_XOSCEN_bm;
     ed6:	80 91 50 00 	lds	r24, 0x0050	; 0x800050 <__TEXT_REGION_LENGTH__+0x700050>
     eda:	88 60       	ori	r24, 0x08	; 8
     edc:	80 93 50 00 	sts	0x0050, r24	; 0x800050 <__TEXT_REGION_LENGTH__+0x700050>
    while(!(OSC.STATUS & OSC_XOSCRDY_bm))
     ee0:	80 91 51 00 	lds	r24, 0x0051	; 0x800051 <__TEXT_REGION_LENGTH__+0x700051>
     ee4:	83 ff       	sbrs	r24, 3
     ee6:	fc cf       	rjmp	.-8      	; 0xee0 <SystemStartUSBClock+0x10>
        ;

    OSC.PLLCTRL = OSC_PLLSRC_XOSC_gc | (4 << OSC_PLLFAC_gp);
     ee8:	84 ec       	ldi	r24, 0xC4	; 196
     eea:	80 93 55 00 	sts	0x0055, r24	; 0x800055 <__TEXT_REGION_LENGTH__+0x700055>

    OSC.CTRL |= OSC_PLLEN_bm;
     eee:	80 91 50 00 	lds	r24, 0x0050	; 0x800050 <__TEXT_REGION_LENGTH__+0x700050>
     ef2:	80 61       	ori	r24, 0x10	; 16
     ef4:	80 93 50 00 	sts	0x0050, r24	; 0x800050 <__TEXT_REGION_LENGTH__+0x700050>
    while(!(OSC.STATUS & OSC_PLLRDY_bm))
     ef8:	80 91 51 00 	lds	r24, 0x0051	; 0x800051 <__TEXT_REGION_LENGTH__+0x700051>
     efc:	84 ff       	sbrs	r24, 4
     efe:	fc cf       	rjmp	.-8      	; 0xef8 <SystemStartUSBClock+0x28>
        ;
}
     f00:	08 95       	ret

00000f02 <SystemStopUSBClock>:

void SystemStopUSBClock(void)
{
    /* Disable USB Clock to minimize power consumption */
    CLK.USBCTRL &= ~CLK_USBSEN_bm;
     f02:	e0 e4       	ldi	r30, 0x40	; 64
     f04:	f0 e0       	ldi	r31, 0x00	; 0
     f06:	84 81       	ldd	r24, Z+4	; 0x04
     f08:	8e 7f       	andi	r24, 0xFE	; 254
     f0a:	84 83       	std	Z+4, r24	; 0x04
    OSC.CTRL &= ~OSC_PLLEN_bm;
     f0c:	e0 e5       	ldi	r30, 0x50	; 80
     f0e:	f0 e0       	ldi	r31, 0x00	; 0
     f10:	80 81       	ld	r24, Z
     f12:	8f 7e       	andi	r24, 0xEF	; 239
     f14:	80 83       	st	Z, r24
    OSC.CTRL &= ~OSC_XOSCEN_bm;
     f16:	80 81       	ld	r24, Z
     f18:	87 7f       	andi	r24, 0xF7	; 247
     f1a:	80 83       	st	Z, r24
}
     f1c:	08 95       	ret

00000f1e <SystemInterruptInit>:

void SystemInterruptInit(void)
{
    /* Enable all interrupt levels */
    PMIC.CTRL = PMIC_LOLVLEN_bm | PMIC_MEDLVLEN_bm | PMIC_HILVLEN_bm;
     f1e:	87 e0       	ldi	r24, 0x07	; 7
     f20:	80 93 a2 00 	sts	0x00A2, r24	; 0x8000a2 <__TEXT_REGION_LENGTH__+0x7000a2>
    sei();
     f24:	78 94       	sei
}
     f26:	08 95       	ret

00000f28 <CodecInitDummy>:

/* Include all Codecs and Applications */
#include "Codec/Codec.h"
#include "Application/Application.h"

static void CodecInitDummy(void) { }
     f28:	08 95       	ret

00000f2a <ApplicationProcessDummy>:
static void CodecTaskDummy(void) { }
static void ApplicationInitDummy(void) {}
static void ApplicationResetDummy(void) {}
static void ApplicationTaskDummy(void) {}
static void ApplicationTickDummy(void) {}
static uint16_t ApplicationProcessDummy(uint8_t* ByteBuffer, uint16_t ByteCount) { return 0; }
     f2a:	90 e0       	ldi	r25, 0x00	; 0
     f2c:	80 e0       	ldi	r24, 0x00	; 0
     f2e:	08 95       	ret

00000f30 <ApplicationGetUidDummy>:
static void ApplicationGetUidDummy(ConfigurationUidType Uid) { }
     f30:	08 95       	ret

00000f32 <ApplicationSetUidDummy>:
     f32:	08 95       	ret

00000f34 <ApplicationTickDummy>:
     f34:	08 95       	ret

00000f36 <ApplicationTaskDummy>:
     f36:	08 95       	ret

00000f38 <ApplicationResetDummy>:
     f38:	08 95       	ret

00000f3a <ApplicationInitDummy>:
     f3a:	08 95       	ret

00000f3c <CodecTaskDummy>:
     f3c:	08 95       	ret

00000f3e <ConfigurationSetById>:
{
    ConfigurationSetById(GlobalSettings.ActiveSettingPtr->Configuration);
}

void ConfigurationSetById( ConfigurationEnum Configuration )
{
     f3e:	cf 93       	push	r28
     f40:	df 93       	push	r29
	GlobalSettings.ActiveSettingPtr->Configuration = Configuration;
     f42:	e0 91 01 20 	lds	r30, 0x2001	; 0x802001 <GlobalSettings+0x1>
     f46:	f0 91 02 20 	lds	r31, 0x2002	; 0x802002 <GlobalSettings+0x2>
     f4a:	82 83       	std	Z+2, r24	; 0x02

    /* Copy struct from PROGMEM to RAM */
    memcpy_P(&ActiveConfiguration, &ConfigurationTable[Configuration], sizeof(ConfigurationType));
     f4c:	98 e1       	ldi	r25, 0x18	; 24
     f4e:	89 9f       	mul	r24, r25
     f50:	b0 01       	movw	r22, r0
     f52:	11 24       	eor	r1, r1
     f54:	60 57       	subi	r22, 0x70	; 112
     f56:	7d 4f       	sbci	r23, 0xFD	; 253
     f58:	48 e1       	ldi	r20, 0x18	; 24
     f5a:	50 e0       	ldi	r21, 0x00	; 0
     f5c:	8a e4       	ldi	r24, 0x4A	; 74
     f5e:	91 e2       	ldi	r25, 0x21	; 33
     f60:	0e 94 17 2e 	call	0x5c2e	; 0x5c2e <memcpy_P>
    ActiveConfiguration.CodecInitFunc();
     f64:	ca e4       	ldi	r28, 0x4A	; 74
     f66:	d1 e2       	ldi	r29, 0x21	; 33
     f68:	e8 81       	ld	r30, Y
     f6a:	f9 81       	ldd	r31, Y+1	; 0x01
     f6c:	09 95       	icall
    ActiveConfiguration.ApplicationInitFunc();
     f6e:	ee 81       	ldd	r30, Y+6	; 0x06
     f70:	ff 81       	ldd	r31, Y+7	; 0x07

    CodecInit();
    ApplicationInit();
}
     f72:	df 91       	pop	r29
     f74:	cf 91       	pop	r28
     f76:	09 94       	ijmp

00000f78 <ConfigurationInit>:
    ConfigurationSetById(GlobalSettings.ActiveSettingPtr->Configuration);
     f78:	e0 91 01 20 	lds	r30, 0x2001	; 0x802001 <GlobalSettings+0x1>
     f7c:	f0 91 02 20 	lds	r31, 0x2002	; 0x802002 <GlobalSettings+0x2>
     f80:	82 81       	ldd	r24, Z+2	; 0x02
     f82:	dd cf       	rjmp	.-70     	; 0xf3e <ConfigurationSetById>

00000f84 <ConfigurationGetByName>:

void ConfigurationGetByName(char* Configuration, uint16_t BufferSize)
{
     f84:	0f 93       	push	r16
     f86:	1f 93       	push	r17
    MapIdToText(ConfigurationMap, ARRAY_COUNT(ConfigurationMap), GlobalSettings.ActiveSettingPtr->Configuration, Configuration, BufferSize);
     f88:	e0 91 01 20 	lds	r30, 0x2001	; 0x802001 <GlobalSettings+0x1>
     f8c:	f0 91 02 20 	lds	r31, 0x2002	; 0x802002 <GlobalSettings+0x2>
     f90:	8b 01       	movw	r16, r22
     f92:	9c 01       	movw	r18, r24
     f94:	42 81       	ldd	r20, Z+2	; 0x02
     f96:	69 e0       	ldi	r22, 0x09	; 9
     f98:	88 e6       	ldi	r24, 0x68	; 104
     f9a:	93 e0       	ldi	r25, 0x03	; 3
     f9c:	85 d5       	rcall	.+2826   	; 0x1aa8 <MapIdToText>
}
     f9e:	1f 91       	pop	r17
     fa0:	0f 91       	pop	r16
     fa2:	08 95       	ret

00000fa4 <ConfigurationSetByName>:

bool ConfigurationSetByName(const char* Configuration)
{
     fa4:	1f 93       	push	r17
     fa6:	cf 93       	push	r28
     fa8:	df 93       	push	r29
     faa:	1f 92       	push	r1
     fac:	cd b7       	in	r28, 0x3d	; 61
     fae:	de b7       	in	r29, 0x3e	; 62
    MapIdType Id;
	
    if (MapTextToId(ConfigurationMap, ARRAY_COUNT(ConfigurationMap), Configuration, &Id)) {
     fb0:	9e 01       	movw	r18, r28
     fb2:	2f 5f       	subi	r18, 0xFF	; 255
     fb4:	3f 4f       	sbci	r19, 0xFF	; 255
     fb6:	ac 01       	movw	r20, r24
     fb8:	69 e0       	ldi	r22, 0x09	; 9
     fba:	88 e6       	ldi	r24, 0x68	; 104
     fbc:	93 e0       	ldi	r25, 0x03	; 3
     fbe:	8d d5       	rcall	.+2842   	; 0x1ada <MapTextToId>
     fc0:	18 2f       	mov	r17, r24
     fc2:	88 23       	and	r24, r24
     fc4:	41 f0       	breq	.+16     	; 0xfd6 <ConfigurationSetByName+0x32>
#ifdef CONFIG_MF_CLASSIC_4K_SUPPORT
		if (Id == CONFIG_MF_CLASSIC_4K && GlobalSettings.ActiveSetting != 0)
     fc6:	89 81       	ldd	r24, Y+1	; 0x01
     fc8:	87 30       	cpi	r24, 0x07	; 7
     fca:	21 f4       	brne	.+8      	; 0xfd4 <ConfigurationSetByName+0x30>
     fcc:	90 91 00 20 	lds	r25, 0x2000	; 0x802000 <GlobalSettings>
     fd0:	91 11       	cpse	r25, r1
		{
			return false;
		}
#endif
        ConfigurationSetById(Id);
     fd2:	07 c0       	rjmp	.+14     	; 0xfe2 <ConfigurationSetByName+0x3e>
     fd4:	b4 df       	rcall	.-152    	; 0xf3e <ConfigurationSetById>
        return true;
    } else {
	return false;
    }
}
     fd6:	81 2f       	mov	r24, r17
     fd8:	0f 90       	pop	r0
     fda:	df 91       	pop	r29
     fdc:	cf 91       	pop	r28
     fde:	1f 91       	pop	r17
     fe0:	08 95       	ret
	return false;
     fe2:	10 e0       	ldi	r17, 0x00	; 0
     fe4:	f8 cf       	rjmp	.-16     	; 0xfd6 <ConfigurationSetByName+0x32>

00000fe6 <ConfigurationGetList>:

void ConfigurationGetList(char* List, uint16_t BufferSize)
{
     fe6:	9b 01       	movw	r18, r22
    MapToString(ConfigurationMap, ARRAY_COUNT(ConfigurationMap), List, BufferSize);
     fe8:	ac 01       	movw	r20, r24
     fea:	69 e0       	ldi	r22, 0x09	; 9
     fec:	88 e6       	ldi	r24, 0x68	; 104
     fee:	93 e0       	ldi	r25, 0x03	; 3
     ff0:	9b c5       	rjmp	.+2870   	; 0x1b28 <MapToString>

00000ff2 <RandomInit>:
#include "Random.h"

void RandomInit(void) {
}
     ff2:	08 95       	ret

00000ff4 <RandomGetByte>:

uint8_t RandomGetByte(void) {
    return rand() & 0xFF;
     ff4:	0c 94 09 2e 	jmp	0x5c12	; 0x5c12 <rand>
}
     ff8:	08 95       	ret

00000ffa <RandomGetBuffer>:

void RandomGetBuffer(void* Buffer, uint8_t ByteCount) {
     ffa:	0f 93       	push	r16
     ffc:	1f 93       	push	r17
     ffe:	cf 93       	push	r28
    1000:	c6 2f       	mov	r28, r22
    1002:	8c 01       	movw	r16, r24
    uint8_t* BufferPtr = (uint8_t*) Buffer;

    while (ByteCount--) {
    1004:	c1 50       	subi	r28, 0x01	; 1
    1006:	20 f4       	brcc	.+8      	; 0x1010 <RandomGetBuffer+0x16>
        *BufferPtr++ = RandomGetByte();
    }
}
    1008:	cf 91       	pop	r28
    100a:	1f 91       	pop	r17
    100c:	0f 91       	pop	r16
    100e:	08 95       	ret
    return rand() & 0xFF;
    1010:	0e 94 09 2e 	call	0x5c12	; 0x5c12 <rand>
    1014:	f8 01       	movw	r30, r16
    1016:	81 93       	st	Z+, r24
    1018:	8f 01       	movw	r16, r30
    101a:	f4 cf       	rjmp	.-24     	; 0x1004 <RandomGetBuffer+0xa>

0000101c <RandomTick>:

void RandomTick(void) {
    rand();
    101c:	0e 94 09 2e 	call	0x5c12	; 0x5c12 <rand>
    rand();
    1020:	0e 94 09 2e 	call	0x5c12	; 0x5c12 <rand>
    rand();
    1024:	0e 94 09 2e 	call	0x5c12	; 0x5c12 <rand>
    rand();
    1028:	0c 94 09 2e 	jmp	0x5c12	; 0x5c12 <rand>

0000102c <BufferToHexString>:
    0,	1,	1,	0,	1,	0,	0,	1,	1,	0,	0,	1,	0,	1,	1,	0,
    1,	0,	0,	1,	0,	1,	1,	0,	0,	1,	1,	0,	1,	0,	0,	1,
};

uint16_t BufferToHexString(char* HexOut, uint16_t MaxChars, const void* Buffer, uint16_t ByteCount)
{
    102c:	cf 93       	push	r28
    102e:	df 93       	push	r29
    1030:	ec 01       	movw	r28, r24
    uint8_t* ByteBuffer = (uint8_t*) Buffer;
    uint16_t CharCount = 0;

    /* Account for '\0' at the end */
    MaxChars--;
    1032:	61 50       	subi	r22, 0x01	; 1
    1034:	71 09       	sbc	r23, r1
    1036:	da 01       	movw	r26, r20
    1038:	42 0f       	add	r20, r18
    103a:	53 1f       	adc	r21, r19

    while( (ByteCount > 0) && (MaxChars >= 2) ) {
    103c:	fc 01       	movw	r30, r24
    103e:	cf 01       	movw	r24, r30
    1040:	8c 1b       	sub	r24, r28
    1042:	9d 0b       	sbc	r25, r29
    1044:	a4 17       	cp	r26, r20
    1046:	b5 07       	cpc	r27, r21
    1048:	41 f4       	brne	.+16     	; 0x105a <BufferToHexString+0x2e>
        CharCount += 2;
        ByteBuffer++;
        ByteCount -= 1;
    }

    *HexOut = '\0';
    104a:	10 82       	st	Z, r1

    return CharCount;
}
    104c:	df 91       	pop	r29
    104e:	cf 91       	pop	r28
    1050:	08 95       	ret
        HexOut[0] = NIBBLE_TO_HEXCHAR( (Byte >> 4) & 0x0F );
    1052:	39 5c       	subi	r19, 0xC9	; 201
    1054:	0c c0       	rjmp	.+24     	; 0x106e <BufferToHexString+0x42>
        HexOut[1] = NIBBLE_TO_HEXCHAR( (Byte >> 0) & 0x0F );
    1056:	99 5c       	subi	r25, 0xC9	; 201
    1058:	0f c0       	rjmp	.+30     	; 0x1078 <BufferToHexString+0x4c>
    while( (ByteCount > 0) && (MaxChars >= 2) ) {
    105a:	62 30       	cpi	r22, 0x02	; 2
    105c:	71 05       	cpc	r23, r1
    105e:	a8 f3       	brcs	.-22     	; 0x104a <BufferToHexString+0x1e>
        uint8_t Byte = *ByteBuffer;
    1060:	9d 91       	ld	r25, X+
        HexOut[0] = NIBBLE_TO_HEXCHAR( (Byte >> 4) & 0x0F );
    1062:	39 2f       	mov	r19, r25
    1064:	32 95       	swap	r19
    1066:	3f 70       	andi	r19, 0x0F	; 15
    1068:	3a 30       	cpi	r19, 0x0A	; 10
    106a:	98 f7       	brcc	.-26     	; 0x1052 <BufferToHexString+0x26>
    106c:	30 5d       	subi	r19, 0xD0	; 208
    106e:	30 83       	st	Z, r19
    1070:	9f 70       	andi	r25, 0x0F	; 15
        HexOut[1] = NIBBLE_TO_HEXCHAR( (Byte >> 0) & 0x0F );
    1072:	9a 30       	cpi	r25, 0x0A	; 10
    1074:	80 f7       	brcc	.-32     	; 0x1056 <BufferToHexString+0x2a>
    1076:	90 5d       	subi	r25, 0xD0	; 208
    1078:	91 83       	std	Z+1, r25	; 0x01
        HexOut += 2;
    107a:	32 96       	adiw	r30, 0x02	; 2
        MaxChars -= 2;
    107c:	62 50       	subi	r22, 0x02	; 2
    107e:	71 09       	sbc	r23, r1
    1080:	de cf       	rjmp	.-68     	; 0x103e <BufferToHexString+0x12>

00001082 <HexStringToBuffer>:

uint16_t HexStringToBuffer(void* Buffer, uint16_t MaxBytes, const char* HexIn)
{
    1082:	cf 93       	push	r28
    1084:	df 93       	push	r29
    1086:	ec 01       	movw	r28, r24
    1088:	da 01       	movw	r26, r20
    uint8_t* ByteBuffer = (uint8_t*) Buffer;
    uint16_t ByteCount = 0;
    108a:	f0 e0       	ldi	r31, 0x00	; 0
    108c:	e0 e0       	ldi	r30, 0x00	; 0

    while( (HexIn[0] != '\0') && (HexIn[1] != '\0') && (MaxBytes > 0) ) {
    108e:	5c 91       	ld	r21, X
    1090:	55 23       	and	r21, r21
    1092:	41 f0       	breq	.+16     	; 0x10a4 <HexStringToBuffer+0x22>
    1094:	11 96       	adiw	r26, 0x01	; 1
    1096:	9c 91       	ld	r25, X
    1098:	11 97       	sbiw	r26, 0x01	; 1
    109a:	99 23       	and	r25, r25
    109c:	51 f1       	breq	.+84     	; 0x10f2 <HexStringToBuffer+0x70>
    109e:	e6 17       	cp	r30, r22
    10a0:	f7 07       	cpc	r31, r23
    10a2:	21 f4       	brne	.+8      	; 0x10ac <HexStringToBuffer+0x2a>
        /* Odd number of characters */
        return 0;
    }

    return ByteCount;
}
    10a4:	cf 01       	movw	r24, r30
    10a6:	df 91       	pop	r29
    10a8:	cf 91       	pop	r28
    10aa:	08 95       	ret
        if (VALID_HEXCHAR(HexIn[0]) && VALID_HEXCHAR(HexIn[1])) {
    10ac:	80 ed       	ldi	r24, 0xD0	; 208
    10ae:	85 0f       	add	r24, r21
    10b0:	8a 30       	cpi	r24, 0x0A	; 10
    10b2:	20 f0       	brcs	.+8      	; 0x10bc <HexStringToBuffer+0x3a>
    10b4:	8f eb       	ldi	r24, 0xBF	; 191
    10b6:	85 0f       	add	r24, r21
    10b8:	86 30       	cpi	r24, 0x06	; 6
    10ba:	d8 f4       	brcc	.+54     	; 0x10f2 <HexStringToBuffer+0x70>
    10bc:	80 ed       	ldi	r24, 0xD0	; 208
    10be:	89 0f       	add	r24, r25
    10c0:	8a 30       	cpi	r24, 0x0A	; 10
    10c2:	20 f0       	brcs	.+8      	; 0x10cc <HexStringToBuffer+0x4a>
    10c4:	2f eb       	ldi	r18, 0xBF	; 191
    10c6:	29 0f       	add	r18, r25
    10c8:	26 30       	cpi	r18, 0x06	; 6
    10ca:	98 f4       	brcc	.+38     	; 0x10f2 <HexStringToBuffer+0x70>
    10cc:	25 2f       	mov	r18, r21
    10ce:	30 e0       	ldi	r19, 0x00	; 0
            Byte |= HEXCHAR_TO_NIBBLE(HexIn[0]) << 4;
    10d0:	51 34       	cpi	r21, 0x41	; 65
    10d2:	50 f4       	brcc	.+20     	; 0x10e8 <HexStringToBuffer+0x66>
    10d4:	22 95       	swap	r18
    10d6:	20 7f       	andi	r18, 0xF0	; 240
            Byte |= HEXCHAR_TO_NIBBLE(HexIn[1]) << 0;
    10d8:	91 34       	cpi	r25, 0x41	; 65
    10da:	48 f4       	brcc	.+18     	; 0x10ee <HexStringToBuffer+0x6c>
    10dc:	98 2f       	mov	r25, r24
    10de:	29 2b       	or	r18, r25
            *ByteBuffer = Byte;
    10e0:	29 93       	st	Y+, r18
            ByteCount++;
    10e2:	31 96       	adiw	r30, 0x01	; 1
            HexIn += 2;
    10e4:	12 96       	adiw	r26, 0x02	; 2
        if (VALID_HEXCHAR(HexIn[0]) && VALID_HEXCHAR(HexIn[1])) {
    10e6:	d3 cf       	rjmp	.-90     	; 0x108e <HexStringToBuffer+0xc>
            Byte |= HEXCHAR_TO_NIBBLE(HexIn[0]) << 4;
    10e8:	27 53       	subi	r18, 0x37	; 55
    10ea:	31 09       	sbc	r19, r1
    10ec:	f3 cf       	rjmp	.-26     	; 0x10d4 <HexStringToBuffer+0x52>
            Byte |= HEXCHAR_TO_NIBBLE(HexIn[1]) << 0;
    10ee:	97 53       	subi	r25, 0x37	; 55
    10f0:	f6 cf       	rjmp	.-20     	; 0x10de <HexStringToBuffer+0x5c>
            return 0;
    10f2:	f0 e0       	ldi	r31, 0x00	; 0
    10f4:	e0 e0       	ldi	r30, 0x00	; 0
    10f6:	d6 cf       	rjmp	.-84     	; 0x10a4 <HexStringToBuffer+0x22>

000010f8 <FlashReadManufacturerDeviceInfo>:

INLINE uint8_t FlashReadStatusRegister(void)
{
	uint8_t Register;

	MEMORY_FLASH_PORT.OUTCLR = MEMORY_FLASH_CS;
    10f8:	20 e1       	ldi	r18, 0x10	; 16
	MEMORY_FLASH_USART.DATA = Data;
    10fa:	57 ed       	ldi	r21, 0xD7	; 215
	MEMORY_FLASH_USART.STATUS = USART_TXCIF_bm;
    10fc:	30 e4       	ldi	r19, 0x40	; 64
	MEMORY_FLASH_PORT.OUTCLR = MEMORY_FLASH_CS;
    10fe:	20 93 66 06 	sts	0x0666, r18	; 0x800666 <__TEXT_REGION_LENGTH__+0x700666>
	MEMORY_FLASH_USART.DATA = Data;
    1102:	50 93 a0 09 	sts	0x09A0, r21	; 0x8009a0 <__TEXT_REGION_LENGTH__+0x7009a0>
	while (!(MEMORY_FLASH_USART.STATUS & USART_TXCIF_bm));
    1106:	40 91 a1 09 	lds	r20, 0x09A1	; 0x8009a1 <__TEXT_REGION_LENGTH__+0x7009a1>
    110a:	46 ff       	sbrs	r20, 6
    110c:	fc cf       	rjmp	.-8      	; 0x1106 <FlashReadManufacturerDeviceInfo+0xe>
	MEMORY_FLASH_USART.STATUS = USART_TXCIF_bm;
    110e:	30 93 a1 09 	sts	0x09A1, r19	; 0x8009a1 <__TEXT_REGION_LENGTH__+0x7009a1>
	return MEMORY_FLASH_USART.DATA;
    1112:	40 91 a0 09 	lds	r20, 0x09A0	; 0x8009a0 <__TEXT_REGION_LENGTH__+0x7009a0>
	MEMORY_FLASH_USART.DATA = Data;
    1116:	10 92 a0 09 	sts	0x09A0, r1	; 0x8009a0 <__TEXT_REGION_LENGTH__+0x7009a0>
	while (!(MEMORY_FLASH_USART.STATUS & USART_TXCIF_bm));
    111a:	40 91 a1 09 	lds	r20, 0x09A1	; 0x8009a1 <__TEXT_REGION_LENGTH__+0x7009a1>
    111e:	46 ff       	sbrs	r20, 6
    1120:	fc cf       	rjmp	.-8      	; 0x111a <FlashReadManufacturerDeviceInfo+0x22>
	MEMORY_FLASH_USART.STATUS = USART_TXCIF_bm;
    1122:	30 93 a1 09 	sts	0x09A1, r19	; 0x8009a1 <__TEXT_REGION_LENGTH__+0x7009a1>
	return MEMORY_FLASH_USART.DATA;
    1126:	40 91 a0 09 	lds	r20, 0x09A0	; 0x8009a0 <__TEXT_REGION_LENGTH__+0x7009a0>
	SPITransferByte(FLASH_CMD_STATUS_REG_READ);
	Register = SPITransferByte(0);
	MEMORY_FLASH_PORT.OUTSET = MEMORY_FLASH_CS;
    112a:	20 93 65 06 	sts	0x0665, r18	; 0x800665 <__TEXT_REGION_LENGTH__+0x700665>
	SPITransferByte( 0 );
	MEMORY_FLASH_PORT.OUTSET = MEMORY_FLASH_CS;
}

void FlashReadManufacturerDeviceInfo(void* Buffer) {
	while(FlashIsBusy());
    112e:	47 ff       	sbrs	r20, 7
    1130:	e6 cf       	rjmp	.-52     	; 0x10fe <FlashReadManufacturerDeviceInfo+0x6>

	MEMORY_FLASH_PORT.OUTCLR = MEMORY_FLASH_CS;
    1132:	20 93 66 06 	sts	0x0666, r18	; 0x800666 <__TEXT_REGION_LENGTH__+0x700666>
	MEMORY_FLASH_USART.DATA = Data;
    1136:	2f e9       	ldi	r18, 0x9F	; 159
    1138:	20 93 a0 09 	sts	0x09A0, r18	; 0x8009a0 <__TEXT_REGION_LENGTH__+0x7009a0>
	while (!(MEMORY_FLASH_USART.STATUS & USART_TXCIF_bm));
    113c:	20 91 a1 09 	lds	r18, 0x09A1	; 0x8009a1 <__TEXT_REGION_LENGTH__+0x7009a1>
    1140:	26 ff       	sbrs	r18, 6
    1142:	fc cf       	rjmp	.-8      	; 0x113c <FlashReadManufacturerDeviceInfo+0x44>
	MEMORY_FLASH_USART.STATUS = USART_TXCIF_bm;
    1144:	20 e4       	ldi	r18, 0x40	; 64
    1146:	20 93 a1 09 	sts	0x09A1, r18	; 0x8009a1 <__TEXT_REGION_LENGTH__+0x7009a1>
	return MEMORY_FLASH_USART.DATA;
    114a:	20 91 a0 09 	lds	r18, 0x09A0	; 0x8009a0 <__TEXT_REGION_LENGTH__+0x7009a0>
    114e:	fc 01       	movw	r30, r24
    1150:	04 96       	adiw	r24, 0x04	; 4
		MEMORY_FLASH_USART.STATUS = USART_TXCIF_bm;
    1152:	20 e4       	ldi	r18, 0x40	; 64
	while(ByteCount-- > 0) {
    1154:	e8 17       	cp	r30, r24
    1156:	f9 07       	cpc	r31, r25
    1158:	21 f4       	brne	.+8      	; 0x1162 <FlashReadManufacturerDeviceInfo+0x6a>
	SPITransferByte(FLASH_CMD_READMANUFDEVICEINFO);
	SPIReadBlock(Buffer, 4);
	MEMORY_FLASH_PORT.OUTSET = MEMORY_FLASH_CS;
    115a:	80 e1       	ldi	r24, 0x10	; 16
    115c:	80 93 65 06 	sts	0x0665, r24	; 0x800665 <__TEXT_REGION_LENGTH__+0x700665>
}
    1160:	08 95       	ret
		MEMORY_FLASH_USART.DATA = 0;
    1162:	10 92 a0 09 	sts	0x09A0, r1	; 0x8009a0 <__TEXT_REGION_LENGTH__+0x7009a0>
		while (!(MEMORY_FLASH_USART.STATUS & USART_TXCIF_bm));
    1166:	30 91 a1 09 	lds	r19, 0x09A1	; 0x8009a1 <__TEXT_REGION_LENGTH__+0x7009a1>
    116a:	36 ff       	sbrs	r19, 6
    116c:	fc cf       	rjmp	.-8      	; 0x1166 <FlashReadManufacturerDeviceInfo+0x6e>
		MEMORY_FLASH_USART.STATUS = USART_TXCIF_bm;
    116e:	20 93 a1 09 	sts	0x09A1, r18	; 0x8009a1 <__TEXT_REGION_LENGTH__+0x7009a1>
		*ByteBuffer++ = MEMORY_FLASH_USART.DATA;
    1172:	30 91 a0 09 	lds	r19, 0x09A0	; 0x8009a0 <__TEXT_REGION_LENGTH__+0x7009a0>
    1176:	31 93       	st	Z+, r19
    1178:	ed cf       	rjmp	.-38     	; 0x1154 <FlashReadManufacturerDeviceInfo+0x5c>

0000117a <MemoryInit>:

void MemoryInit(void) {
    117a:	cf 93       	push	r28
    117c:	df 93       	push	r29
    117e:	00 d0       	rcall	.+0      	; 0x1180 <MemoryInit+0x6>
    1180:	00 d0       	rcall	.+0      	; 0x1182 <MemoryInit+0x8>
    1182:	cd b7       	in	r28, 0x3d	; 61
    1184:	de b7       	in	r29, 0x3e	; 62
	/* Configure MEMORY_FLASH_USART for SPI master mode 0 with maximum clock frequency */
	MEMORY_FLASH_PORT.OUTSET = MEMORY_FLASH_CS;
    1186:	80 e1       	ldi	r24, 0x10	; 16
    1188:	80 93 65 06 	sts	0x0665, r24	; 0x800665 <__TEXT_REGION_LENGTH__+0x700665>
	
	MEMORY_FLASH_PORT.OUTCLR = MEMORY_FLASH_SCK;
    118c:	92 e0       	ldi	r25, 0x02	; 2
    118e:	90 93 66 06 	sts	0x0666, r25	; 0x800666 <__TEXT_REGION_LENGTH__+0x700666>
	MEMORY_FLASH_PORT.OUTSET = MEMORY_FLASH_MOSI;
    1192:	98 e0       	ldi	r25, 0x08	; 8
    1194:	90 93 65 06 	sts	0x0665, r25	; 0x800665 <__TEXT_REGION_LENGTH__+0x700665>
	
	MEMORY_FLASH_PORT.DIRSET = MEMORY_FLASH_SCK | MEMORY_FLASH_MOSI | MEMORY_FLASH_CS;
    1198:	9a e1       	ldi	r25, 0x1A	; 26
    119a:	90 93 61 06 	sts	0x0661, r25	; 0x800661 <__TEXT_REGION_LENGTH__+0x700661>

    MEMORY_FLASH_USART.BAUDCTRLA = 0;
    119e:	10 92 a6 09 	sts	0x09A6, r1	; 0x8009a6 <__TEXT_REGION_LENGTH__+0x7009a6>
    MEMORY_FLASH_USART.BAUDCTRLB = 0;
    11a2:	10 92 a7 09 	sts	0x09A7, r1	; 0x8009a7 <__TEXT_REGION_LENGTH__+0x7009a7>
	MEMORY_FLASH_USART.CTRLC = USART_CMODE_MSPI_gc;
    11a6:	90 ec       	ldi	r25, 0xC0	; 192
    11a8:	90 93 a5 09 	sts	0x09A5, r25	; 0x8009a5 <__TEXT_REGION_LENGTH__+0x7009a5>
	MEMORY_FLASH_USART.CTRLB = USART_RXEN_bm | USART_TXEN_bm;
    11ac:	98 e1       	ldi	r25, 0x18	; 24
    11ae:	90 93 a4 09 	sts	0x09A4, r25	; 0x8009a4 <__TEXT_REGION_LENGTH__+0x7009a4>
	MEMORY_FLASH_PORT.OUTCLR = MEMORY_FLASH_CS;
    11b2:	80 93 66 06 	sts	0x0666, r24	; 0x800666 <__TEXT_REGION_LENGTH__+0x700666>
	MEMORY_FLASH_USART.DATA = Data;
    11b6:	87 ed       	ldi	r24, 0xD7	; 215
    11b8:	80 93 a0 09 	sts	0x09A0, r24	; 0x8009a0 <__TEXT_REGION_LENGTH__+0x7009a0>
	while (!(MEMORY_FLASH_USART.STATUS & USART_TXCIF_bm));
    11bc:	80 91 a1 09 	lds	r24, 0x09A1	; 0x8009a1 <__TEXT_REGION_LENGTH__+0x7009a1>
    11c0:	86 ff       	sbrs	r24, 6
    11c2:	fc cf       	rjmp	.-8      	; 0x11bc <MemoryInit+0x42>
	MEMORY_FLASH_USART.STATUS = USART_TXCIF_bm;
    11c4:	80 e4       	ldi	r24, 0x40	; 64
    11c6:	80 93 a1 09 	sts	0x09A1, r24	; 0x8009a1 <__TEXT_REGION_LENGTH__+0x7009a1>
	return MEMORY_FLASH_USART.DATA;
    11ca:	80 91 a0 09 	lds	r24, 0x09A0	; 0x8009a0 <__TEXT_REGION_LENGTH__+0x7009a0>
	MEMORY_FLASH_USART.DATA = Data;
    11ce:	10 92 a0 09 	sts	0x09A0, r1	; 0x8009a0 <__TEXT_REGION_LENGTH__+0x7009a0>
	while (!(MEMORY_FLASH_USART.STATUS & USART_TXCIF_bm));
    11d2:	80 91 a1 09 	lds	r24, 0x09A1	; 0x8009a1 <__TEXT_REGION_LENGTH__+0x7009a1>
    11d6:	86 ff       	sbrs	r24, 6
    11d8:	fc cf       	rjmp	.-8      	; 0x11d2 <MemoryInit+0x58>
	MEMORY_FLASH_USART.STATUS = USART_TXCIF_bm;
    11da:	80 e4       	ldi	r24, 0x40	; 64
    11dc:	80 93 a1 09 	sts	0x09A1, r24	; 0x8009a1 <__TEXT_REGION_LENGTH__+0x7009a1>
	return MEMORY_FLASH_USART.DATA;
    11e0:	80 91 a0 09 	lds	r24, 0x09A0	; 0x8009a0 <__TEXT_REGION_LENGTH__+0x7009a0>
	MEMORY_FLASH_PORT.OUTSET = MEMORY_FLASH_CS;
    11e4:	90 e1       	ldi	r25, 0x10	; 16
    11e6:	90 93 65 06 	sts	0x0665, r25	; 0x800665 <__TEXT_REGION_LENGTH__+0x700665>


	if ( !(FlashReadStatusRegister() & FLASH_STATUS_REG_PAGESIZE_BIT) ) {
    11ea:	80 fd       	sbrc	r24, 0
    11ec:	36 c0       	rjmp	.+108    	; 0x125a <MemoryInit+0xe0>
	uint8_t Sequence[] = {0x3D, 0x2A, 0x80, 0xA6};
    11ee:	80 91 4b 20 	lds	r24, 0x204B	; 0x80204b <next+0x4>
    11f2:	90 91 4c 20 	lds	r25, 0x204C	; 0x80204c <next+0x5>
    11f6:	a0 91 4d 20 	lds	r26, 0x204D	; 0x80204d <next+0x6>
    11fa:	b0 91 4e 20 	lds	r27, 0x204E	; 0x80204e <next+0x7>
    11fe:	89 83       	std	Y+1, r24	; 0x01
    1200:	9a 83       	std	Y+2, r25	; 0x02
    1202:	ab 83       	std	Y+3, r26	; 0x03
    1204:	bc 83       	std	Y+4, r27	; 0x04
	MEMORY_FLASH_PORT.OUTCLR = MEMORY_FLASH_CS;
    1206:	80 e1       	ldi	r24, 0x10	; 16
	MEMORY_FLASH_USART.DATA = Data;
    1208:	37 ed       	ldi	r19, 0xD7	; 215
	MEMORY_FLASH_USART.STATUS = USART_TXCIF_bm;
    120a:	90 e4       	ldi	r25, 0x40	; 64
	MEMORY_FLASH_PORT.OUTCLR = MEMORY_FLASH_CS;
    120c:	80 93 66 06 	sts	0x0666, r24	; 0x800666 <__TEXT_REGION_LENGTH__+0x700666>
	MEMORY_FLASH_USART.DATA = Data;
    1210:	30 93 a0 09 	sts	0x09A0, r19	; 0x8009a0 <__TEXT_REGION_LENGTH__+0x7009a0>
	while (!(MEMORY_FLASH_USART.STATUS & USART_TXCIF_bm));
    1214:	20 91 a1 09 	lds	r18, 0x09A1	; 0x8009a1 <__TEXT_REGION_LENGTH__+0x7009a1>
    1218:	26 ff       	sbrs	r18, 6
    121a:	fc cf       	rjmp	.-8      	; 0x1214 <MemoryInit+0x9a>
	MEMORY_FLASH_USART.STATUS = USART_TXCIF_bm;
    121c:	90 93 a1 09 	sts	0x09A1, r25	; 0x8009a1 <__TEXT_REGION_LENGTH__+0x7009a1>
	return MEMORY_FLASH_USART.DATA;
    1220:	20 91 a0 09 	lds	r18, 0x09A0	; 0x8009a0 <__TEXT_REGION_LENGTH__+0x7009a0>
	MEMORY_FLASH_USART.DATA = Data;
    1224:	10 92 a0 09 	sts	0x09A0, r1	; 0x8009a0 <__TEXT_REGION_LENGTH__+0x7009a0>
	while (!(MEMORY_FLASH_USART.STATUS & USART_TXCIF_bm));
    1228:	20 91 a1 09 	lds	r18, 0x09A1	; 0x8009a1 <__TEXT_REGION_LENGTH__+0x7009a1>
    122c:	26 ff       	sbrs	r18, 6
    122e:	fc cf       	rjmp	.-8      	; 0x1228 <MemoryInit+0xae>
	MEMORY_FLASH_USART.STATUS = USART_TXCIF_bm;
    1230:	90 93 a1 09 	sts	0x09A1, r25	; 0x8009a1 <__TEXT_REGION_LENGTH__+0x7009a1>
	return MEMORY_FLASH_USART.DATA;
    1234:	20 91 a0 09 	lds	r18, 0x09A0	; 0x8009a0 <__TEXT_REGION_LENGTH__+0x7009a0>
	MEMORY_FLASH_PORT.OUTSET = MEMORY_FLASH_CS;
    1238:	80 93 65 06 	sts	0x0665, r24	; 0x800665 <__TEXT_REGION_LENGTH__+0x700665>
	while(FlashIsBusy());
    123c:	27 ff       	sbrs	r18, 7
    123e:	e6 cf       	rjmp	.-52     	; 0x120c <MemoryInit+0x92>
	MEMORY_FLASH_PORT.OUTCLR = MEMORY_FLASH_CS;
    1240:	80 93 66 06 	sts	0x0666, r24	; 0x800666 <__TEXT_REGION_LENGTH__+0x700666>
    1244:	fe 01       	movw	r30, r28
    1246:	31 96       	adiw	r30, 0x01	; 1
    1248:	ce 01       	movw	r24, r28
    124a:	05 96       	adiw	r24, 0x05	; 5
		MEMORY_FLASH_USART.STATUS = USART_TXCIF_bm;
    124c:	20 e4       	ldi	r18, 0x40	; 64
	while(ByteCount-- > 0) {
    124e:	e8 17       	cp	r30, r24
    1250:	f9 07       	cpc	r31, r25
    1252:	49 f4       	brne	.+18     	; 0x1266 <MemoryInit+0xec>
	MEMORY_FLASH_PORT.OUTSET = MEMORY_FLASH_CS;
    1254:	80 e1       	ldi	r24, 0x10	; 16
    1256:	80 93 65 06 	sts	0x0665, r24	; 0x800665 <__TEXT_REGION_LENGTH__+0x700665>
		/* Configure for 256 byte Dataflash if not already done. */
		FlashConfigurePageSize();
	}
}
    125a:	24 96       	adiw	r28, 0x04	; 4
    125c:	cd bf       	out	0x3d, r28	; 61
    125e:	de bf       	out	0x3e, r29	; 62
    1260:	df 91       	pop	r29
    1262:	cf 91       	pop	r28
    1264:	08 95       	ret
		MEMORY_FLASH_USART.DATA = *ByteBuffer++;
    1266:	31 91       	ld	r19, Z+
    1268:	30 93 a0 09 	sts	0x09A0, r19	; 0x8009a0 <__TEXT_REGION_LENGTH__+0x7009a0>
		while (!(MEMORY_FLASH_USART.STATUS & USART_TXCIF_bm));
    126c:	30 91 a1 09 	lds	r19, 0x09A1	; 0x8009a1 <__TEXT_REGION_LENGTH__+0x7009a1>
    1270:	36 ff       	sbrs	r19, 6
    1272:	fc cf       	rjmp	.-8      	; 0x126c <MemoryInit+0xf2>
		MEMORY_FLASH_USART.STATUS = USART_TXCIF_bm;
    1274:	20 93 a1 09 	sts	0x09A1, r18	; 0x8009a1 <__TEXT_REGION_LENGTH__+0x7009a1>
		MEMORY_FLASH_USART.DATA; /* Flush Buffer */
    1278:	30 91 a0 09 	lds	r19, 0x09A0	; 0x8009a0 <__TEXT_REGION_LENGTH__+0x7009a0>
    127c:	e8 cf       	rjmp	.-48     	; 0x124e <MemoryInit+0xd4>

0000127e <MemoryReadBlock>:

void MemoryReadBlock(void* Buffer, uint16_t Address, uint16_t ByteCount) {
    127e:	cf 92       	push	r12
    1280:	df 92       	push	r13
    1282:	ef 92       	push	r14
    1284:	ff 92       	push	r15
    1286:	0f 93       	push	r16
    1288:	1f 93       	push	r17
	if (ByteCount == 0)
    128a:	41 15       	cp	r20, r1
    128c:	51 05       	cpc	r21, r1
    128e:	09 f4       	brne	.+2      	; 0x1292 <MemoryReadBlock+0x14>
    1290:	6c c0       	rjmp	.+216    	; 0x136a <MemoryReadBlock+0xec>
		return;

	uint32_t FlashAddress;
	if ( GlobalSettings.ActiveSetting == 0 )
    1292:	c0 90 00 20 	lds	r12, 0x2000	; 0x802000 <GlobalSettings>
    1296:	8b 01       	movw	r16, r22
    1298:	30 e0       	ldi	r19, 0x00	; 0
    129a:	20 e0       	ldi	r18, 0x00	; 0
    129c:	cc 20       	and	r12, r12
    129e:	71 f0       	breq	.+28     	; 0x12bc <MemoryReadBlock+0x3e>
		FlashAddress = (uint32_t) Address + (uint32_t) GlobalSettings.ActiveSetting * MEMORY_SIZE_PER_SETTING_4K;
	else
		FlashAddress = (uint32_t) Address + (uint32_t) GlobalSettings.ActiveSetting * MEMORY_SIZE_PER_SETTING_1K;
    12a0:	d1 2c       	mov	r13, r1
    12a2:	f1 2c       	mov	r15, r1
    12a4:	e1 2c       	mov	r14, r1
    12a6:	6a e0       	ldi	r22, 0x0A	; 10
    12a8:	cc 0c       	add	r12, r12
    12aa:	dd 1c       	adc	r13, r13
    12ac:	ee 1c       	adc	r14, r14
    12ae:	ff 1c       	adc	r15, r15
    12b0:	6a 95       	dec	r22
    12b2:	d1 f7       	brne	.-12     	; 0x12a8 <MemoryReadBlock+0x2a>
    12b4:	0c 0d       	add	r16, r12
    12b6:	1d 1d       	adc	r17, r13
    12b8:	2e 1d       	adc	r18, r14
    12ba:	3f 1d       	adc	r19, r15

	FlashRead(Buffer, FlashAddress, ByteCount);
    12bc:	e1 2f       	mov	r30, r17
	MEMORY_FLASH_PORT.OUTCLR = MEMORY_FLASH_CS;
    12be:	60 e1       	ldi	r22, 0x10	; 16
	MEMORY_FLASH_USART.DATA = Data;
    12c0:	a7 ed       	ldi	r26, 0xD7	; 215
	MEMORY_FLASH_USART.STATUS = USART_TXCIF_bm;
    12c2:	70 e4       	ldi	r23, 0x40	; 64
	MEMORY_FLASH_PORT.OUTCLR = MEMORY_FLASH_CS;
    12c4:	60 93 66 06 	sts	0x0666, r22	; 0x800666 <__TEXT_REGION_LENGTH__+0x700666>
	MEMORY_FLASH_USART.DATA = Data;
    12c8:	a0 93 a0 09 	sts	0x09A0, r26	; 0x8009a0 <__TEXT_REGION_LENGTH__+0x7009a0>
	while (!(MEMORY_FLASH_USART.STATUS & USART_TXCIF_bm));
    12cc:	f0 91 a1 09 	lds	r31, 0x09A1	; 0x8009a1 <__TEXT_REGION_LENGTH__+0x7009a1>
    12d0:	f6 ff       	sbrs	r31, 6
    12d2:	fc cf       	rjmp	.-8      	; 0x12cc <MemoryReadBlock+0x4e>
	MEMORY_FLASH_USART.STATUS = USART_TXCIF_bm;
    12d4:	70 93 a1 09 	sts	0x09A1, r23	; 0x8009a1 <__TEXT_REGION_LENGTH__+0x7009a1>
	return MEMORY_FLASH_USART.DATA;
    12d8:	f0 91 a0 09 	lds	r31, 0x09A0	; 0x8009a0 <__TEXT_REGION_LENGTH__+0x7009a0>
	MEMORY_FLASH_USART.DATA = Data;
    12dc:	10 92 a0 09 	sts	0x09A0, r1	; 0x8009a0 <__TEXT_REGION_LENGTH__+0x7009a0>
	while (!(MEMORY_FLASH_USART.STATUS & USART_TXCIF_bm));
    12e0:	f0 91 a1 09 	lds	r31, 0x09A1	; 0x8009a1 <__TEXT_REGION_LENGTH__+0x7009a1>
    12e4:	f6 ff       	sbrs	r31, 6
    12e6:	fc cf       	rjmp	.-8      	; 0x12e0 <MemoryReadBlock+0x62>
	MEMORY_FLASH_USART.STATUS = USART_TXCIF_bm;
    12e8:	70 93 a1 09 	sts	0x09A1, r23	; 0x8009a1 <__TEXT_REGION_LENGTH__+0x7009a1>
	return MEMORY_FLASH_USART.DATA;
    12ec:	f0 91 a0 09 	lds	r31, 0x09A0	; 0x8009a0 <__TEXT_REGION_LENGTH__+0x7009a0>
	MEMORY_FLASH_PORT.OUTSET = MEMORY_FLASH_CS;
    12f0:	60 93 65 06 	sts	0x0665, r22	; 0x800665 <__TEXT_REGION_LENGTH__+0x700665>
	while(FlashIsBusy());
    12f4:	f7 ff       	sbrs	r31, 7
    12f6:	e6 cf       	rjmp	.-52     	; 0x12c4 <MemoryReadBlock+0x46>
	MEMORY_FLASH_PORT.OUTCLR = MEMORY_FLASH_CS;
    12f8:	60 93 66 06 	sts	0x0666, r22	; 0x800666 <__TEXT_REGION_LENGTH__+0x700666>
	MEMORY_FLASH_USART.DATA = Data;
    12fc:	63 e0       	ldi	r22, 0x03	; 3
    12fe:	60 93 a0 09 	sts	0x09A0, r22	; 0x8009a0 <__TEXT_REGION_LENGTH__+0x7009a0>
	while (!(MEMORY_FLASH_USART.STATUS & USART_TXCIF_bm));
    1302:	60 91 a1 09 	lds	r22, 0x09A1	; 0x8009a1 <__TEXT_REGION_LENGTH__+0x7009a1>
    1306:	66 ff       	sbrs	r22, 6
    1308:	fc cf       	rjmp	.-8      	; 0x1302 <MemoryReadBlock+0x84>
	MEMORY_FLASH_USART.STATUS = USART_TXCIF_bm;
    130a:	60 e4       	ldi	r22, 0x40	; 64
    130c:	60 93 a1 09 	sts	0x09A1, r22	; 0x8009a1 <__TEXT_REGION_LENGTH__+0x7009a1>
	return MEMORY_FLASH_USART.DATA;
    1310:	60 91 a0 09 	lds	r22, 0x09A0	; 0x8009a0 <__TEXT_REGION_LENGTH__+0x7009a0>
	MEMORY_FLASH_USART.DATA = Data;
    1314:	10 92 a0 09 	sts	0x09A0, r1	; 0x8009a0 <__TEXT_REGION_LENGTH__+0x7009a0>
	while (!(MEMORY_FLASH_USART.STATUS & USART_TXCIF_bm));
    1318:	60 91 a1 09 	lds	r22, 0x09A1	; 0x8009a1 <__TEXT_REGION_LENGTH__+0x7009a1>
    131c:	66 ff       	sbrs	r22, 6
    131e:	fc cf       	rjmp	.-8      	; 0x1318 <MemoryReadBlock+0x9a>
	MEMORY_FLASH_USART.STATUS = USART_TXCIF_bm;
    1320:	60 e4       	ldi	r22, 0x40	; 64
    1322:	60 93 a1 09 	sts	0x09A1, r22	; 0x8009a1 <__TEXT_REGION_LENGTH__+0x7009a1>
	return MEMORY_FLASH_USART.DATA;
    1326:	60 91 a0 09 	lds	r22, 0x09A0	; 0x8009a0 <__TEXT_REGION_LENGTH__+0x7009a0>
	MEMORY_FLASH_USART.DATA = Data;
    132a:	e0 93 a0 09 	sts	0x09A0, r30	; 0x8009a0 <__TEXT_REGION_LENGTH__+0x7009a0>
	while (!(MEMORY_FLASH_USART.STATUS & USART_TXCIF_bm));
    132e:	60 91 a1 09 	lds	r22, 0x09A1	; 0x8009a1 <__TEXT_REGION_LENGTH__+0x7009a1>
    1332:	66 ff       	sbrs	r22, 6
    1334:	fc cf       	rjmp	.-8      	; 0x132e <MemoryReadBlock+0xb0>
	MEMORY_FLASH_USART.STATUS = USART_TXCIF_bm;
    1336:	60 e4       	ldi	r22, 0x40	; 64
    1338:	60 93 a1 09 	sts	0x09A1, r22	; 0x8009a1 <__TEXT_REGION_LENGTH__+0x7009a1>
	return MEMORY_FLASH_USART.DATA;
    133c:	60 91 a0 09 	lds	r22, 0x09A0	; 0x8009a0 <__TEXT_REGION_LENGTH__+0x7009a0>
	MEMORY_FLASH_USART.DATA = Data;
    1340:	00 93 a0 09 	sts	0x09A0, r16	; 0x8009a0 <__TEXT_REGION_LENGTH__+0x7009a0>
	while (!(MEMORY_FLASH_USART.STATUS & USART_TXCIF_bm));
    1344:	20 91 a1 09 	lds	r18, 0x09A1	; 0x8009a1 <__TEXT_REGION_LENGTH__+0x7009a1>
    1348:	26 ff       	sbrs	r18, 6
    134a:	fc cf       	rjmp	.-8      	; 0x1344 <MemoryReadBlock+0xc6>
	MEMORY_FLASH_USART.STATUS = USART_TXCIF_bm;
    134c:	20 e4       	ldi	r18, 0x40	; 64
    134e:	20 93 a1 09 	sts	0x09A1, r18	; 0x8009a1 <__TEXT_REGION_LENGTH__+0x7009a1>
	return MEMORY_FLASH_USART.DATA;
    1352:	20 91 a0 09 	lds	r18, 0x09A0	; 0x8009a0 <__TEXT_REGION_LENGTH__+0x7009a0>
    1356:	fc 01       	movw	r30, r24
    1358:	48 0f       	add	r20, r24
    135a:	59 1f       	adc	r21, r25
		MEMORY_FLASH_USART.STATUS = USART_TXCIF_bm;
    135c:	80 e4       	ldi	r24, 0x40	; 64
	while(ByteCount-- > 0) {
    135e:	4e 17       	cp	r20, r30
    1360:	5f 07       	cpc	r21, r31
    1362:	51 f4       	brne	.+20     	; 0x1378 <MemoryReadBlock+0xfa>
	MEMORY_FLASH_PORT.OUTSET = MEMORY_FLASH_CS;
    1364:	80 e1       	ldi	r24, 0x10	; 16
    1366:	80 93 65 06 	sts	0x0665, r24	; 0x800665 <__TEXT_REGION_LENGTH__+0x700665>
}
    136a:	1f 91       	pop	r17
    136c:	0f 91       	pop	r16
    136e:	ff 90       	pop	r15
    1370:	ef 90       	pop	r14
    1372:	df 90       	pop	r13
    1374:	cf 90       	pop	r12
    1376:	08 95       	ret
		MEMORY_FLASH_USART.DATA = 0;
    1378:	10 92 a0 09 	sts	0x09A0, r1	; 0x8009a0 <__TEXT_REGION_LENGTH__+0x7009a0>
		while (!(MEMORY_FLASH_USART.STATUS & USART_TXCIF_bm));
    137c:	90 91 a1 09 	lds	r25, 0x09A1	; 0x8009a1 <__TEXT_REGION_LENGTH__+0x7009a1>
    1380:	96 ff       	sbrs	r25, 6
    1382:	fc cf       	rjmp	.-8      	; 0x137c <MemoryReadBlock+0xfe>
		MEMORY_FLASH_USART.STATUS = USART_TXCIF_bm;
    1384:	80 93 a1 09 	sts	0x09A1, r24	; 0x8009a1 <__TEXT_REGION_LENGTH__+0x7009a1>
		*ByteBuffer++ = MEMORY_FLASH_USART.DATA;
    1388:	90 91 a0 09 	lds	r25, 0x09A0	; 0x8009a0 <__TEXT_REGION_LENGTH__+0x7009a0>
    138c:	91 93       	st	Z+, r25
    138e:	e7 cf       	rjmp	.-50     	; 0x135e <MemoryReadBlock+0xe0>

00001390 <MemoryWriteBlock>:

void MemoryWriteBlock(const void* Buffer, uint16_t Address, uint16_t ByteCount) {
    1390:	9f 92       	push	r9
    1392:	af 92       	push	r10
    1394:	bf 92       	push	r11
    1396:	cf 92       	push	r12
    1398:	df 92       	push	r13
    139a:	ef 92       	push	r14
    139c:	ff 92       	push	r15
    139e:	0f 93       	push	r16
    13a0:	1f 93       	push	r17
    13a2:	cf 93       	push	r28
    13a4:	df 93       	push	r29
    13a6:	dc 01       	movw	r26, r24
	if (ByteCount == 0)
    13a8:	41 15       	cp	r20, r1
    13aa:	51 05       	cpc	r21, r1
    13ac:	09 f4       	brne	.+2      	; 0x13b0 <MemoryWriteBlock+0x20>
    13ae:	02 c1       	rjmp	.+516    	; 0x15b4 <MemoryWriteBlock+0x224>
		return;
	uint16_t FlashAddress;
	if ( GlobalSettings.ActiveSetting == 0 )
    13b0:	20 91 00 20 	lds	r18, 0x2000	; 0x802000 <GlobalSettings>
    13b4:	22 23       	and	r18, r18
    13b6:	39 f0       	breq	.+14     	; 0x13c6 <MemoryWriteBlock+0x36>
		FlashAddress = Address + (uint16_t) GlobalSettings.ActiveSetting * MEMORY_SIZE_PER_SETTING_4K;
	else
		FlashAddress = Address + (uint16_t) GlobalSettings.ActiveSetting * MEMORY_SIZE_PER_SETTING_1K;
    13b8:	30 e0       	ldi	r19, 0x00	; 0
    13ba:	32 2f       	mov	r19, r18
    13bc:	22 27       	eor	r18, r18
    13be:	33 0f       	add	r19, r19
    13c0:	33 0f       	add	r19, r19
    13c2:	62 0f       	add	r22, r18
    13c4:	73 1f       	adc	r23, r19
		uint16_t PageBytes = MIN(MEMORY_PAGE_SIZE - ByteAddress, ByteCount);
    13c6:	e1 2c       	mov	r14, r1
    13c8:	ff 24       	eor	r15, r15
    13ca:	f3 94       	inc	r15
	MEMORY_FLASH_PORT.OUTCLR = MEMORY_FLASH_CS;
    13cc:	20 e1       	ldi	r18, 0x10	; 16
	MEMORY_FLASH_USART.DATA = Data;
    13ce:	37 ed       	ldi	r19, 0xD7	; 215
	MEMORY_FLASH_USART.STATUS = USART_TXCIF_bm;
    13d0:	90 e4       	ldi	r25, 0x40	; 64
	MEMORY_FLASH_PORT.OUTSET = MEMORY_FLASH_CS;
    13d2:	80 e1       	ldi	r24, 0x10	; 16
	MEMORY_FLASH_USART.DATA = Data;
    13d4:	03 e5       	ldi	r16, 0x53	; 83
    13d6:	e4 e8       	ldi	r30, 0x84	; 132
    13d8:	be 2e       	mov	r11, r30
    13da:	f3 e8       	ldi	r31, 0x83	; 131
    13dc:	af 2e       	mov	r10, r31
		uint16_t PageAddress = Address / MEMORY_PAGE_SIZE;
    13de:	17 2f       	mov	r17, r23
		uint8_t ByteAddress = Address % MEMORY_PAGE_SIZE;
    13e0:	c6 2f       	mov	r28, r22
		uint16_t PageBytes = MIN(MEMORY_PAGE_SIZE - ByteAddress, ByteCount);
    13e2:	f7 01       	movw	r30, r14
    13e4:	e6 1b       	sub	r30, r22
    13e6:	f1 09       	sbc	r31, r1
    13e8:	4e 17       	cp	r20, r30
    13ea:	5f 07       	cpc	r21, r31
    13ec:	08 f4       	brcc	.+2      	; 0x13f0 <MemoryWriteBlock+0x60>
    13ee:	fa 01       	movw	r30, r20
	MEMORY_FLASH_PORT.OUTCLR = MEMORY_FLASH_CS;
    13f0:	20 93 66 06 	sts	0x0666, r18	; 0x800666 <__TEXT_REGION_LENGTH__+0x700666>
	MEMORY_FLASH_USART.DATA = Data;
    13f4:	30 93 a0 09 	sts	0x09A0, r19	; 0x8009a0 <__TEXT_REGION_LENGTH__+0x7009a0>
	while (!(MEMORY_FLASH_USART.STATUS & USART_TXCIF_bm));
    13f8:	d0 91 a1 09 	lds	r29, 0x09A1	; 0x8009a1 <__TEXT_REGION_LENGTH__+0x7009a1>
    13fc:	d6 ff       	sbrs	r29, 6
    13fe:	fc cf       	rjmp	.-8      	; 0x13f8 <MemoryWriteBlock+0x68>
	MEMORY_FLASH_USART.STATUS = USART_TXCIF_bm;
    1400:	90 93 a1 09 	sts	0x09A1, r25	; 0x8009a1 <__TEXT_REGION_LENGTH__+0x7009a1>
	return MEMORY_FLASH_USART.DATA;
    1404:	d0 91 a0 09 	lds	r29, 0x09A0	; 0x8009a0 <__TEXT_REGION_LENGTH__+0x7009a0>
	MEMORY_FLASH_USART.DATA = Data;
    1408:	10 92 a0 09 	sts	0x09A0, r1	; 0x8009a0 <__TEXT_REGION_LENGTH__+0x7009a0>
	while (!(MEMORY_FLASH_USART.STATUS & USART_TXCIF_bm));
    140c:	d0 91 a1 09 	lds	r29, 0x09A1	; 0x8009a1 <__TEXT_REGION_LENGTH__+0x7009a1>
    1410:	d6 ff       	sbrs	r29, 6
    1412:	fc cf       	rjmp	.-8      	; 0x140c <MemoryWriteBlock+0x7c>
	MEMORY_FLASH_USART.STATUS = USART_TXCIF_bm;
    1414:	90 93 a1 09 	sts	0x09A1, r25	; 0x8009a1 <__TEXT_REGION_LENGTH__+0x7009a1>
	return MEMORY_FLASH_USART.DATA;
    1418:	d0 91 a0 09 	lds	r29, 0x09A0	; 0x8009a0 <__TEXT_REGION_LENGTH__+0x7009a0>
	MEMORY_FLASH_PORT.OUTSET = MEMORY_FLASH_CS;
    141c:	20 93 65 06 	sts	0x0665, r18	; 0x800665 <__TEXT_REGION_LENGTH__+0x700665>
	while(FlashIsBusy());
    1420:	d7 ff       	sbrs	r29, 7
    1422:	e6 cf       	rjmp	.-52     	; 0x13f0 <MemoryWriteBlock+0x60>
	MEMORY_FLASH_PORT.OUTCLR = MEMORY_FLASH_CS;
    1424:	80 93 66 06 	sts	0x0666, r24	; 0x800666 <__TEXT_REGION_LENGTH__+0x700666>
	MEMORY_FLASH_USART.DATA = Data;
    1428:	00 93 a0 09 	sts	0x09A0, r16	; 0x8009a0 <__TEXT_REGION_LENGTH__+0x7009a0>
	while (!(MEMORY_FLASH_USART.STATUS & USART_TXCIF_bm));
    142c:	d0 91 a1 09 	lds	r29, 0x09A1	; 0x8009a1 <__TEXT_REGION_LENGTH__+0x7009a1>
    1430:	d6 ff       	sbrs	r29, 6
    1432:	fc cf       	rjmp	.-8      	; 0x142c <MemoryWriteBlock+0x9c>
	MEMORY_FLASH_USART.STATUS = USART_TXCIF_bm;
    1434:	90 93 a1 09 	sts	0x09A1, r25	; 0x8009a1 <__TEXT_REGION_LENGTH__+0x7009a1>
	return MEMORY_FLASH_USART.DATA;
    1438:	d0 91 a0 09 	lds	r29, 0x09A0	; 0x8009a0 <__TEXT_REGION_LENGTH__+0x7009a0>
	MEMORY_FLASH_USART.DATA = Data;
    143c:	10 92 a0 09 	sts	0x09A0, r1	; 0x8009a0 <__TEXT_REGION_LENGTH__+0x7009a0>
	while (!(MEMORY_FLASH_USART.STATUS & USART_TXCIF_bm));
    1440:	d0 91 a1 09 	lds	r29, 0x09A1	; 0x8009a1 <__TEXT_REGION_LENGTH__+0x7009a1>
    1444:	d6 ff       	sbrs	r29, 6
    1446:	fc cf       	rjmp	.-8      	; 0x1440 <MemoryWriteBlock+0xb0>
	MEMORY_FLASH_USART.STATUS = USART_TXCIF_bm;
    1448:	90 93 a1 09 	sts	0x09A1, r25	; 0x8009a1 <__TEXT_REGION_LENGTH__+0x7009a1>
	return MEMORY_FLASH_USART.DATA;
    144c:	d0 91 a0 09 	lds	r29, 0x09A0	; 0x8009a0 <__TEXT_REGION_LENGTH__+0x7009a0>
	MEMORY_FLASH_USART.DATA = Data;
    1450:	10 93 a0 09 	sts	0x09A0, r17	; 0x8009a0 <__TEXT_REGION_LENGTH__+0x7009a0>
	while (!(MEMORY_FLASH_USART.STATUS & USART_TXCIF_bm));
    1454:	d0 91 a1 09 	lds	r29, 0x09A1	; 0x8009a1 <__TEXT_REGION_LENGTH__+0x7009a1>
    1458:	d6 ff       	sbrs	r29, 6
    145a:	fc cf       	rjmp	.-8      	; 0x1454 <MemoryWriteBlock+0xc4>
	MEMORY_FLASH_USART.STATUS = USART_TXCIF_bm;
    145c:	90 93 a1 09 	sts	0x09A1, r25	; 0x8009a1 <__TEXT_REGION_LENGTH__+0x7009a1>
	return MEMORY_FLASH_USART.DATA;
    1460:	d0 91 a0 09 	lds	r29, 0x09A0	; 0x8009a0 <__TEXT_REGION_LENGTH__+0x7009a0>
	MEMORY_FLASH_USART.DATA = Data;
    1464:	10 92 a0 09 	sts	0x09A0, r1	; 0x8009a0 <__TEXT_REGION_LENGTH__+0x7009a0>
	while (!(MEMORY_FLASH_USART.STATUS & USART_TXCIF_bm));
    1468:	d0 91 a1 09 	lds	r29, 0x09A1	; 0x8009a1 <__TEXT_REGION_LENGTH__+0x7009a1>
    146c:	d6 ff       	sbrs	r29, 6
    146e:	fc cf       	rjmp	.-8      	; 0x1468 <MemoryWriteBlock+0xd8>
	MEMORY_FLASH_USART.STATUS = USART_TXCIF_bm;
    1470:	90 93 a1 09 	sts	0x09A1, r25	; 0x8009a1 <__TEXT_REGION_LENGTH__+0x7009a1>
	return MEMORY_FLASH_USART.DATA;
    1474:	d0 91 a0 09 	lds	r29, 0x09A0	; 0x8009a0 <__TEXT_REGION_LENGTH__+0x7009a0>
	MEMORY_FLASH_PORT.OUTSET = MEMORY_FLASH_CS;
    1478:	20 93 65 06 	sts	0x0665, r18	; 0x800665 <__TEXT_REGION_LENGTH__+0x700665>
	MEMORY_FLASH_PORT.OUTCLR = MEMORY_FLASH_CS;
    147c:	20 93 66 06 	sts	0x0666, r18	; 0x800666 <__TEXT_REGION_LENGTH__+0x700666>
	MEMORY_FLASH_USART.DATA = Data;
    1480:	30 93 a0 09 	sts	0x09A0, r19	; 0x8009a0 <__TEXT_REGION_LENGTH__+0x7009a0>
	while (!(MEMORY_FLASH_USART.STATUS & USART_TXCIF_bm));
    1484:	d0 91 a1 09 	lds	r29, 0x09A1	; 0x8009a1 <__TEXT_REGION_LENGTH__+0x7009a1>
    1488:	d6 ff       	sbrs	r29, 6
    148a:	fc cf       	rjmp	.-8      	; 0x1484 <MemoryWriteBlock+0xf4>
	MEMORY_FLASH_USART.STATUS = USART_TXCIF_bm;
    148c:	90 93 a1 09 	sts	0x09A1, r25	; 0x8009a1 <__TEXT_REGION_LENGTH__+0x7009a1>
	return MEMORY_FLASH_USART.DATA;
    1490:	d0 91 a0 09 	lds	r29, 0x09A0	; 0x8009a0 <__TEXT_REGION_LENGTH__+0x7009a0>
	MEMORY_FLASH_USART.DATA = Data;
    1494:	10 92 a0 09 	sts	0x09A0, r1	; 0x8009a0 <__TEXT_REGION_LENGTH__+0x7009a0>
	while (!(MEMORY_FLASH_USART.STATUS & USART_TXCIF_bm));
    1498:	d0 91 a1 09 	lds	r29, 0x09A1	; 0x8009a1 <__TEXT_REGION_LENGTH__+0x7009a1>
    149c:	d6 ff       	sbrs	r29, 6
    149e:	fc cf       	rjmp	.-8      	; 0x1498 <MemoryWriteBlock+0x108>
	MEMORY_FLASH_USART.STATUS = USART_TXCIF_bm;
    14a0:	90 93 a1 09 	sts	0x09A1, r25	; 0x8009a1 <__TEXT_REGION_LENGTH__+0x7009a1>
	return MEMORY_FLASH_USART.DATA;
    14a4:	d0 91 a0 09 	lds	r29, 0x09A0	; 0x8009a0 <__TEXT_REGION_LENGTH__+0x7009a0>
	MEMORY_FLASH_PORT.OUTSET = MEMORY_FLASH_CS;
    14a8:	20 93 65 06 	sts	0x0665, r18	; 0x800665 <__TEXT_REGION_LENGTH__+0x700665>
	while(FlashIsBusy());
    14ac:	d7 ff       	sbrs	r29, 7
    14ae:	e6 cf       	rjmp	.-52     	; 0x147c <MemoryWriteBlock+0xec>
	MEMORY_FLASH_PORT.OUTCLR = MEMORY_FLASH_CS;
    14b0:	80 93 66 06 	sts	0x0666, r24	; 0x800666 <__TEXT_REGION_LENGTH__+0x700666>
	MEMORY_FLASH_USART.DATA = Data;
    14b4:	b0 92 a0 09 	sts	0x09A0, r11	; 0x8009a0 <__TEXT_REGION_LENGTH__+0x7009a0>
	while (!(MEMORY_FLASH_USART.STATUS & USART_TXCIF_bm));
    14b8:	d0 91 a1 09 	lds	r29, 0x09A1	; 0x8009a1 <__TEXT_REGION_LENGTH__+0x7009a1>
    14bc:	d6 ff       	sbrs	r29, 6
    14be:	fc cf       	rjmp	.-8      	; 0x14b8 <MemoryWriteBlock+0x128>
	MEMORY_FLASH_USART.STATUS = USART_TXCIF_bm;
    14c0:	90 93 a1 09 	sts	0x09A1, r25	; 0x8009a1 <__TEXT_REGION_LENGTH__+0x7009a1>
	return MEMORY_FLASH_USART.DATA;
    14c4:	d0 91 a0 09 	lds	r29, 0x09A0	; 0x8009a0 <__TEXT_REGION_LENGTH__+0x7009a0>
	MEMORY_FLASH_USART.DATA = Data;
    14c8:	10 92 a0 09 	sts	0x09A0, r1	; 0x8009a0 <__TEXT_REGION_LENGTH__+0x7009a0>
	while (!(MEMORY_FLASH_USART.STATUS & USART_TXCIF_bm));
    14cc:	d0 91 a1 09 	lds	r29, 0x09A1	; 0x8009a1 <__TEXT_REGION_LENGTH__+0x7009a1>
    14d0:	d6 ff       	sbrs	r29, 6
    14d2:	fc cf       	rjmp	.-8      	; 0x14cc <MemoryWriteBlock+0x13c>
	MEMORY_FLASH_USART.STATUS = USART_TXCIF_bm;
    14d4:	90 93 a1 09 	sts	0x09A1, r25	; 0x8009a1 <__TEXT_REGION_LENGTH__+0x7009a1>
	return MEMORY_FLASH_USART.DATA;
    14d8:	d0 91 a0 09 	lds	r29, 0x09A0	; 0x8009a0 <__TEXT_REGION_LENGTH__+0x7009a0>
	MEMORY_FLASH_USART.DATA = Data;
    14dc:	10 92 a0 09 	sts	0x09A0, r1	; 0x8009a0 <__TEXT_REGION_LENGTH__+0x7009a0>
	while (!(MEMORY_FLASH_USART.STATUS & USART_TXCIF_bm));
    14e0:	d0 91 a1 09 	lds	r29, 0x09A1	; 0x8009a1 <__TEXT_REGION_LENGTH__+0x7009a1>
    14e4:	d6 ff       	sbrs	r29, 6
    14e6:	fc cf       	rjmp	.-8      	; 0x14e0 <MemoryWriteBlock+0x150>
	MEMORY_FLASH_USART.STATUS = USART_TXCIF_bm;
    14e8:	90 93 a1 09 	sts	0x09A1, r25	; 0x8009a1 <__TEXT_REGION_LENGTH__+0x7009a1>
	return MEMORY_FLASH_USART.DATA;
    14ec:	d0 91 a0 09 	lds	r29, 0x09A0	; 0x8009a0 <__TEXT_REGION_LENGTH__+0x7009a0>
	MEMORY_FLASH_USART.DATA = Data;
    14f0:	c0 93 a0 09 	sts	0x09A0, r28	; 0x8009a0 <__TEXT_REGION_LENGTH__+0x7009a0>
	while (!(MEMORY_FLASH_USART.STATUS & USART_TXCIF_bm));
    14f4:	c0 91 a1 09 	lds	r28, 0x09A1	; 0x8009a1 <__TEXT_REGION_LENGTH__+0x7009a1>
    14f8:	c6 ff       	sbrs	r28, 6
    14fa:	fc cf       	rjmp	.-8      	; 0x14f4 <MemoryWriteBlock+0x164>
	MEMORY_FLASH_USART.STATUS = USART_TXCIF_bm;
    14fc:	90 93 a1 09 	sts	0x09A1, r25	; 0x8009a1 <__TEXT_REGION_LENGTH__+0x7009a1>
	return MEMORY_FLASH_USART.DATA;
    1500:	c0 91 a0 09 	lds	r28, 0x09A0	; 0x8009a0 <__TEXT_REGION_LENGTH__+0x7009a0>
    1504:	ed 01       	movw	r28, r26
    1506:	6f 01       	movw	r12, r30
    1508:	ca 0e       	add	r12, r26
    150a:	db 1e       	adc	r13, r27
	while(ByteCount-- > 0) {
    150c:	cc 15       	cp	r28, r12
    150e:	dd 05       	cpc	r29, r13
    1510:	09 f0       	breq	.+2      	; 0x1514 <MemoryWriteBlock+0x184>
    1512:	5c c0       	rjmp	.+184    	; 0x15cc <MemoryWriteBlock+0x23c>
	MEMORY_FLASH_PORT.OUTSET = MEMORY_FLASH_CS;
    1514:	20 93 65 06 	sts	0x0665, r18	; 0x800665 <__TEXT_REGION_LENGTH__+0x700665>
	MEMORY_FLASH_PORT.OUTCLR = MEMORY_FLASH_CS;
    1518:	20 93 66 06 	sts	0x0666, r18	; 0x800666 <__TEXT_REGION_LENGTH__+0x700666>
	MEMORY_FLASH_USART.DATA = Data;
    151c:	30 93 a0 09 	sts	0x09A0, r19	; 0x8009a0 <__TEXT_REGION_LENGTH__+0x7009a0>
	while (!(MEMORY_FLASH_USART.STATUS & USART_TXCIF_bm));
    1520:	c0 91 a1 09 	lds	r28, 0x09A1	; 0x8009a1 <__TEXT_REGION_LENGTH__+0x7009a1>
    1524:	c6 ff       	sbrs	r28, 6
    1526:	fc cf       	rjmp	.-8      	; 0x1520 <MemoryWriteBlock+0x190>
	MEMORY_FLASH_USART.STATUS = USART_TXCIF_bm;
    1528:	90 93 a1 09 	sts	0x09A1, r25	; 0x8009a1 <__TEXT_REGION_LENGTH__+0x7009a1>
	return MEMORY_FLASH_USART.DATA;
    152c:	c0 91 a0 09 	lds	r28, 0x09A0	; 0x8009a0 <__TEXT_REGION_LENGTH__+0x7009a0>
	MEMORY_FLASH_USART.DATA = Data;
    1530:	10 92 a0 09 	sts	0x09A0, r1	; 0x8009a0 <__TEXT_REGION_LENGTH__+0x7009a0>
	while (!(MEMORY_FLASH_USART.STATUS & USART_TXCIF_bm));
    1534:	c0 91 a1 09 	lds	r28, 0x09A1	; 0x8009a1 <__TEXT_REGION_LENGTH__+0x7009a1>
    1538:	c6 ff       	sbrs	r28, 6
    153a:	fc cf       	rjmp	.-8      	; 0x1534 <MemoryWriteBlock+0x1a4>
	MEMORY_FLASH_USART.STATUS = USART_TXCIF_bm;
    153c:	90 93 a1 09 	sts	0x09A1, r25	; 0x8009a1 <__TEXT_REGION_LENGTH__+0x7009a1>
	return MEMORY_FLASH_USART.DATA;
    1540:	c0 91 a0 09 	lds	r28, 0x09A0	; 0x8009a0 <__TEXT_REGION_LENGTH__+0x7009a0>
	MEMORY_FLASH_PORT.OUTSET = MEMORY_FLASH_CS;
    1544:	20 93 65 06 	sts	0x0665, r18	; 0x800665 <__TEXT_REGION_LENGTH__+0x700665>
	while(FlashIsBusy());
    1548:	c7 ff       	sbrs	r28, 7
    154a:	e6 cf       	rjmp	.-52     	; 0x1518 <MemoryWriteBlock+0x188>
	MEMORY_FLASH_PORT.OUTCLR = MEMORY_FLASH_CS;
    154c:	80 93 66 06 	sts	0x0666, r24	; 0x800666 <__TEXT_REGION_LENGTH__+0x700666>
	MEMORY_FLASH_USART.DATA = Data;
    1550:	a0 92 a0 09 	sts	0x09A0, r10	; 0x8009a0 <__TEXT_REGION_LENGTH__+0x7009a0>
	while (!(MEMORY_FLASH_USART.STATUS & USART_TXCIF_bm));
    1554:	c0 91 a1 09 	lds	r28, 0x09A1	; 0x8009a1 <__TEXT_REGION_LENGTH__+0x7009a1>
    1558:	c6 ff       	sbrs	r28, 6
    155a:	fc cf       	rjmp	.-8      	; 0x1554 <MemoryWriteBlock+0x1c4>
	MEMORY_FLASH_USART.STATUS = USART_TXCIF_bm;
    155c:	90 93 a1 09 	sts	0x09A1, r25	; 0x8009a1 <__TEXT_REGION_LENGTH__+0x7009a1>
	return MEMORY_FLASH_USART.DATA;
    1560:	c0 91 a0 09 	lds	r28, 0x09A0	; 0x8009a0 <__TEXT_REGION_LENGTH__+0x7009a0>
	MEMORY_FLASH_USART.DATA = Data;
    1564:	10 92 a0 09 	sts	0x09A0, r1	; 0x8009a0 <__TEXT_REGION_LENGTH__+0x7009a0>
	while (!(MEMORY_FLASH_USART.STATUS & USART_TXCIF_bm));
    1568:	c0 91 a1 09 	lds	r28, 0x09A1	; 0x8009a1 <__TEXT_REGION_LENGTH__+0x7009a1>
    156c:	c6 ff       	sbrs	r28, 6
    156e:	fc cf       	rjmp	.-8      	; 0x1568 <MemoryWriteBlock+0x1d8>
	MEMORY_FLASH_USART.STATUS = USART_TXCIF_bm;
    1570:	90 93 a1 09 	sts	0x09A1, r25	; 0x8009a1 <__TEXT_REGION_LENGTH__+0x7009a1>
	return MEMORY_FLASH_USART.DATA;
    1574:	c0 91 a0 09 	lds	r28, 0x09A0	; 0x8009a0 <__TEXT_REGION_LENGTH__+0x7009a0>
	MEMORY_FLASH_USART.DATA = Data;
    1578:	10 93 a0 09 	sts	0x09A0, r17	; 0x8009a0 <__TEXT_REGION_LENGTH__+0x7009a0>
	while (!(MEMORY_FLASH_USART.STATUS & USART_TXCIF_bm));
    157c:	c0 91 a1 09 	lds	r28, 0x09A1	; 0x8009a1 <__TEXT_REGION_LENGTH__+0x7009a1>
    1580:	c6 ff       	sbrs	r28, 6
    1582:	fc cf       	rjmp	.-8      	; 0x157c <MemoryWriteBlock+0x1ec>
	MEMORY_FLASH_USART.STATUS = USART_TXCIF_bm;
    1584:	90 93 a1 09 	sts	0x09A1, r25	; 0x8009a1 <__TEXT_REGION_LENGTH__+0x7009a1>
	return MEMORY_FLASH_USART.DATA;
    1588:	c0 91 a0 09 	lds	r28, 0x09A0	; 0x8009a0 <__TEXT_REGION_LENGTH__+0x7009a0>
	MEMORY_FLASH_USART.DATA = Data;
    158c:	10 92 a0 09 	sts	0x09A0, r1	; 0x8009a0 <__TEXT_REGION_LENGTH__+0x7009a0>
	while (!(MEMORY_FLASH_USART.STATUS & USART_TXCIF_bm));
    1590:	c0 91 a1 09 	lds	r28, 0x09A1	; 0x8009a1 <__TEXT_REGION_LENGTH__+0x7009a1>
    1594:	c6 ff       	sbrs	r28, 6
    1596:	fc cf       	rjmp	.-8      	; 0x1590 <MemoryWriteBlock+0x200>
	MEMORY_FLASH_USART.STATUS = USART_TXCIF_bm;
    1598:	90 93 a1 09 	sts	0x09A1, r25	; 0x8009a1 <__TEXT_REGION_LENGTH__+0x7009a1>
	return MEMORY_FLASH_USART.DATA;
    159c:	c0 91 a0 09 	lds	r28, 0x09A0	; 0x8009a0 <__TEXT_REGION_LENGTH__+0x7009a0>
	MEMORY_FLASH_PORT.OUTSET = MEMORY_FLASH_CS;
    15a0:	20 93 65 06 	sts	0x0665, r18	; 0x800665 <__TEXT_REGION_LENGTH__+0x700665>
		ByteCount -= PageBytes;
    15a4:	4e 1b       	sub	r20, r30
    15a6:	5f 0b       	sbc	r21, r31
		Address += PageBytes;
    15a8:	6e 0f       	add	r22, r30
    15aa:	7f 1f       	adc	r23, r31
	while(ByteCount > 0) {
    15ac:	41 15       	cp	r20, r1
    15ae:	51 05       	cpc	r21, r1
    15b0:	09 f0       	breq	.+2      	; 0x15b4 <MemoryWriteBlock+0x224>
    15b2:	15 cf       	rjmp	.-470    	; 0x13de <MemoryWriteBlock+0x4e>
	FlashWrite(Buffer, FlashAddress, ByteCount);
}
    15b4:	df 91       	pop	r29
    15b6:	cf 91       	pop	r28
    15b8:	1f 91       	pop	r17
    15ba:	0f 91       	pop	r16
    15bc:	ff 90       	pop	r15
    15be:	ef 90       	pop	r14
    15c0:	df 90       	pop	r13
    15c2:	cf 90       	pop	r12
    15c4:	bf 90       	pop	r11
    15c6:	af 90       	pop	r10
    15c8:	9f 90       	pop	r9
    15ca:	08 95       	ret
		MEMORY_FLASH_USART.DATA = *ByteBuffer++;
    15cc:	99 90       	ld	r9, Y+
    15ce:	90 92 a0 09 	sts	0x09A0, r9	; 0x8009a0 <__TEXT_REGION_LENGTH__+0x7009a0>
		while (!(MEMORY_FLASH_USART.STATUS & USART_TXCIF_bm));
    15d2:	90 90 a1 09 	lds	r9, 0x09A1	; 0x8009a1 <__TEXT_REGION_LENGTH__+0x7009a1>
    15d6:	96 fe       	sbrs	r9, 6
    15d8:	fc cf       	rjmp	.-8      	; 0x15d2 <MemoryWriteBlock+0x242>
		MEMORY_FLASH_USART.STATUS = USART_TXCIF_bm;
    15da:	90 93 a1 09 	sts	0x09A1, r25	; 0x8009a1 <__TEXT_REGION_LENGTH__+0x7009a1>
		MEMORY_FLASH_USART.DATA; /* Flush Buffer */
    15de:	90 90 a0 09 	lds	r9, 0x09A0	; 0x8009a0 <__TEXT_REGION_LENGTH__+0x7009a0>
    15e2:	94 cf       	rjmp	.-216    	; 0x150c <MemoryWriteBlock+0x17c>

000015e4 <MemoryClear>:

void MemoryClear(void) {
	uint16_t PageAddress;
	uint16_t PageCount;
	if ( GlobalSettings.ActiveSetting == 0 ) {
    15e4:	20 91 00 20 	lds	r18, 0x2000	; 0x802000 <GlobalSettings>
		PageAddress = ((uint16_t) GlobalSettings.ActiveSetting * MEMORY_SIZE_PER_SETTING_4K) / MEMORY_PAGE_SIZE;
		PageCount = MEMORY_SIZE_PER_SETTING_4K / MEMORY_PAGE_SIZE;
    15e8:	40 e1       	ldi	r20, 0x10	; 16
    15ea:	50 e0       	ldi	r21, 0x00	; 0
		PageAddress = ((uint16_t) GlobalSettings.ActiveSetting * MEMORY_SIZE_PER_SETTING_4K) / MEMORY_PAGE_SIZE;
    15ec:	90 e0       	ldi	r25, 0x00	; 0
    15ee:	80 e0       	ldi	r24, 0x00	; 0
	if ( GlobalSettings.ActiveSetting == 0 ) {
    15f0:	22 23       	and	r18, r18
    15f2:	31 f0       	breq	.+12     	; 0x1600 <MemoryClear+0x1c>
	} else {
		PageAddress = ((uint16_t) GlobalSettings.ActiveSetting * MEMORY_SIZE_PER_SETTING_1K) / MEMORY_PAGE_SIZE;
    15f4:	82 2f       	mov	r24, r18
    15f6:	88 0f       	add	r24, r24
    15f8:	88 0f       	add	r24, r24
    15fa:	90 e0       	ldi	r25, 0x00	; 0
		PageCount = MEMORY_SIZE_PER_SETTING_1K / MEMORY_PAGE_SIZE;
    15fc:	44 e0       	ldi	r20, 0x04	; 4
    15fe:	50 e0       	ldi	r21, 0x00	; 0
    1600:	48 0f       	add	r20, r24
    1602:	59 1f       	adc	r21, r25
	MEMORY_FLASH_PORT.OUTCLR = MEMORY_FLASH_CS;
    1604:	30 e1       	ldi	r19, 0x10	; 16
	MEMORY_FLASH_USART.DATA = Data;
    1606:	67 ed       	ldi	r22, 0xD7	; 215
	MEMORY_FLASH_USART.STATUS = USART_TXCIF_bm;
    1608:	20 e4       	ldi	r18, 0x40	; 64
	MEMORY_FLASH_PORT.OUTSET = MEMORY_FLASH_CS;
    160a:	70 e1       	ldi	r23, 0x10	; 16
	MEMORY_FLASH_USART.DATA = Data;
    160c:	e1 e8       	ldi	r30, 0x81	; 129
	MEMORY_FLASH_PORT.OUTCLR = MEMORY_FLASH_CS;
    160e:	30 93 66 06 	sts	0x0666, r19	; 0x800666 <__TEXT_REGION_LENGTH__+0x700666>
	MEMORY_FLASH_USART.DATA = Data;
    1612:	60 93 a0 09 	sts	0x09A0, r22	; 0x8009a0 <__TEXT_REGION_LENGTH__+0x7009a0>
	while (!(MEMORY_FLASH_USART.STATUS & USART_TXCIF_bm));
    1616:	f0 91 a1 09 	lds	r31, 0x09A1	; 0x8009a1 <__TEXT_REGION_LENGTH__+0x7009a1>
    161a:	f6 ff       	sbrs	r31, 6
    161c:	fc cf       	rjmp	.-8      	; 0x1616 <MemoryClear+0x32>
	MEMORY_FLASH_USART.STATUS = USART_TXCIF_bm;
    161e:	20 93 a1 09 	sts	0x09A1, r18	; 0x8009a1 <__TEXT_REGION_LENGTH__+0x7009a1>
	return MEMORY_FLASH_USART.DATA;
    1622:	f0 91 a0 09 	lds	r31, 0x09A0	; 0x8009a0 <__TEXT_REGION_LENGTH__+0x7009a0>
	MEMORY_FLASH_USART.DATA = Data;
    1626:	10 92 a0 09 	sts	0x09A0, r1	; 0x8009a0 <__TEXT_REGION_LENGTH__+0x7009a0>
	while (!(MEMORY_FLASH_USART.STATUS & USART_TXCIF_bm));
    162a:	f0 91 a1 09 	lds	r31, 0x09A1	; 0x8009a1 <__TEXT_REGION_LENGTH__+0x7009a1>
    162e:	f6 ff       	sbrs	r31, 6
    1630:	fc cf       	rjmp	.-8      	; 0x162a <MemoryClear+0x46>
	MEMORY_FLASH_USART.STATUS = USART_TXCIF_bm;
    1632:	20 93 a1 09 	sts	0x09A1, r18	; 0x8009a1 <__TEXT_REGION_LENGTH__+0x7009a1>
	return MEMORY_FLASH_USART.DATA;
    1636:	f0 91 a0 09 	lds	r31, 0x09A0	; 0x8009a0 <__TEXT_REGION_LENGTH__+0x7009a0>
	MEMORY_FLASH_PORT.OUTSET = MEMORY_FLASH_CS;
    163a:	30 93 65 06 	sts	0x0665, r19	; 0x800665 <__TEXT_REGION_LENGTH__+0x700665>
	while(FlashIsBusy());
    163e:	f7 ff       	sbrs	r31, 7
    1640:	e6 cf       	rjmp	.-52     	; 0x160e <MemoryClear+0x2a>
	MEMORY_FLASH_PORT.OUTCLR = MEMORY_FLASH_CS;
    1642:	70 93 66 06 	sts	0x0666, r23	; 0x800666 <__TEXT_REGION_LENGTH__+0x700666>
	MEMORY_FLASH_USART.DATA = Data;
    1646:	e0 93 a0 09 	sts	0x09A0, r30	; 0x8009a0 <__TEXT_REGION_LENGTH__+0x7009a0>
	while (!(MEMORY_FLASH_USART.STATUS & USART_TXCIF_bm));
    164a:	f0 91 a1 09 	lds	r31, 0x09A1	; 0x8009a1 <__TEXT_REGION_LENGTH__+0x7009a1>
    164e:	f6 ff       	sbrs	r31, 6
    1650:	fc cf       	rjmp	.-8      	; 0x164a <MemoryClear+0x66>
	MEMORY_FLASH_USART.STATUS = USART_TXCIF_bm;
    1652:	20 93 a1 09 	sts	0x09A1, r18	; 0x8009a1 <__TEXT_REGION_LENGTH__+0x7009a1>
	return MEMORY_FLASH_USART.DATA;
    1656:	f0 91 a0 09 	lds	r31, 0x09A0	; 0x8009a0 <__TEXT_REGION_LENGTH__+0x7009a0>
	MEMORY_FLASH_USART.DATA = Data;
    165a:	90 93 a0 09 	sts	0x09A0, r25	; 0x8009a0 <__TEXT_REGION_LENGTH__+0x7009a0>
	while (!(MEMORY_FLASH_USART.STATUS & USART_TXCIF_bm));
    165e:	f0 91 a1 09 	lds	r31, 0x09A1	; 0x8009a1 <__TEXT_REGION_LENGTH__+0x7009a1>
    1662:	f6 ff       	sbrs	r31, 6
    1664:	fc cf       	rjmp	.-8      	; 0x165e <MemoryClear+0x7a>
	MEMORY_FLASH_USART.STATUS = USART_TXCIF_bm;
    1666:	20 93 a1 09 	sts	0x09A1, r18	; 0x8009a1 <__TEXT_REGION_LENGTH__+0x7009a1>
	return MEMORY_FLASH_USART.DATA;
    166a:	f0 91 a0 09 	lds	r31, 0x09A0	; 0x8009a0 <__TEXT_REGION_LENGTH__+0x7009a0>
	MEMORY_FLASH_USART.DATA = Data;
    166e:	80 93 a0 09 	sts	0x09A0, r24	; 0x8009a0 <__TEXT_REGION_LENGTH__+0x7009a0>
	while (!(MEMORY_FLASH_USART.STATUS & USART_TXCIF_bm));
    1672:	f0 91 a1 09 	lds	r31, 0x09A1	; 0x8009a1 <__TEXT_REGION_LENGTH__+0x7009a1>
    1676:	f6 ff       	sbrs	r31, 6
    1678:	fc cf       	rjmp	.-8      	; 0x1672 <MemoryClear+0x8e>
	MEMORY_FLASH_USART.STATUS = USART_TXCIF_bm;
    167a:	20 93 a1 09 	sts	0x09A1, r18	; 0x8009a1 <__TEXT_REGION_LENGTH__+0x7009a1>
	return MEMORY_FLASH_USART.DATA;
    167e:	f0 91 a0 09 	lds	r31, 0x09A0	; 0x8009a0 <__TEXT_REGION_LENGTH__+0x7009a0>
	MEMORY_FLASH_USART.DATA = Data;
    1682:	10 92 a0 09 	sts	0x09A0, r1	; 0x8009a0 <__TEXT_REGION_LENGTH__+0x7009a0>
	while (!(MEMORY_FLASH_USART.STATUS & USART_TXCIF_bm));
    1686:	f0 91 a1 09 	lds	r31, 0x09A1	; 0x8009a1 <__TEXT_REGION_LENGTH__+0x7009a1>
    168a:	f6 ff       	sbrs	r31, 6
    168c:	fc cf       	rjmp	.-8      	; 0x1686 <MemoryClear+0xa2>
	MEMORY_FLASH_USART.STATUS = USART_TXCIF_bm;
    168e:	20 93 a1 09 	sts	0x09A1, r18	; 0x8009a1 <__TEXT_REGION_LENGTH__+0x7009a1>
	return MEMORY_FLASH_USART.DATA;
    1692:	f0 91 a0 09 	lds	r31, 0x09A0	; 0x8009a0 <__TEXT_REGION_LENGTH__+0x7009a0>
	MEMORY_FLASH_PORT.OUTSET = MEMORY_FLASH_CS;
    1696:	30 93 65 06 	sts	0x0665, r19	; 0x800665 <__TEXT_REGION_LENGTH__+0x700665>
	}

	while(PageCount > 0) {
		FlashClearPage(PageAddress);
		PageCount--;
		PageAddress++;
    169a:	01 96       	adiw	r24, 0x01	; 1
	while(PageCount > 0) {
    169c:	48 17       	cp	r20, r24
    169e:	59 07       	cpc	r21, r25
    16a0:	09 f0       	breq	.+2      	; 0x16a4 <MemoryClear+0xc0>
    16a2:	b5 cf       	rjmp	.-150    	; 0x160e <MemoryClear+0x2a>
	}
}
    16a4:	08 95       	ret

000016a6 <MemoryUploadBlock>:

	// LEDTrigger(LED_MEMORY_CHANGED, LED_OFF);
	// LEDTrigger(LED_MEMORY_STORED, LED_PULSE);
}

bool MemoryUploadBlock(void* Buffer, uint16_t BlockAddress, uint16_t ByteCount) {
    16a6:	fa 01       	movw	r30, r20
	if ( GlobalSettings.ActiveSetting == 0 ) {
    16a8:	20 91 00 20 	lds	r18, 0x2000	; 0x802000 <GlobalSettings>
    16ac:	21 11       	cpse	r18, r1
    16ae:	08 c0       	rjmp	.+16     	; 0x16c0 <MemoryUploadBlock+0x1a>
        /* Prevent writing out of bounds by silently ignoring it */
        return true;
    } else {
    	/* Calculate bytes left in memory and start writing */
			uint16_t BytesLeft = MEMORY_SIZE_PER_SETTING_4K - BlockAddress;
		ByteCount = MIN(ByteCount, BytesLeft);
    16b0:	40 e0       	ldi	r20, 0x00	; 0
    16b2:	50 e1       	ldi	r21, 0x10	; 16
		if (BlockAddress >= MEMORY_SIZE_PER_SETTING_4K) {
    16b4:	61 15       	cp	r22, r1
    16b6:	20 e1       	ldi	r18, 0x10	; 16
    16b8:	72 07       	cpc	r23, r18
    16ba:	40 f0       	brcs	.+16     	; 0x16cc <MemoryUploadBlock+0x26>
			ByteCount = MIN(ByteCount, BytesLeft);
			MemoryWriteBlock(Buffer, BlockAddress, ByteCount);
			return true;
		}
    }
}
    16bc:	81 e0       	ldi	r24, 0x01	; 1
    16be:	08 95       	ret
		if (BlockAddress >= MEMORY_SIZE_PER_SETTING_1K) {
    16c0:	61 15       	cp	r22, r1
    16c2:	24 e0       	ldi	r18, 0x04	; 4
    16c4:	72 07       	cpc	r23, r18
    16c6:	d0 f7       	brcc	.-12     	; 0x16bc <MemoryUploadBlock+0x16>
			ByteCount = MIN(ByteCount, BytesLeft);
    16c8:	40 e0       	ldi	r20, 0x00	; 0
    16ca:	54 e0       	ldi	r21, 0x04	; 4
    16cc:	46 1b       	sub	r20, r22
    16ce:	57 0b       	sbc	r21, r23
    16d0:	e4 17       	cp	r30, r20
    16d2:	f5 07       	cpc	r31, r21
    16d4:	08 f4       	brcc	.+2      	; 0x16d8 <MemoryUploadBlock+0x32>
    16d6:	af 01       	movw	r20, r30
			MemoryWriteBlock(Buffer, BlockAddress, ByteCount);
    16d8:	5b de       	rcall	.-842    	; 0x1390 <MemoryWriteBlock>
			return true;
    16da:	f0 cf       	rjmp	.-32     	; 0x16bc <MemoryUploadBlock+0x16>

000016dc <MemoryDownloadBlock>:

bool MemoryDownloadBlock(void* Buffer, uint16_t BlockAddress, uint16_t ByteCount) {
    16dc:	fa 01       	movw	r30, r20
	if ( GlobalSettings.ActiveSetting == 0 ) {
    16de:	20 91 00 20 	lds	r18, 0x2000	; 0x802000 <GlobalSettings>
    16e2:	21 11       	cpse	r18, r1
    16e4:	08 c0       	rjmp	.+16     	; 0x16f6 <MemoryDownloadBlock+0x1a>
        /* There are bytes out of bounds to be read. Notify that we are done. */
        return false;
    } else {
    	/* Calculate bytes left in memory and issue reading */
    		uint16_t BytesLeft = MEMORY_SIZE_PER_SETTING_4K - BlockAddress;
		ByteCount = MIN(ByteCount, BytesLeft);
    16e6:	40 e0       	ldi	r20, 0x00	; 0
    16e8:	50 e1       	ldi	r21, 0x10	; 16
		if (BlockAddress >= MEMORY_SIZE_PER_SETTING_4K) {
    16ea:	61 15       	cp	r22, r1
    16ec:	20 e1       	ldi	r18, 0x10	; 16
    16ee:	72 07       	cpc	r23, r18
    16f0:	40 f0       	brcs	.+16     	; 0x1702 <MemoryDownloadBlock+0x26>
        return false;
    16f2:	80 e0       	ldi	r24, 0x00	; 0
			ByteCount = MIN(ByteCount, BytesLeft);
			MemoryReadBlock(Buffer, BlockAddress, ByteCount);
			return true;
		}
    }
}
    16f4:	08 95       	ret
		if (BlockAddress >= MEMORY_SIZE_PER_SETTING_1K) {
    16f6:	61 15       	cp	r22, r1
    16f8:	24 e0       	ldi	r18, 0x04	; 4
    16fa:	72 07       	cpc	r23, r18
    16fc:	d0 f7       	brcc	.-12     	; 0x16f2 <MemoryDownloadBlock+0x16>
			ByteCount = MIN(ByteCount, BytesLeft);
    16fe:	40 e0       	ldi	r20, 0x00	; 0
    1700:	54 e0       	ldi	r21, 0x04	; 4
    1702:	46 1b       	sub	r20, r22
    1704:	57 0b       	sbc	r21, r23
    1706:	e4 17       	cp	r30, r20
    1708:	f5 07       	cpc	r31, r21
    170a:	08 f4       	brcc	.+2      	; 0x170e <MemoryDownloadBlock+0x32>
    170c:	af 01       	movw	r20, r30
			MemoryReadBlock(Buffer, BlockAddress, ByteCount);
    170e:	b7 dd       	rcall	.-1170   	; 0x127e <MemoryReadBlock>
			return true;
    1710:	81 e0       	ldi	r24, 0x01	; 1
    1712:	08 95       	ret

00001714 <ExecuteButtonAction>:
	BUTTON_PORT.DIRCLR = BUTTON_MASK;
	BUTTON_PORT.BUTTON_PINCTRL = PORT_OPC_PULLUP_gc;
}

static void ExecuteButtonAction(ButtonActionEnum ButtonAction)
{
    1714:	ff 92       	push	r15
    1716:	0f 93       	push	r16
    1718:	1f 93       	push	r17
    171a:	cf 93       	push	r28
    171c:	df 93       	push	r29
    171e:	cd b7       	in	r28, 0x3d	; 61
    1720:	de b7       	in	r29, 0x3e	; 62
    1722:	a0 97       	sbiw	r28, 0x20	; 32
    1724:	cd bf       	out	0x3d, r28	; 61
    1726:	de bf       	out	0x3e, r29	; 62
	uint8_t UidBuffer[32];

	if (ButtonAction == BUTTON_ACTION_UID_RANDOM) {
    1728:	81 30       	cpi	r24, 0x01	; 1
    172a:	19 f5       	brne	.+70     	; 0x1772 <ExecuteButtonAction+0x5e>
INLINE void ApplicationReset(void) {
    ActiveConfiguration.ApplicationResetFunc();
}

INLINE void ApplicationGetUid(ConfigurationUidType Uid) {
    ActiveConfiguration.ApplicationGetUidFunc(Uid);
    172c:	e0 91 5a 21 	lds	r30, 0x215A	; 0x80215a <ActiveConfiguration+0x10>
    1730:	f0 91 5b 21 	lds	r31, 0x215B	; 0x80215b <ActiveConfiguration+0x11>
    1734:	ce 01       	movw	r24, r28
    1736:	01 96       	adiw	r24, 0x01	; 1
    1738:	09 95       	icall
		*/

		ApplicationGetUid(UidBuffer);

		/* skip manufacturing byte UID0 */
		for (uint8_t i=1; i<ActiveConfiguration.UidSize-1; i++) {
    173a:	ff 24       	eor	r15, r15
    173c:	f3 94       	inc	r15
    173e:	0f 2d       	mov	r16, r15
    1740:	10 e0       	ldi	r17, 0x00	; 0
    1742:	80 91 60 21 	lds	r24, 0x2160	; 0x802160 <ActiveConfiguration+0x16>
    1746:	81 50       	subi	r24, 0x01	; 1
    1748:	99 0b       	sbc	r25, r25
    174a:	08 17       	cp	r16, r24
    174c:	19 07       	cpc	r17, r25
    174e:	3c f0       	brlt	.+14     	; 0x175e <ExecuteButtonAction+0x4a>
}

INLINE void ApplicationSetUid(ConfigurationUidType Uid) {
    ActiveConfiguration.ApplicationSetUidFunc(Uid);
    1750:	e0 91 5c 21 	lds	r30, 0x215C	; 0x80215c <ActiveConfiguration+0x12>
    1754:	f0 91 5d 21 	lds	r31, 0x215D	; 0x80215d <ActiveConfiguration+0x13>
    1758:	ce 01       	movw	r24, r28
    175a:	01 96       	adiw	r24, 0x01	; 1
    175c:	22 c0       	rjmp	.+68     	; 0x17a2 <ExecuteButtonAction+0x8e>
			UidBuffer[i] = RandomGetByte();
    175e:	4a dc       	rcall	.-1900   	; 0xff4 <RandomGetByte>
    1760:	e1 e0       	ldi	r30, 0x01	; 1
    1762:	f0 e0       	ldi	r31, 0x00	; 0
    1764:	ec 0f       	add	r30, r28
    1766:	fd 1f       	adc	r31, r29
    1768:	e0 0f       	add	r30, r16
    176a:	f1 1f       	adc	r31, r17
    176c:	80 83       	st	Z, r24
		for (uint8_t i=1; i<ActiveConfiguration.UidSize-1; i++) {
    176e:	f3 94       	inc	r15
    1770:	e6 cf       	rjmp	.-52     	; 0x173e <ExecuteButtonAction+0x2a>
		}

		ApplicationSetUid(UidBuffer);
	} else if (ButtonAction == BUTTON_ACTION_UID_LEFT_INCREMENT) {
    1772:	82 30       	cpi	r24, 0x02	; 2
    1774:	59 f5       	brne	.+86     	; 0x17cc <ExecuteButtonAction+0xb8>
    ActiveConfiguration.ApplicationGetUidFunc(Uid);
    1776:	e0 91 5a 21 	lds	r30, 0x215A	; 0x80215a <ActiveConfiguration+0x10>
    177a:	f0 91 5b 21 	lds	r31, 0x215B	; 0x80215b <ActiveConfiguration+0x11>
    177e:	8e 01       	movw	r16, r28
    1780:	0f 5f       	subi	r16, 0xFF	; 255
    1782:	1f 4f       	sbci	r17, 0xFF	; 255
    1784:	c8 01       	movw	r24, r16
    1786:	09 95       	icall
		ApplicationGetUid(UidBuffer);
		bool Carry = 1;
		uint8_t i;

		for (i=0; i<ActiveConfiguration.UidSize; i++) {
    1788:	20 91 60 21 	lds	r18, 0x2160	; 0x802160 <ActiveConfiguration+0x16>
    178c:	f8 01       	movw	r30, r16
		bool Carry = 1;
    178e:	91 e0       	ldi	r25, 0x01	; 1
		for (i=0; i<ActiveConfiguration.UidSize; i++) {
    1790:	8e 2f       	mov	r24, r30
    1792:	80 1b       	sub	r24, r16
    1794:	82 17       	cp	r24, r18
    1796:	78 f0       	brcs	.+30     	; 0x17b6 <ExecuteButtonAction+0xa2>
    ActiveConfiguration.ApplicationSetUidFunc(Uid);
    1798:	e0 91 5c 21 	lds	r30, 0x215C	; 0x80215c <ActiveConfiguration+0x12>
    179c:	f0 91 5d 21 	lds	r31, 0x215D	; 0x80215d <ActiveConfiguration+0x13>
    17a0:	c8 01       	movw	r24, r16
    17a2:	09 95       	icall

		ApplicationSetUid(UidBuffer);
	} else if (ButtonAction == BUTTON_ACTION_CYCLE_SETTINGS) {
		SettingsCycle();
	}
}
    17a4:	a0 96       	adiw	r28, 0x20	; 32
    17a6:	cd bf       	out	0x3d, r28	; 61
    17a8:	de bf       	out	0x3e, r29	; 62
    17aa:	df 91       	pop	r29
    17ac:	cf 91       	pop	r28
    17ae:	1f 91       	pop	r17
    17b0:	0f 91       	pop	r16
    17b2:	ff 90       	pop	r15
    17b4:	08 95       	ret
			if (Carry) {
    17b6:	99 23       	and	r25, r25
    17b8:	39 f0       	breq	.+14     	; 0x17c8 <ExecuteButtonAction+0xb4>
				if (UidBuffer[i] == 0xFF) {
    17ba:	80 81       	ld	r24, Z
    17bc:	91 e0       	ldi	r25, 0x01	; 1
    17be:	8f 3f       	cpi	r24, 0xFF	; 255
    17c0:	09 f0       	breq	.+2      	; 0x17c4 <ExecuteButtonAction+0xb0>
    17c2:	90 e0       	ldi	r25, 0x00	; 0
				UidBuffer[i] = (UidBuffer[i] + 1) & 0xFF;
    17c4:	8f 5f       	subi	r24, 0xFF	; 255
    17c6:	80 83       	st	Z, r24
    17c8:	31 96       	adiw	r30, 0x01	; 1
    17ca:	e2 cf       	rjmp	.-60     	; 0x1790 <ExecuteButtonAction+0x7c>
	} else if (ButtonAction == BUTTON_ACTION_UID_RIGHT_INCREMENT) {
    17cc:	83 30       	cpi	r24, 0x03	; 3
    17ce:	31 f5       	brne	.+76     	; 0x181c <ExecuteButtonAction+0x108>
    ActiveConfiguration.ApplicationGetUidFunc(Uid);
    17d0:	e0 91 5a 21 	lds	r30, 0x215A	; 0x80215a <ActiveConfiguration+0x10>
    17d4:	f0 91 5b 21 	lds	r31, 0x215B	; 0x80215b <ActiveConfiguration+0x11>
    17d8:	ce 01       	movw	r24, r28
    17da:	01 96       	adiw	r24, 0x01	; 1
    17dc:	09 95       	icall
		uint8_t i = ActiveConfiguration.UidSize;
    17de:	80 91 60 21 	lds	r24, 0x2160	; 0x802160 <ActiveConfiguration+0x16>
		bool Carry = 1;
    17e2:	41 e0       	ldi	r20, 0x01	; 1
		while(i-- > 0) {
    17e4:	81 50       	subi	r24, 0x01	; 1
    17e6:	08 f4       	brcc	.+2      	; 0x17ea <ExecuteButtonAction+0xd6>
    17e8:	b3 cf       	rjmp	.-154    	; 0x1750 <ExecuteButtonAction+0x3c>
			if (Carry) {
    17ea:	44 23       	and	r20, r20
    17ec:	d9 f3       	breq	.-10     	; 0x17e4 <ExecuteButtonAction+0xd0>
				if (UidBuffer[i] == 0xFF) {
    17ee:	28 2f       	mov	r18, r24
    17f0:	30 e0       	ldi	r19, 0x00	; 0
    17f2:	e1 e0       	ldi	r30, 0x01	; 1
    17f4:	f0 e0       	ldi	r31, 0x00	; 0
    17f6:	ec 0f       	add	r30, r28
    17f8:	fd 1f       	adc	r31, r29
    17fa:	e2 0f       	add	r30, r18
    17fc:	f3 1f       	adc	r31, r19
    17fe:	90 81       	ld	r25, Z
    1800:	41 e0       	ldi	r20, 0x01	; 1
    1802:	9f 3f       	cpi	r25, 0xFF	; 255
    1804:	09 f0       	breq	.+2      	; 0x1808 <ExecuteButtonAction+0xf4>
    1806:	40 e0       	ldi	r20, 0x00	; 0
				UidBuffer[i] = (UidBuffer[i] + 1) & 0xFF;
    1808:	61 e0       	ldi	r22, 0x01	; 1
    180a:	70 e0       	ldi	r23, 0x00	; 0
    180c:	6c 0f       	add	r22, r28
    180e:	7d 1f       	adc	r23, r29
    1810:	26 0f       	add	r18, r22
    1812:	37 1f       	adc	r19, r23
    1814:	9f 5f       	subi	r25, 0xFF	; 255
    1816:	f9 01       	movw	r30, r18
    1818:	90 83       	st	Z, r25
    181a:	e4 cf       	rjmp	.-56     	; 0x17e4 <ExecuteButtonAction+0xd0>
	} else if (ButtonAction == BUTTON_ACTION_UID_LEFT_DECREMENT) {
    181c:	84 30       	cpi	r24, 0x04	; 4
    181e:	e1 f4       	brne	.+56     	; 0x1858 <ExecuteButtonAction+0x144>
    1820:	e0 91 5a 21 	lds	r30, 0x215A	; 0x80215a <ActiveConfiguration+0x10>
    1824:	f0 91 5b 21 	lds	r31, 0x215B	; 0x80215b <ActiveConfiguration+0x11>
    1828:	8e 01       	movw	r16, r28
    182a:	0f 5f       	subi	r16, 0xFF	; 255
    182c:	1f 4f       	sbci	r17, 0xFF	; 255
    182e:	c8 01       	movw	r24, r16
    1830:	09 95       	icall
		for (i=0; i<ActiveConfiguration.UidSize; i++) {
    1832:	20 91 60 21 	lds	r18, 0x2160	; 0x802160 <ActiveConfiguration+0x16>
    1836:	f8 01       	movw	r30, r16
		bool Carry = 1;
    1838:	91 e0       	ldi	r25, 0x01	; 1
		for (i=0; i<ActiveConfiguration.UidSize; i++) {
    183a:	8e 2f       	mov	r24, r30
    183c:	80 1b       	sub	r24, r16
    183e:	82 17       	cp	r24, r18
    1840:	08 f0       	brcs	.+2      	; 0x1844 <ExecuteButtonAction+0x130>
    1842:	aa cf       	rjmp	.-172    	; 0x1798 <ExecuteButtonAction+0x84>
			if (Carry) {
    1844:	99 23       	and	r25, r25
    1846:	31 f0       	breq	.+12     	; 0x1854 <ExecuteButtonAction+0x140>
				if (UidBuffer[i] == 0x00) {
    1848:	80 81       	ld	r24, Z
    184a:	91 e0       	ldi	r25, 0x01	; 1
    184c:	81 11       	cpse	r24, r1
    184e:	90 e0       	ldi	r25, 0x00	; 0
				UidBuffer[i] = (UidBuffer[i] - 1) & 0xFF;
    1850:	81 50       	subi	r24, 0x01	; 1
    1852:	80 83       	st	Z, r24
    1854:	31 96       	adiw	r30, 0x01	; 1
    1856:	f1 cf       	rjmp	.-30     	; 0x183a <ExecuteButtonAction+0x126>
	} else if (ButtonAction == BUTTON_ACTION_UID_RIGHT_DECREMENT) {
    1858:	85 30       	cpi	r24, 0x05	; 5
    185a:	29 f5       	brne	.+74     	; 0x18a6 <ExecuteButtonAction+0x192>
    185c:	e0 91 5a 21 	lds	r30, 0x215A	; 0x80215a <ActiveConfiguration+0x10>
    1860:	f0 91 5b 21 	lds	r31, 0x215B	; 0x80215b <ActiveConfiguration+0x11>
    1864:	ce 01       	movw	r24, r28
    1866:	01 96       	adiw	r24, 0x01	; 1
    1868:	09 95       	icall
		uint8_t i = ActiveConfiguration.UidSize;
    186a:	80 91 60 21 	lds	r24, 0x2160	; 0x802160 <ActiveConfiguration+0x16>
		bool Carry = 1;
    186e:	41 e0       	ldi	r20, 0x01	; 1
		while(i-- > 0) {
    1870:	81 50       	subi	r24, 0x01	; 1
    1872:	08 f4       	brcc	.+2      	; 0x1876 <ExecuteButtonAction+0x162>
    1874:	6d cf       	rjmp	.-294    	; 0x1750 <ExecuteButtonAction+0x3c>
			if (Carry) {
    1876:	44 23       	and	r20, r20
    1878:	d9 f3       	breq	.-10     	; 0x1870 <ExecuteButtonAction+0x15c>
				if (UidBuffer[i] == 0x00) {
    187a:	28 2f       	mov	r18, r24
    187c:	30 e0       	ldi	r19, 0x00	; 0
    187e:	e1 e0       	ldi	r30, 0x01	; 1
    1880:	f0 e0       	ldi	r31, 0x00	; 0
    1882:	ec 0f       	add	r30, r28
    1884:	fd 1f       	adc	r31, r29
    1886:	e2 0f       	add	r30, r18
    1888:	f3 1f       	adc	r31, r19
    188a:	90 81       	ld	r25, Z
    188c:	41 e0       	ldi	r20, 0x01	; 1
    188e:	91 11       	cpse	r25, r1
    1890:	40 e0       	ldi	r20, 0x00	; 0
				UidBuffer[i] = (UidBuffer[i] - 1) & 0xFF;
    1892:	61 e0       	ldi	r22, 0x01	; 1
    1894:	70 e0       	ldi	r23, 0x00	; 0
    1896:	6c 0f       	add	r22, r28
    1898:	7d 1f       	adc	r23, r29
    189a:	26 0f       	add	r18, r22
    189c:	37 1f       	adc	r19, r23
    189e:	91 50       	subi	r25, 0x01	; 1
    18a0:	f9 01       	movw	r30, r18
    18a2:	90 83       	st	Z, r25
    18a4:	e5 cf       	rjmp	.-54     	; 0x1870 <ExecuteButtonAction+0x15c>
	} else if (ButtonAction == BUTTON_ACTION_CYCLE_SETTINGS) {
    18a6:	86 30       	cpi	r24, 0x06	; 6
    18a8:	09 f0       	breq	.+2      	; 0x18ac <ExecuteButtonAction+0x198>
		SettingsCycle();
    18aa:	7c cf       	rjmp	.-264    	; 0x17a4 <ExecuteButtonAction+0x90>
    18ac:	c7 d0       	rcall	.+398    	; 0x1a3c <SettingsCycle>
}
    18ae:	7a cf       	rjmp	.-268    	; 0x17a4 <ExecuteButtonAction+0x90>

000018b0 <ButtonInit>:
	BUTTON_PORT.DIRCLR = BUTTON_MASK;
    18b0:	e0 e0       	ldi	r30, 0x00	; 0
    18b2:	f6 e0       	ldi	r31, 0x06	; 6
    18b4:	80 e4       	ldi	r24, 0x40	; 64
    18b6:	82 83       	std	Z+2, r24	; 0x02
	BUTTON_PORT.BUTTON_PINCTRL = PORT_OPC_PULLUP_gc;
    18b8:	88 e1       	ldi	r24, 0x18	; 24
    18ba:	86 8b       	std	Z+22, r24	; 0x16
}
    18bc:	08 95       	ret

000018be <ButtonTick>:

void ButtonTick(void)
{
    //static uint8_t LastButtonState = 0;
    static uint8_t PressTickCounter = 0;
    uint8_t ThisButtonState = ~BUTTON_PORT.IN;
    18be:	90 91 08 06 	lds	r25, 0x0608	; 0x800608 <__TEXT_REGION_LENGTH__+0x700608>
    18c2:	80 91 5c 20 	lds	r24, 0x205C	; 0x80205c <__data_end>
    //uint8_t ThisButtonChange = ThisButtonState ^ LastButtonState;
    //uint8_t ThisButtonPress = ThisButtonChange & ThisButtonState;
    //LastButtonState = ThisButtonState;

    if (ThisButtonState & BUTTON_MASK) {
    18c6:	96 fd       	sbrc	r25, 6
    18c8:	11 c0       	rjmp	.+34     	; 0x18ec <ButtonTick+0x2e>
    	/* Button is currently pressed */
    	if (PressTickCounter < LONG_PRESS_TICK_COUNT) {
    18ca:	8a 30       	cpi	r24, 0x0A	; 10
    18cc:	20 f4       	brcc	.+8      	; 0x18d6 <ButtonTick+0x18>
    		PressTickCounter++;
    	} else if (PressTickCounter == LONG_PRESS_TICK_COUNT) {
    		/* Long button press detected execute button action and advance PressTickCounter
    		 * to an invalid state. */
    		ExecuteButtonAction(GlobalSettings.ActiveSettingPtr->ButtonLongAction);
    		PressTickCounter++;
    18ce:	8f 5f       	subi	r24, 0xFF	; 255
    18d0:	80 93 5c 20 	sts	0x205C, r24	; 0x80205c <__data_end>
    18d4:	08 95       	ret
    	} else if (PressTickCounter == LONG_PRESS_TICK_COUNT) {
    18d6:	8a 30       	cpi	r24, 0x0A	; 10
    18d8:	a1 f4       	brne	.+40     	; 0x1902 <ButtonTick+0x44>
    		ExecuteButtonAction(GlobalSettings.ActiveSettingPtr->ButtonLongAction);
    18da:	e0 91 01 20 	lds	r30, 0x2001	; 0x802001 <GlobalSettings+0x1>
    18de:	f0 91 02 20 	lds	r31, 0x2002	; 0x802002 <GlobalSettings+0x2>
    18e2:	81 81       	ldd	r24, Z+1	; 0x01
    18e4:	17 df       	rcall	.-466    	; 0x1714 <ExecuteButtonAction>
    		PressTickCounter++;
    18e6:	80 91 5c 20 	lds	r24, 0x205C	; 0x80205c <__data_end>
    18ea:	f1 cf       	rjmp	.-30     	; 0x18ce <ButtonTick+0x10>
    		/* Button is still pressed, ignore */
    	}
    } else if (!(ThisButtonState & BUTTON_MASK)) {
    	/* Button is currently not being pressed. Check if PressTickCounter contains
    	 * a recent short button press. */
    	if ( (PressTickCounter > 0) && (PressTickCounter <= LONG_PRESS_TICK_COUNT) ) {
    18ec:	81 50       	subi	r24, 0x01	; 1
    18ee:	8a 30       	cpi	r24, 0x0A	; 10
    18f0:	30 f4       	brcc	.+12     	; 0x18fe <ButtonTick+0x40>
    		/* We have a short button press */
    		ExecuteButtonAction(GlobalSettings.ActiveSettingPtr->ButtonAction);
    18f2:	e0 91 01 20 	lds	r30, 0x2001	; 0x802001 <GlobalSettings+0x1>
    18f6:	f0 91 02 20 	lds	r31, 0x2002	; 0x802002 <GlobalSettings+0x2>
    18fa:	80 81       	ld	r24, Z
    18fc:	0b df       	rcall	.-490    	; 0x1714 <ExecuteButtonAction>
    	}

    	PressTickCounter = 0;
    18fe:	10 92 5c 20 	sts	0x205C, r1	; 0x80205c <__data_end>
	}
}
    1902:	08 95       	ret

00001904 <ButtonGetActionList>:

void ButtonGetActionList(char* ListOut, uint16_t BufferSize)
{
    1904:	cf 93       	push	r28
    uint8_t i;

    /* Account for '\0' */
    BufferSize--;
    1906:	61 50       	subi	r22, 0x01	; 1
    1908:	71 09       	sbc	r23, r1
    190a:	41 e9       	ldi	r20, 0x91	; 145
    190c:	56 e0       	ldi	r21, 0x06	; 6

    for (i=0; i<BUTTON_ACTION_COUNT; i++) {
    190e:	20 e0       	ldi	r18, 0x00	; 0
            BufferSize--;
        }

        if ( i < (BUTTON_ACTION_COUNT - 1) ) {
            /* No comma on last configuration */
            *ListOut++ = ',';
    1910:	cc e2       	ldi	r28, 0x2C	; 44
        const char* ActionName = ButtonActionTable[i];
    1912:	fa 01       	movw	r30, r20
    1914:	dc 01       	movw	r26, r24
    1916:	cd 01       	movw	r24, r26
        while( (c = pgm_read_byte(ActionName)) != '\0' && BufferSize > sizeof(ButtonActionTable[i]) ) {
    1918:	34 91       	lpm	r19, Z
    191a:	31 11       	cpse	r19, r1
    191c:	0b c0       	rjmp	.+22     	; 0x1934 <ButtonGetActionList+0x30>
        if ( i < (BUTTON_ACTION_COUNT - 1) ) {
    191e:	26 30       	cpi	r18, 0x06	; 6
    1920:	89 f4       	brne	.+34     	; 0x1944 <ButtonGetActionList+0x40>
    for (i=0; i<BUTTON_ACTION_COUNT; i++) {
    1922:	2f 5f       	subi	r18, 0xFF	; 255
    1924:	40 5e       	subi	r20, 0xE0	; 224
    1926:	5f 4f       	sbci	r21, 0xFF	; 255
    1928:	27 30       	cpi	r18, 0x07	; 7
    192a:	99 f7       	brne	.-26     	; 0x1912 <ButtonGetActionList+0xe>
            BufferSize--;
        }
    }

    *ListOut = '\0';
    192c:	fc 01       	movw	r30, r24
    192e:	10 82       	st	Z, r1
}
    1930:	cf 91       	pop	r28
    1932:	08 95       	ret
        while( (c = pgm_read_byte(ActionName)) != '\0' && BufferSize > sizeof(ButtonActionTable[i]) ) {
    1934:	61 32       	cpi	r22, 0x21	; 33
    1936:	71 05       	cpc	r23, r1
    1938:	90 f3       	brcs	.-28     	; 0x191e <ButtonGetActionList+0x1a>
            *ListOut++ = c;
    193a:	3d 93       	st	X+, r19
            ActionName++;
    193c:	31 96       	adiw	r30, 0x01	; 1
            BufferSize--;
    193e:	61 50       	subi	r22, 0x01	; 1
    1940:	71 09       	sbc	r23, r1
    1942:	e9 cf       	rjmp	.-46     	; 0x1916 <ButtonGetActionList+0x12>
            *ListOut++ = ',';
    1944:	cc 93       	st	X, r28
            BufferSize--;
    1946:	61 50       	subi	r22, 0x01	; 1
    1948:	71 09       	sbc	r23, r1
            *ListOut++ = ',';
    194a:	cd 01       	movw	r24, r26
    194c:	01 96       	adiw	r24, 0x01	; 1
    194e:	e9 cf       	rjmp	.-46     	; 0x1922 <ButtonGetActionList+0x1e>

00001950 <ButtonSetActionById>:

void ButtonSetActionById(ButtonTypeEnum Type, ButtonActionEnum Action)
{
	#ifndef BUTTON_SETTING_GLOBAL
	if (Type == BUTTON_PRESS_SHORT) {
    1950:	81 11       	cpse	r24, r1
    1952:	06 c0       	rjmp	.+12     	; 0x1960 <ButtonSetActionById+0x10>
		GlobalSettings.ActiveSettingPtr->ButtonAction = Action;
    1954:	e0 91 01 20 	lds	r30, 0x2001	; 0x802001 <GlobalSettings+0x1>
    1958:	f0 91 02 20 	lds	r31, 0x2002	; 0x802002 <GlobalSettings+0x2>
    195c:	60 83       	st	Z, r22
    195e:	08 95       	ret
		} else if (Type == BUTTON_PRESS_LONG) {
    1960:	81 30       	cpi	r24, 0x01	; 1
    1962:	29 f4       	brne	.+10     	; 0x196e <ButtonSetActionById+0x1e>
		GlobalSettings.ActiveSettingPtr->ButtonLongAction = Action;
    1964:	e0 91 01 20 	lds	r30, 0x2001	; 0x802001 <GlobalSettings+0x1>
    1968:	f0 91 02 20 	lds	r31, 0x2002	; 0x802002 <GlobalSettings+0x2>
    196c:	61 83       	std	Z+1, r22	; 0x01
			} else if (Type == BUTTON_PRESS_LONG) {
			GlobalSettings.Settings[i].ButtonLongAction = Action;
		}
	}
	#endif
}
    196e:	08 95       	ret

00001970 <ButtonGetActionByName>:

void ButtonGetActionByName(ButtonTypeEnum Type, char* ActionOut, uint16_t BufferSize)
{
    1970:	28 2f       	mov	r18, r24
    1972:	cb 01       	movw	r24, r22
	if (Type == BUTTON_PRESS_SHORT) {
    1974:	21 11       	cpse	r18, r1
    1976:	0d c0       	rjmp	.+26     	; 0x1992 <ButtonGetActionByName+0x22>
		strncpy_P(ActionOut, ButtonActionTable[GlobalSettings.ActiveSettingPtr->ButtonAction], BufferSize);
    1978:	e0 91 01 20 	lds	r30, 0x2001	; 0x802001 <GlobalSettings+0x1>
    197c:	f0 91 02 20 	lds	r31, 0x2002	; 0x802002 <GlobalSettings+0x2>
    1980:	60 81       	ld	r22, Z
    1982:	20 e2       	ldi	r18, 0x20	; 32
    1984:	62 9f       	mul	r22, r18
    1986:	b0 01       	movw	r22, r0
    1988:	11 24       	eor	r1, r1
		} else if (Type == BUTTON_PRESS_LONG) {
		strncpy_P(ActionOut, ButtonActionTable[GlobalSettings.ActiveSettingPtr->ButtonLongAction], BufferSize);
    198a:	6f 56       	subi	r22, 0x6F	; 111
    198c:	79 4f       	sbci	r23, 0xF9	; 249
    198e:	0c 94 29 2e 	jmp	0x5c52	; 0x5c52 <strncpy_P>
		} else if (Type == BUTTON_PRESS_LONG) {
    1992:	21 30       	cpi	r18, 0x01	; 1
    1994:	51 f4       	brne	.+20     	; 0x19aa <ButtonGetActionByName+0x3a>
		strncpy_P(ActionOut, ButtonActionTable[GlobalSettings.ActiveSettingPtr->ButtonLongAction], BufferSize);
    1996:	e0 91 01 20 	lds	r30, 0x2001	; 0x802001 <GlobalSettings+0x1>
    199a:	f0 91 02 20 	lds	r31, 0x2002	; 0x802002 <GlobalSettings+0x2>
    199e:	61 81       	ldd	r22, Z+1	; 0x01
    19a0:	e0 e2       	ldi	r30, 0x20	; 32
    19a2:	6e 9f       	mul	r22, r30
    19a4:	b0 01       	movw	r22, r0
    19a6:	11 24       	eor	r1, r1
    19a8:	f0 cf       	rjmp	.-32     	; 0x198a <ButtonGetActionByName+0x1a>
		} else {
		/* Should not happen (TM) */
		*ActionOut = '\0';
    19aa:	fb 01       	movw	r30, r22
    19ac:	10 82       	st	Z, r1
	}
}
    19ae:	08 95       	ret

000019b0 <ButtonSetActionByName>:

bool ButtonSetActionByName(ButtonTypeEnum Type, const char* Action)
{
    19b0:	ef 92       	push	r14
    19b2:	ff 92       	push	r15
    19b4:	0f 93       	push	r16
    19b6:	1f 93       	push	r17
    19b8:	cf 93       	push	r28
    19ba:	df 93       	push	r29
    19bc:	d8 2f       	mov	r29, r24
    19be:	7b 01       	movw	r14, r22
    19c0:	01 e9       	ldi	r16, 0x91	; 145
    19c2:	16 e0       	ldi	r17, 0x06	; 6
	uint8_t i;

	for (i=0; i<BUTTON_ACTION_COUNT; i++) {
    19c4:	c0 e0       	ldi	r28, 0x00	; 0
		if (strcmp_P(Action, ButtonActionTable[i]) == 0) {
    19c6:	b8 01       	movw	r22, r16
    19c8:	c7 01       	movw	r24, r14
    19ca:	0e 94 20 2e 	call	0x5c40	; 0x5c40 <strcmp_P>
    19ce:	89 2b       	or	r24, r25
    19d0:	59 f4       	brne	.+22     	; 0x19e8 <ButtonSetActionByName+0x38>
			ButtonSetActionById(Type, i);
    19d2:	6c 2f       	mov	r22, r28
    19d4:	8d 2f       	mov	r24, r29
    19d6:	bc df       	rcall	.-136    	; 0x1950 <ButtonSetActionById>
			return true;
    19d8:	81 e0       	ldi	r24, 0x01	; 1
		}
	}

	/* Button action not found */
	return false;
}
    19da:	df 91       	pop	r29
    19dc:	cf 91       	pop	r28
    19de:	1f 91       	pop	r17
    19e0:	0f 91       	pop	r16
    19e2:	ff 90       	pop	r15
    19e4:	ef 90       	pop	r14
    19e6:	08 95       	ret
	for (i=0; i<BUTTON_ACTION_COUNT; i++) {
    19e8:	cf 5f       	subi	r28, 0xFF	; 255
    19ea:	00 5e       	subi	r16, 0xE0	; 224
    19ec:	1f 4f       	sbci	r17, 0xFF	; 255
    19ee:	c7 30       	cpi	r28, 0x07	; 7
    19f0:	51 f7       	brne	.-44     	; 0x19c6 <ButtonSetActionByName+0x16>
	return false;
    19f2:	80 e0       	ldi	r24, 0x00	; 0
    19f4:	f2 cf       	rjmp	.-28     	; 0x19da <ButtonSetActionByName+0x2a>

000019f6 <SettingsLoad>:
			}
		}
};

void SettingsLoad(void) {
	eeprom_read_block(&GlobalSettings, &StoredSettings, sizeof(SettingsType));
    19f6:	4b e2       	ldi	r20, 0x2B	; 43
    19f8:	50 e0       	ldi	r21, 0x00	; 0
    19fa:	60 e0       	ldi	r22, 0x00	; 0
    19fc:	70 e0       	ldi	r23, 0x00	; 0
    19fe:	80 e0       	ldi	r24, 0x00	; 0
    1a00:	90 e2       	ldi	r25, 0x20	; 32
    1a02:	0c 94 f1 30 	jmp	0x61e2	; 0x61e2 <eeprom_read_block>

00001a06 <SettingsSave>:
}

void SettingsSave(void) {
#if ENABLE_EEPROM_SETTINGS
	eeprom_write_block(&GlobalSettings, &StoredSettings, sizeof(SettingsType));
    1a06:	4b e2       	ldi	r20, 0x2B	; 43
    1a08:	50 e0       	ldi	r21, 0x00	; 0
    1a0a:	60 e0       	ldi	r22, 0x00	; 0
    1a0c:	70 e0       	ldi	r23, 0x00	; 0
    1a0e:	80 e0       	ldi	r24, 0x00	; 0
    1a10:	90 e2       	ldi	r25, 0x20	; 32
    1a12:	0c 94 fc 30 	jmp	0x61f8	; 0x61f8 <eeprom_write_block>

00001a16 <SettingsSetActiveById>:
		}
	}
}

bool SettingsSetActiveById(uint8_t Setting) {
	if ( (Setting >= SETTINGS_FIRST) && (Setting <= SETTINGS_LAST) ) {
    1a16:	88 30       	cpi	r24, 0x08	; 8
    1a18:	78 f4       	brcc	.+30     	; 0x1a38 <SettingsSetActiveById+0x22>
		GlobalSettings.ActiveSetting = Setting;
    1a1a:	80 93 00 20 	sts	0x2000, r24	; 0x802000 <GlobalSettings>
		GlobalSettings.ActiveSettingPtr = &GlobalSettings.Settings[GlobalSettings.ActiveSetting];
    1a1e:	25 e0       	ldi	r18, 0x05	; 5
    1a20:	82 9f       	mul	r24, r18
    1a22:	c0 01       	movw	r24, r0
    1a24:	11 24       	eor	r1, r1
    1a26:	8d 5f       	subi	r24, 0xFD	; 253
    1a28:	9f 4d       	sbci	r25, 0xDF	; 223
    1a2a:	80 93 01 20 	sts	0x2001, r24	; 0x802001 <GlobalSettings+0x1>
    1a2e:	90 93 02 20 	sts	0x2002, r25	; 0x802002 <GlobalSettings+0x2>

		/* Settings have changed. Progress changes through system */
		ConfigurationInit();
    1a32:	a2 da       	rcall	.-2748   	; 0xf78 <ConfigurationInit>
		return true;
    1a34:	81 e0       	ldi	r24, 0x01	; 1
    1a36:	08 95       	ret
	} else {
		return false;
    1a38:	80 e0       	ldi	r24, 0x00	; 0
	}
}
    1a3a:	08 95       	ret

00001a3c <SettingsCycle>:
	uint8_t Setting = GlobalSettings.ActiveSetting;
    1a3c:	30 91 00 20 	lds	r19, 0x2000	; 0x802000 <GlobalSettings>
	while (i-- > 0) {
    1a40:	29 e0       	ldi	r18, 0x09	; 9
		if (GlobalSettings.Settings[Setting].Configuration != CONFIG_NONE) {
    1a42:	45 e0       	ldi	r20, 0x05	; 5
    1a44:	21 50       	subi	r18, 0x01	; 1
	while (i-- > 0) {
    1a46:	09 f4       	brne	.+2      	; 0x1a4a <SettingsCycle+0xe>
}
    1a48:	08 95       	ret
		Setting = (Setting + 1) % SETTINGS_COUNT;
    1a4a:	83 2f       	mov	r24, r19
    1a4c:	90 e0       	ldi	r25, 0x00	; 0
    1a4e:	01 96       	adiw	r24, 0x01	; 1
    1a50:	87 70       	andi	r24, 0x07	; 7
    1a52:	99 27       	eor	r25, r25
    1a54:	38 2f       	mov	r19, r24
		if (GlobalSettings.Settings[Setting].Configuration != CONFIG_NONE) {
    1a56:	bc 01       	movw	r22, r24
    1a58:	6f 5f       	subi	r22, 0xFF	; 255
    1a5a:	7f 4f       	sbci	r23, 0xFF	; 255
    1a5c:	46 9f       	mul	r20, r22
    1a5e:	f0 01       	movw	r30, r0
    1a60:	47 9f       	mul	r20, r23
    1a62:	f0 0d       	add	r31, r0
    1a64:	11 24       	eor	r1, r1
    1a66:	e0 50       	subi	r30, 0x00	; 0
    1a68:	f0 4e       	sbci	r31, 0xE0	; 224
    1a6a:	50 81       	ld	r21, Z
    1a6c:	55 23       	and	r21, r21
    1a6e:	51 f3       	breq	.-44     	; 0x1a44 <SettingsCycle+0x8>
			if (SettingsSetActiveById(Setting)) {
    1a70:	d2 df       	rcall	.-92     	; 0x1a16 <SettingsSetActiveById>
    1a72:	88 23       	and	r24, r24
    1a74:	49 f3       	breq	.-46     	; 0x1a48 <SettingsCycle+0xc>
				SettingsSave();
    1a76:	c7 cf       	rjmp	.-114    	; 0x1a06 <SettingsSave>

00001a78 <SettingsGetActiveByName>:
    1a78:	fc 01       	movw	r30, r24
uint8_t SettingsGetActiveById(void) {
	return GlobalSettings.ActiveSetting;
}

void SettingsGetActiveByName(char* SettingOut, uint16_t BufferSize) {
	SettingOut[0] = 'N';
    1a7a:	8e e4       	ldi	r24, 0x4E	; 78
    1a7c:	80 83       	st	Z, r24
	SettingOut[1] = 'O';
    1a7e:	8f e4       	ldi	r24, 0x4F	; 79
    1a80:	81 83       	std	Z+1, r24	; 0x01
	SettingOut[2] = '.';	
    1a82:	8e e2       	ldi	r24, 0x2E	; 46
    1a84:	82 83       	std	Z+2, r24	; 0x02
	SettingOut[3] = SettingsGetActiveById() + '0';
    1a86:	80 91 00 20 	lds	r24, 0x2000	; 0x802000 <GlobalSettings>
    1a8a:	80 5d       	subi	r24, 0xD0	; 208
    1a8c:	83 83       	std	Z+3, r24	; 0x03
	SettingOut[4] = '\0';
    1a8e:	14 82       	std	Z+4, r1	; 0x04
}
    1a90:	08 95       	ret

00001a92 <SettingsSetActiveByName>:

bool SettingsSetActiveByName(const char* Setting) {
	uint8_t SettingNr = Setting[0] - '0';

	if ((Setting[1] == '\0') && (SettingNr < SETTINGS_COUNT)) {
    1a92:	fc 01       	movw	r30, r24
    1a94:	21 81       	ldd	r18, Z+1	; 0x01
    1a96:	21 11       	cpse	r18, r1
    1a98:	05 c0       	rjmp	.+10     	; 0x1aa4 <SettingsSetActiveByName+0x12>
	uint8_t SettingNr = Setting[0] - '0';
    1a9a:	80 81       	ld	r24, Z
    1a9c:	80 53       	subi	r24, 0x30	; 48
	if ((Setting[1] == '\0') && (SettingNr < SETTINGS_COUNT)) {
    1a9e:	88 30       	cpi	r24, 0x08	; 8
    1aa0:	08 f4       	brcc	.+2      	; 0x1aa4 <SettingsSetActiveByName+0x12>
		return SettingsSetActiveById(SettingNr);
    1aa2:	b9 cf       	rjmp	.-142    	; 0x1a16 <SettingsSetActiveById>
	} else {
		return false;
	}
}
    1aa4:	80 e0       	ldi	r24, 0x00	; 0
    1aa6:	08 95       	ret

00001aa8 <MapIdToText>:
#include "Map.h"

bool MapIdToText(const MapEntryType* MapPtr, uint8_t MapSize, MapIdType Id, char* Text, uint16_t MaxBufferSize)
{
    1aa8:	0f 93       	push	r16
    1aaa:	1f 93       	push	r17
    1aac:	fc 01       	movw	r30, r24
    1aae:	94 2f       	mov	r25, r20
    1ab0:	a8 01       	movw	r20, r16
    while (MapSize--) {
    1ab2:	61 11       	cpse	r22, r1
    1ab4:	02 c0       	rjmp	.+4      	; 0x1aba <MapIdToText+0x12>
        }

        MapPtr++;
    }

    return false;
    1ab6:	80 e0       	ldi	r24, 0x00	; 0
    1ab8:	0b c0       	rjmp	.+22     	; 0x1ad0 <MapIdToText+0x28>
        if (pgm_read_byte(&MapPtr->Id) == Id) {
    1aba:	84 91       	lpm	r24, Z
    1abc:	61 50       	subi	r22, 0x01	; 1
    1abe:	89 13       	cpse	r24, r25
    1ac0:	0a c0       	rjmp	.+20     	; 0x1ad6 <MapIdToText+0x2e>
            strncpy_P(Text, MapPtr->Text, MaxBufferSize);
    1ac2:	bf 01       	movw	r22, r30
    1ac4:	6f 5f       	subi	r22, 0xFF	; 255
    1ac6:	7f 4f       	sbci	r23, 0xFF	; 255
    1ac8:	c9 01       	movw	r24, r18
    1aca:	0e 94 29 2e 	call	0x5c52	; 0x5c52 <strncpy_P>
            return true;
    1ace:	81 e0       	ldi	r24, 0x01	; 1
}
    1ad0:	1f 91       	pop	r17
    1ad2:	0f 91       	pop	r16
    1ad4:	08 95       	ret
        MapPtr++;
    1ad6:	b1 96       	adiw	r30, 0x21	; 33
    1ad8:	ec cf       	rjmp	.-40     	; 0x1ab2 <MapIdToText+0xa>

00001ada <MapTextToId>:

bool MapTextToId(const MapEntryType* MapPtr, uint8_t MapSize, MapTextPtrType Text, MapIdType* IdPtr)
{
    1ada:	cf 92       	push	r12
    1adc:	df 92       	push	r13
    1ade:	ef 92       	push	r14
    1ae0:	ff 92       	push	r15
    1ae2:	1f 93       	push	r17
    1ae4:	cf 93       	push	r28
    1ae6:	df 93       	push	r29
    1ae8:	ec 01       	movw	r28, r24
    1aea:	16 2f       	mov	r17, r22
    1aec:	7a 01       	movw	r14, r20
    1aee:	69 01       	movw	r12, r18
    while (MapSize--) {
    1af0:	11 11       	cpse	r17, r1
    1af2:	02 c0       	rjmp	.+4      	; 0x1af8 <MapTextToId+0x1e>
        }

        MapPtr++;
    }

    return false;
    1af4:	80 e0       	ldi	r24, 0x00	; 0
    1af6:	0e c0       	rjmp	.+28     	; 0x1b14 <MapTextToId+0x3a>
        if (strcmp_P(Text, MapPtr->Text) == 0) {
    1af8:	be 01       	movw	r22, r28
    1afa:	6f 5f       	subi	r22, 0xFF	; 255
    1afc:	7f 4f       	sbci	r23, 0xFF	; 255
    1afe:	c7 01       	movw	r24, r14
    1b00:	0e 94 20 2e 	call	0x5c40	; 0x5c40 <strcmp_P>
    1b04:	11 50       	subi	r17, 0x01	; 1
    1b06:	89 2b       	or	r24, r25
    1b08:	69 f4       	brne	.+26     	; 0x1b24 <MapTextToId+0x4a>
                *IdPtr = pgm_read_byte(&MapPtr->Id);
    1b0a:	fe 01       	movw	r30, r28
    1b0c:	c4 91       	lpm	r28, Z
    1b0e:	f6 01       	movw	r30, r12
    1b10:	c0 83       	st	Z, r28
            return true;
    1b12:	81 e0       	ldi	r24, 0x01	; 1
}
    1b14:	df 91       	pop	r29
    1b16:	cf 91       	pop	r28
    1b18:	1f 91       	pop	r17
    1b1a:	ff 90       	pop	r15
    1b1c:	ef 90       	pop	r14
    1b1e:	df 90       	pop	r13
    1b20:	cf 90       	pop	r12
    1b22:	08 95       	ret
        MapPtr++;
    1b24:	a1 96       	adiw	r28, 0x21	; 33
    1b26:	e4 cf       	rjmp	.-56     	; 0x1af0 <MapTextToId+0x16>

00001b28 <MapToString>:

void MapToString(MapEntryType* MapPtr, uint8_t MapSize, char* String, uint16_t MaxBufferSize)
{
    1b28:	cf 93       	push	r28
    1b2a:	01 96       	adiw	r24, 0x01	; 1
            /* More than one map entries left */
            if (BytesLeft == 0) {
                return;
            }

            *String++ = ',';
    1b2c:	cc e2       	ldi	r28, 0x2C	; 44
    while (EntriesLeft > 0) {
    1b2e:	61 11       	cpse	r22, r1
    1b30:	06 c0       	rjmp	.+12     	; 0x1b3e <MapToString+0x16>
        MapPtr++;
        EntriesLeft--;
    }

    /* Terminate string */
    if (BytesLeft > 0) {
    1b32:	23 2b       	or	r18, r19
    1b34:	11 f0       	breq	.+4      	; 0x1b3a <MapToString+0x12>
        *String++ = '\0';
    1b36:	fa 01       	movw	r30, r20
    1b38:	10 82       	st	Z, r1
        BytesLeft--;
    }
}
    1b3a:	cf 91       	pop	r28
    1b3c:	08 95       	ret
        const char* Text = MapPtr->Text;
    1b3e:	fc 01       	movw	r30, r24
    1b40:	da 01       	movw	r26, r20
    1b42:	ad 01       	movw	r20, r26
        while( (c = pgm_read_byte(Text)) != '\0') {
    1b44:	74 91       	lpm	r23, Z
    1b46:	71 11       	cpse	r23, r1
    1b48:	0c c0       	rjmp	.+24     	; 0x1b62 <MapToString+0x3a>
        if (EntriesLeft > 1) {
    1b4a:	62 30       	cpi	r22, 0x02	; 2
    1b4c:	38 f0       	brcs	.+14     	; 0x1b5c <MapToString+0x34>
            if (BytesLeft == 0) {
    1b4e:	21 15       	cp	r18, r1
    1b50:	31 05       	cpc	r19, r1
    1b52:	99 f3       	breq	.-26     	; 0x1b3a <MapToString+0x12>
            *String++ = ',';
    1b54:	fd 01       	movw	r30, r26
    1b56:	c0 83       	st	Z, r28
    1b58:	4f 5f       	subi	r20, 0xFF	; 255
    1b5a:	5f 4f       	sbci	r21, 0xFF	; 255
        EntriesLeft--;
    1b5c:	61 50       	subi	r22, 0x01	; 1
    1b5e:	81 96       	adiw	r24, 0x21	; 33
    1b60:	e6 cf       	rjmp	.-52     	; 0x1b2e <MapToString+0x6>
            if (BytesLeft == 0) {
    1b62:	21 15       	cp	r18, r1
    1b64:	31 05       	cpc	r19, r1
    1b66:	49 f3       	breq	.-46     	; 0x1b3a <MapToString+0x12>
            *String++ = c;
    1b68:	7d 93       	st	X+, r23
            Text++;
    1b6a:	31 96       	adiw	r30, 0x01	; 1
            BytesLeft--;
    1b6c:	21 50       	subi	r18, 0x01	; 1
    1b6e:	31 09       	sbc	r19, r1
    1b70:	e8 cf       	rjmp	.-48     	; 0x1b42 <MapToString+0x1a>

00001b72 <fifo_buffer_input>:
	.buf={0},
};
//FIFO
void fifo_buffer_input(uint8_t data)
{
	fifo_buf.buf[fifo_buf.wr_ptr] = data;
    1b72:	ef e5       	ldi	r30, 0x5F	; 95
    1b74:	f0 e2       	ldi	r31, 0x20	; 32
    1b76:	a2 81       	ldd	r26, Z+2	; 0x02
    1b78:	b3 81       	ldd	r27, Z+3	; 0x03
    1b7a:	a1 5a       	subi	r26, 0xA1	; 161
    1b7c:	bf 4d       	sbci	r27, 0xDF	; 223
    1b7e:	16 96       	adiw	r26, 0x06	; 6
    1b80:	8c 93       	st	X, r24
	fifo_buf.wr_ptr = (fifo_buf.wr_ptr + 1) % CFG_UART_BUFSIZE;
    1b82:	82 81       	ldd	r24, Z+2	; 0x02
    1b84:	93 81       	ldd	r25, Z+3	; 0x03
    1b86:	01 96       	adiw	r24, 0x01	; 1
    1b88:	8f 77       	andi	r24, 0x7F	; 127
    1b8a:	99 27       	eor	r25, r25
    1b8c:	82 83       	std	Z+2, r24	; 0x02
    1b8e:	93 83       	std	Z+3, r25	; 0x03
	fifo_buf.len++;
    1b90:	80 81       	ld	r24, Z
    1b92:	91 81       	ldd	r25, Z+1	; 0x01
    1b94:	01 96       	adiw	r24, 0x01	; 1
    1b96:	80 83       	st	Z, r24
    1b98:	91 83       	std	Z+1, r25	; 0x01
}
    1b9a:	08 95       	ret

00001b9c <__vector_58>:
+------------------------------------------------------------------------------
| Description : USART USART
+------------------------------------------------------------------------------
*/
ISR(USARTE0_RXC_vect)  
{
    1b9c:	1f 92       	push	r1
    1b9e:	0f 92       	push	r0
    1ba0:	0f b6       	in	r0, 0x3f	; 63
    1ba2:	0f 92       	push	r0
    1ba4:	11 24       	eor	r1, r1
    1ba6:	2f 93       	push	r18
    1ba8:	3f 93       	push	r19
    1baa:	4f 93       	push	r20
    1bac:	5f 93       	push	r21
    1bae:	6f 93       	push	r22
    1bb0:	7f 93       	push	r23
    1bb2:	8f 93       	push	r24
    1bb4:	9f 93       	push	r25
    1bb6:	af 93       	push	r26
    1bb8:	bf 93       	push	r27
    1bba:	ef 93       	push	r30
    1bbc:	ff 93       	push	r31
    fifo_buffer_input(USART_GetChar(&USART));	
    1bbe:	80 91 a0 0a 	lds	r24, 0x0AA0	; 0x800aa0 <__TEXT_REGION_LENGTH__+0x700aa0>
    1bc2:	d7 df       	rcall	.-82     	; 0x1b72 <fifo_buffer_input>
    1bc4:	ff 91       	pop	r31
    1bc6:	ef 91       	pop	r30
    1bc8:	bf 91       	pop	r27
    1bca:	af 91       	pop	r26
    1bcc:	9f 91       	pop	r25
    1bce:	8f 91       	pop	r24
    1bd0:	7f 91       	pop	r23
    1bd2:	6f 91       	pop	r22
    1bd4:	5f 91       	pop	r21
    1bd6:	4f 91       	pop	r20
    1bd8:	3f 91       	pop	r19
    1bda:	2f 91       	pop	r18
    1bdc:	0f 90       	pop	r0
    1bde:	0f be       	out	0x3f, r0	; 63
    1be0:	0f 90       	pop	r0
    1be2:	1f 90       	pop	r1
    1be4:	18 95       	reti

00001be6 <TerminalSendString>:
uint8_t TerminalBuffer[TERMINAL_BUFFER_SIZE];
TerminalStateEnum TerminalState = TERMINAL_UNINITIALIZED;
static uint8_t TerminalInitDelay = INIT_DELAY;

void TerminalSendString(const char* s) {
    CDC_Device_SendString(&TerminalHandle, s);
    1be6:	bc 01       	movw	r22, r24
    1be8:	8c e2       	ldi	r24, 0x2C	; 44
    1bea:	90 e2       	ldi	r25, 0x20	; 32
    1bec:	0c 94 94 2b 	jmp	0x5728	; 0x5728 <CDC_Device_SendString>

00001bf0 <TerminalSendStringP>:
}

void TerminalSendStringP(const char* s) {
    1bf0:	cf 93       	push	r28
    1bf2:	df 93       	push	r29
    1bf4:	ec 01       	movw	r28, r24
    char c;

    while( (c = pgm_read_byte(s++)) != '\0' ) {
    1bf6:	fe 01       	movw	r30, r28
    1bf8:	64 91       	lpm	r22, Z
    1bfa:	21 96       	adiw	r28, 0x01	; 1
    1bfc:	61 11       	cpse	r22, r1
    1bfe:	03 c0       	rjmp	.+6      	; 0x1c06 <TerminalSendStringP+0x16>
        TerminalSendChar(c);
    }
}
    1c00:	df 91       	pop	r29
    1c02:	cf 91       	pop	r28
    1c04:	08 95       	ret
void EVENT_USB_Device_Connect(void);
void EVENT_USB_Device_Disconnect(void);
void EVENT_USB_Device_ConfigurationChanged(void);
void EVENT_USB_Device_ControlRequest(void);

INLINE void TerminalSendChar(char c) { CDC_Device_SendByte(&TerminalHandle, c); }
    1c06:	8c e2       	ldi	r24, 0x2C	; 44
    1c08:	90 e2       	ldi	r25, 0x20	; 32
    1c0a:	0e 94 dc 2b 	call	0x57b8	; 0x57b8 <CDC_Device_SendByte>
    1c0e:	f3 cf       	rjmp	.-26     	; 0x1bf6 <TerminalSendStringP+0x6>

00001c10 <TerminalSendBlock>:
#endif



void TerminalSendBlock(const void* Buffer, uint16_t ByteCount)
{
    1c10:	ab 01       	movw	r20, r22
    CDC_Device_SendData(&TerminalHandle, Buffer, ByteCount);
    1c12:	bc 01       	movw	r22, r24
    1c14:	8c e2       	ldi	r24, 0x2C	; 44
    1c16:	90 e2       	ldi	r25, 0x20	; 32
    1c18:	0c 94 b8 2b 	jmp	0x5770	; 0x5770 <CDC_Device_SendData>

00001c1c <TerminalInit>:
    }
}

void TerminalInit(void)
{
    TERMINAL_VBUS_PORT.DIRCLR = TERMINAL_VBUS_MASK;
    1c1c:	80 e2       	ldi	r24, 0x20	; 32
    1c1e:	80 93 62 06 	sts	0x0662, r24	; 0x800662 <__TEXT_REGION_LENGTH__+0x700662>
}
    1c22:	08 95       	ret

00001c24 <TerminalTask>:

void TerminalTask(void)
{
    1c24:	cf 93       	push	r28
    1c26:	df 93       	push	r29
	CDC_Device_USBTask(&TerminalHandle);
    1c28:	8c e2       	ldi	r24, 0x2C	; 44
    1c2a:	90 e2       	ldi	r25, 0x20	; 32
    1c2c:	0e 94 47 2c 	call	0x588e	; 0x588e <CDC_Device_USBTask>
	USB_USBTask();
    1c30:	0e 94 56 27 	call	0x4eac	; 0x4eac <USB_USBTask>
    int16_t Byte = CDC_Device_ReceiveByte(&TerminalHandle);
    1c34:	8c e2       	ldi	r24, 0x2C	; 44
    1c36:	90 e2       	ldi	r25, 0x20	; 32
    1c38:	0e 94 62 2c 	call	0x58c4	; 0x58c4 <CDC_Device_ReceiveByte>
    1c3c:	ec 01       	movw	r28, r24
    if (Byte >= 0) {
    1c3e:	97 fd       	sbrc	r25, 7
    1c40:	07 c0       	rjmp	.+14     	; 0x1c50 <TerminalTask+0x2c>
        if (XModemProcessByte(Byte)) {
    1c42:	7d d3       	rcall	.+1786   	; 0x233e <XModemProcessByte>
    1c44:	81 11       	cpse	r24, r1
    1c46:	04 c0       	rjmp	.+8      	; 0x1c50 <TerminalTask+0x2c>
        } else if (CommandLineProcessByte(Byte)) {
    1c48:	8c 2f       	mov	r24, r28

    ProcessByte();
}
    1c4a:	df 91       	pop	r29
        } else if (CommandLineProcessByte(Byte)) {
    1c4c:	cf 91       	pop	r28
    1c4e:	03 c5       	rjmp	.+2566   	; 0x2656 <CommandLineProcessByte>
}
    1c50:	df 91       	pop	r29
    1c52:	cf 91       	pop	r28
    1c54:	08 95       	ret

00001c56 <TerminalTick>:
    switch(TerminalState) {
    1c56:	80 91 e5 20 	lds	r24, 0x20E5	; 0x8020e5 <TerminalState>
    1c5a:	81 30       	cpi	r24, 0x01	; 1
    1c5c:	91 f0       	breq	.+36     	; 0x1c82 <TerminalTick+0x2c>
    1c5e:	30 f0       	brcs	.+12     	; 0x1c6c <TerminalTick+0x16>
    1c60:	82 30       	cpi	r24, 0x02	; 2
    1c62:	d9 f0       	breq	.+54     	; 0x1c9a <TerminalTick+0x44>
    1c64:	83 30       	cpi	r24, 0x03	; 3
    1c66:	11 f1       	breq	.+68     	; 0x1cac <TerminalTick+0x56>

void TerminalTick(void)
{
	SenseVBus();

    XModemTick();
    1c68:	a7 d4       	rcall	.+2382   	; 0x25b8 <XModemTick>
    CommandLineTick();
    1c6a:	d6 c5       	rjmp	.+2988   	; 0x2818 <CommandLineTick>
    1c6c:	80 91 68 06 	lds	r24, 0x0668	; 0x800668 <__TEXT_REGION_LENGTH__+0x700668>
    	if (TERMINAL_VBUS_PORT.IN & TERMINAL_VBUS_MASK) {
    1c70:	85 ff       	sbrs	r24, 5
    1c72:	fa cf       	rjmp	.-12     	; 0x1c68 <TerminalTick+0x12>
    1c74:	84 e1       	ldi	r24, 0x14	; 20
    		TerminalInitDelay = INIT_DELAY;
    1c76:	80 93 2b 20 	sts	0x202B, r24	; 0x80202b <TerminalInitDelay>
    1c7a:	81 e0       	ldi	r24, 0x01	; 1
    		TerminalState = TERMINAL_INITIALIZING;
    1c7c:	80 93 e5 20 	sts	0x20E5, r24	; 0x8020e5 <TerminalState>
            TerminalState = TERMINAL_INITIALIZED;
    1c80:	f3 cf       	rjmp	.-26     	; 0x1c68 <TerminalTick+0x12>
    1c82:	80 91 2b 20 	lds	r24, 0x202B	; 0x80202b <TerminalInitDelay>
    	if (--TerminalInitDelay == 0) {
    1c86:	81 50       	subi	r24, 0x01	; 1
    1c88:	80 93 2b 20 	sts	0x202B, r24	; 0x80202b <TerminalInitDelay>
    1c8c:	81 11       	cpse	r24, r1
    1c8e:	ec cf       	rjmp	.-40     	; 0x1c68 <TerminalTick+0x12>
            SystemStartUSBClock();
    1c90:	1f d9       	rcall	.-3522   	; 0xed0 <SystemStartUSBClock>
    1c92:	0e 94 d0 2a 	call	0x55a0	; 0x55a0 <USB_Init>
            USB_Init();
    1c96:	82 e0       	ldi	r24, 0x02	; 2
            TerminalState = TERMINAL_INITIALIZED;
    1c98:	f1 cf       	rjmp	.-30     	; 0x1c7c <TerminalTick+0x26>
    1c9a:	80 91 68 06 	lds	r24, 0x0668	; 0x800668 <__TEXT_REGION_LENGTH__+0x700668>
    	if (!(TERMINAL_VBUS_PORT.IN & TERMINAL_VBUS_MASK)) {
    1c9e:	85 fd       	sbrc	r24, 5
    1ca0:	e3 cf       	rjmp	.-58     	; 0x1c68 <TerminalTick+0x12>
    1ca2:	84 e1       	ldi	r24, 0x14	; 20
    		TerminalInitDelay = INIT_DELAY;
    1ca4:	80 93 2b 20 	sts	0x202B, r24	; 0x80202b <TerminalInitDelay>
    1ca8:	83 e0       	ldi	r24, 0x03	; 3
    		TerminalState = TERMINAL_UNITIALIZING;
    1caa:	e8 cf       	rjmp	.-48     	; 0x1c7c <TerminalTick+0x26>
    1cac:	80 91 2b 20 	lds	r24, 0x202B	; 0x80202b <TerminalInitDelay>
    	if (--TerminalInitDelay == 0) {
    1cb0:	81 50       	subi	r24, 0x01	; 1
    1cb2:	80 93 2b 20 	sts	0x202B, r24	; 0x80202b <TerminalInitDelay>
    1cb6:	81 11       	cpse	r24, r1
    1cb8:	d7 cf       	rjmp	.-82     	; 0x1c68 <TerminalTick+0x12>
        	USB_Disable();
    1cba:	0e 94 95 2a 	call	0x552a	; 0x552a <USB_Disable>
        	SystemStopUSBClock();
    1cbe:	21 d9       	rcall	.-3518   	; 0xf02 <SystemStopUSBClock>
    1cc0:	10 92 e5 20 	sts	0x20E5, r1	; 0x8020e5 <TerminalState>
        	TerminalState = TERMINAL_UNINITIALIZED;
    1cc4:	d1 cf       	rjmp	.-94     	; 0x1c68 <TerminalTick+0x12>

00001cc6 <EVENT_USB_Device_Connect>:
    1cc6:	08 95       	ret

00001cc8 <EVENT_USB_Device_Disconnect>:
    1cc8:	08 95       	ret

00001cca <EVENT_USB_Device_ConfigurationChanged>:


/** Event handler for the library USB Configuration Changed event. */
void EVENT_USB_Device_ConfigurationChanged(void)
{
    CDC_Device_ConfigureEndpoints(&TerminalHandle);
    1cca:	8c e2       	ldi	r24, 0x2C	; 44
    1ccc:	90 e2       	ldi	r25, 0x20	; 32
    1cce:	0c 94 6f 2b 	jmp	0x56de	; 0x56de <CDC_Device_ConfigureEndpoints>

00001cd2 <EVENT_USB_Device_ControlRequest>:
}

/** Event handler for the library USB Control Request reception event. */
void EVENT_USB_Device_ControlRequest(void)
{
    CDC_Device_ProcessControlRequest(&TerminalHandle);
    1cd2:	8c e2       	ldi	r24, 0x2C	; 44
    1cd4:	90 e2       	ldi	r25, 0x20	; 32
    1cd6:	0c 94 b5 2c 	jmp	0x596a	; 0x596a <CDC_Device_ProcessControlRequest>

00001cda <CommandGetVersion>:
#include "../Application/MifareUltralight.h"

extern const PROGMEM CommandEntryType CommandTable[];

CommandStatusIdType CommandGetVersion(char* OutParam) {
	snprintf_P(OutParam, TERMINAL_BUFFER_SIZE, PSTR("Chameleon-new-1.0"));
    1cda:	2d e2       	ldi	r18, 0x2D	; 45
    1cdc:	38 e0       	ldi	r19, 0x08	; 8
    1cde:	3f 93       	push	r19
    1ce0:	2f 93       	push	r18
    1ce2:	21 e0       	ldi	r18, 0x01	; 1
    1ce4:	2f 93       	push	r18
    1ce6:	1f 92       	push	r1
    1ce8:	9f 93       	push	r25
    1cea:	8f 93       	push	r24
    1cec:	0e 94 55 2e 	call	0x5caa	; 0x5caa <snprintf_P>
	return COMMAND_INFO_OK_WITH_TEXT_ID;
    1cf0:	0f 90       	pop	r0
    1cf2:	0f 90       	pop	r0
    1cf4:	0f 90       	pop	r0
    1cf6:	0f 90       	pop	r0
    1cf8:	0f 90       	pop	r0
    1cfa:	0f 90       	pop	r0
}
    1cfc:	85 e6       	ldi	r24, 0x65	; 101
    1cfe:	08 95       	ret

00001d00 <CommandGetConfig>:

CommandStatusIdType CommandGetConfig(char* OutParam) {
	ConfigurationGetByName(OutParam, TERMINAL_BUFFER_SIZE);
    1d00:	60 e0       	ldi	r22, 0x00	; 0
    1d02:	71 e0       	ldi	r23, 0x01	; 1
    1d04:	3f d9       	rcall	.-3458   	; 0xf84 <ConfigurationGetByName>
	return COMMAND_INFO_OK_WITH_TEXT_ID;
}
    1d06:	85 e6       	ldi	r24, 0x65	; 101
    1d08:	08 95       	ret

00001d0a <CommandSetConfig>:

CommandStatusIdType CommandSetConfig(char* OutMessage, const char* InParam) {
    1d0a:	cb 01       	movw	r24, r22
	if (ConfigurationSetByName(InParam)) {
    1d0c:	4b d9       	rcall	.-3434   	; 0xfa4 <ConfigurationSetByName>
    1d0e:	88 23       	and	r24, r24
    1d10:	19 f0       	breq	.+6      	; 0x1d18 <CommandSetConfig+0xe>
		SettingsSave();
    1d12:	79 de       	rcall	.-782    	; 0x1a06 <SettingsSave>
    1d14:	84 e6       	ldi	r24, 0x64	; 100
		return COMMAND_INFO_OK_ID;
    1d16:	08 95       	ret
    1d18:	8a ec       	ldi	r24, 0xCA	; 202
	} else {
		return COMMAND_ERR_INVALID_PARAM_ID;
    1d1a:	08 95       	ret

00001d1c <CommandExecConfig>:
	}
}
    1d1c:	60 e0       	ldi	r22, 0x00	; 0

CommandStatusIdType CommandExecConfig(char* OutMessage) {
  ConfigurationGetList(OutMessage, TERMINAL_BUFFER_SIZE);
    1d1e:	71 e0       	ldi	r23, 0x01	; 1
    1d20:	62 d9       	rcall	.-3388   	; 0xfe6 <ConfigurationGetList>
  return COMMAND_INFO_OK_WITH_TEXT_ID;
}
    1d22:	85 e6       	ldi	r24, 0x65	; 101
    1d24:	08 95       	ret

00001d26 <CommandGetUid>:

CommandStatusIdType CommandGetUid(char* OutParam) {
    1d26:	ef 92       	push	r14
    1d28:	ff 92       	push	r15
    1d2a:	0f 93       	push	r16
    1d2c:	1f 93       	push	r17
    1d2e:	cf 93       	push	r28
    1d30:	df 93       	push	r29
    1d32:	cd b7       	in	r28, 0x3d	; 61
    1d34:	de b7       	in	r29, 0x3e	; 62
    1d36:	a0 97       	sbiw	r28, 0x20	; 32
    1d38:	cd bf       	out	0x3d, r28	; 61
    1d3a:	de bf       	out	0x3e, r29	; 62
    1d3c:	7c 01       	movw	r14, r24
  uint8_t UidBuffer[COMMAND_UID_BUFSIZE];
  uint16_t UidSize = ActiveConfiguration.UidSize;
    1d3e:	ea e4       	ldi	r30, 0x4A	; 74
    1d40:	f1 e2       	ldi	r31, 0x21	; 33
    1d42:	06 89       	ldd	r16, Z+22	; 0x16
    1d44:	10 e0       	ldi	r17, 0x00	; 0
INLINE void ApplicationReset(void) {
    ActiveConfiguration.ApplicationResetFunc();
}

INLINE void ApplicationGetUid(ConfigurationUidType Uid) {
    ActiveConfiguration.ApplicationGetUidFunc(Uid);
    1d46:	00 88       	ldd	r0, Z+16	; 0x10
    1d48:	f1 89       	ldd	r31, Z+17	; 0x11
    1d4a:	e0 2d       	mov	r30, r0
    1d4c:	ce 01       	movw	r24, r28
    1d4e:	01 96       	adiw	r24, 0x01	; 1
    1d50:	09 95       	icall

  ApplicationGetUid(UidBuffer);
  BufferToHexString(OutParam, TERMINAL_BUFFER_SIZE, UidBuffer, UidSize);
    1d52:	98 01       	movw	r18, r16
    1d54:	ae 01       	movw	r20, r28
    1d56:	4f 5f       	subi	r20, 0xFF	; 255
    1d58:	5f 4f       	sbci	r21, 0xFF	; 255
    1d5a:	60 e0       	ldi	r22, 0x00	; 0
    1d5c:	71 e0       	ldi	r23, 0x01	; 1
    1d5e:	c7 01       	movw	r24, r14
    1d60:	65 d9       	rcall	.-3382   	; 0x102c <BufferToHexString>
  return COMMAND_INFO_OK_WITH_TEXT_ID;
}
    1d62:	85 e6       	ldi	r24, 0x65	; 101
    1d64:	a0 96       	adiw	r28, 0x20	; 32
    1d66:	cd bf       	out	0x3d, r28	; 61
    1d68:	de bf       	out	0x3e, r29	; 62
    1d6a:	df 91       	pop	r29
    1d6c:	cf 91       	pop	r28
    1d6e:	1f 91       	pop	r17
    1d70:	0f 91       	pop	r16
    1d72:	ff 90       	pop	r15
    1d74:	ef 90       	pop	r14
    1d76:	08 95       	ret

00001d78 <CommandSetUid>:

CommandStatusIdType CommandSetUid(char* OutMessage, const char* InParam) {
    1d78:	df 92       	push	r13
    1d7a:	ef 92       	push	r14
    1d7c:	ff 92       	push	r15
    1d7e:	0f 93       	push	r16
    1d80:	1f 93       	push	r17
    1d82:	cf 93       	push	r28
    1d84:	df 93       	push	r29
    1d86:	cd b7       	in	r28, 0x3d	; 61
    1d88:	de b7       	in	r29, 0x3e	; 62
    1d8a:	a0 97       	sbiw	r28, 0x20	; 32
    1d8c:	cd bf       	out	0x3d, r28	; 61
    1d8e:	de bf       	out	0x3e, r29	; 62
    1d90:	7b 01       	movw	r14, r22
  uint8_t UidBuffer[COMMAND_UID_BUFSIZE];
  uint16_t UidSize = ActiveConfiguration.UidSize;
    1d92:	d0 90 60 21 	lds	r13, 0x2160	; 0x802160 <ActiveConfiguration+0x16>

  if (strcmp_P(InParam, PSTR(COMMAND_UID_RANDOM)) == 0) {
    1d96:	64 e2       	ldi	r22, 0x24	; 36
    1d98:	78 e0       	ldi	r23, 0x08	; 8
    1d9a:	c7 01       	movw	r24, r14
    1d9c:	0e 94 20 2e 	call	0x5c40	; 0x5c40 <strcmp_P>
    1da0:	8e 01       	movw	r16, r28
    1da2:	0f 5f       	subi	r16, 0xFF	; 255
    1da4:	1f 4f       	sbci	r17, 0xFF	; 255
    1da6:	89 2b       	or	r24, r25
    1da8:	e1 f4       	brne	.+56     	; 0x1de2 <CommandSetUid+0x6a>
    1daa:	78 01       	movw	r14, r16
    /* Load with random bytes */
    for (uint8_t i=0; i<UidSize; i++) {
    1dac:	8e 2d       	mov	r24, r14
    1dae:	80 1b       	sub	r24, r16
    1db0:	8d 15       	cp	r24, r13
    1db2:	90 f0       	brcs	.+36     	; 0x1dd8 <CommandSetUid+0x60>
}

INLINE void ApplicationSetUid(ConfigurationUidType Uid) {
    ActiveConfiguration.ApplicationSetUidFunc(Uid);
    1db4:	e0 91 5c 21 	lds	r30, 0x215C	; 0x80215c <ActiveConfiguration+0x12>
    1db8:	f0 91 5d 21 	lds	r31, 0x215D	; 0x80215d <ActiveConfiguration+0x13>
    1dbc:	c8 01       	movw	r24, r16
    1dbe:	09 95       	icall
      return COMMAND_ERR_INVALID_PARAM_ID;
    }
  }

  ApplicationSetUid(UidBuffer);
  return COMMAND_INFO_OK_ID;
    1dc0:	84 e6       	ldi	r24, 0x64	; 100
}
    1dc2:	a0 96       	adiw	r28, 0x20	; 32
    1dc4:	cd bf       	out	0x3d, r28	; 61
    1dc6:	de bf       	out	0x3e, r29	; 62
    1dc8:	df 91       	pop	r29
    1dca:	cf 91       	pop	r28
    1dcc:	1f 91       	pop	r17
    1dce:	0f 91       	pop	r16
    1dd0:	ff 90       	pop	r15
    1dd2:	ef 90       	pop	r14
    1dd4:	df 90       	pop	r13
    1dd6:	08 95       	ret
      UidBuffer[i] = RandomGetByte();
    1dd8:	0d d9       	rcall	.-3558   	; 0xff4 <RandomGetByte>
    1dda:	f7 01       	movw	r30, r14
    1ddc:	81 93       	st	Z+, r24
    1dde:	7f 01       	movw	r14, r30
    1de0:	e5 cf       	rjmp	.-54     	; 0x1dac <CommandSetUid+0x34>
    if (HexStringToBuffer(UidBuffer, sizeof(UidBuffer), InParam) != UidSize) {
    1de2:	a7 01       	movw	r20, r14
    1de4:	60 e2       	ldi	r22, 0x20	; 32
    1de6:	70 e0       	ldi	r23, 0x00	; 0
    1de8:	c8 01       	movw	r24, r16
    1dea:	4b d9       	rcall	.-3434   	; 0x1082 <HexStringToBuffer>
    1dec:	d8 16       	cp	r13, r24
    1dee:	19 06       	cpc	r1, r25
    1df0:	09 f3       	breq	.-62     	; 0x1db4 <CommandSetUid+0x3c>
      return COMMAND_ERR_INVALID_PARAM_ID;
    1df2:	8a ec       	ldi	r24, 0xCA	; 202
    1df4:	e6 cf       	rjmp	.-52     	; 0x1dc2 <CommandSetUid+0x4a>

00001df6 <CommandGetReadOnly>:

CommandStatusIdType CommandGetReadOnly(char* OutParam)
{
    1df6:	fc 01       	movw	r30, r24
  if (ActiveConfiguration.ReadOnly) {
    1df8:	80 91 61 21 	lds	r24, 0x2161	; 0x802161 <ActiveConfiguration+0x17>
    1dfc:	88 23       	and	r24, r24
    1dfe:	29 f0       	breq	.+10     	; 0x1e0a <CommandGetReadOnly+0x14>
    OutParam[0] = COMMAND_CHAR_TRUE;
    1e00:	81 e3       	ldi	r24, 0x31	; 49
  } else {
    OutParam[0] = COMMAND_CHAR_FALSE;
    1e02:	80 83       	st	Z, r24
  }

  OutParam[1] = '\0';
    1e04:	11 82       	std	Z+1, r1	; 0x01

  return COMMAND_INFO_OK_WITH_TEXT_ID;
}
    1e06:	85 e6       	ldi	r24, 0x65	; 101
    1e08:	08 95       	ret
    OutParam[0] = COMMAND_CHAR_FALSE;
    1e0a:	80 e3       	ldi	r24, 0x30	; 48
    1e0c:	fa cf       	rjmp	.-12     	; 0x1e02 <CommandGetReadOnly+0xc>

00001e0e <CommandSetReadOnly>:

CommandStatusIdType CommandSetReadOnly(char* OutMessage, const char* InParam)
{
  if (InParam[1] == '\0') {
    1e0e:	fb 01       	movw	r30, r22
    1e10:	81 81       	ldd	r24, Z+1	; 0x01
    1e12:	81 11       	cpse	r24, r1
    1e14:	0d c0       	rjmp	.+26     	; 0x1e30 <CommandSetReadOnly+0x22>
    if (InParam[0] == COMMAND_CHAR_TRUE) {
    1e16:	80 81       	ld	r24, Z
    1e18:	81 33       	cpi	r24, 0x31	; 49
    1e1a:	29 f4       	brne	.+10     	; 0x1e26 <CommandSetReadOnly+0x18>
      ActiveConfiguration.ReadOnly = true;
    1e1c:	81 e0       	ldi	r24, 0x01	; 1
    1e1e:	80 93 61 21 	sts	0x2161, r24	; 0x802161 <ActiveConfiguration+0x17>
      return COMMAND_INFO_OK_ID;
    } else if (InParam[0] == COMMAND_CHAR_FALSE) {
      ActiveConfiguration.ReadOnly = false;
      return COMMAND_INFO_OK_ID;
    1e22:	84 e6       	ldi	r24, 0x64	; 100
    1e24:	08 95       	ret
    } else if (InParam[0] == COMMAND_CHAR_FALSE) {
    1e26:	80 33       	cpi	r24, 0x30	; 48
    1e28:	19 f4       	brne	.+6      	; 0x1e30 <CommandSetReadOnly+0x22>
      ActiveConfiguration.ReadOnly = false;
    1e2a:	10 92 61 21 	sts	0x2161, r1	; 0x802161 <ActiveConfiguration+0x17>
    1e2e:	f9 cf       	rjmp	.-14     	; 0x1e22 <CommandSetReadOnly+0x14>
    }
  }

  return COMMAND_ERR_INVALID_PARAM_ID;
    1e30:	8a ec       	ldi	r24, 0xCA	; 202
}
    1e32:	08 95       	ret

00001e34 <CommandExecUpload>:

CommandStatusIdType CommandExecUpload(char* OutMessage) {
    XModemReceive(MemoryUploadBlock);
    1e34:	83 e5       	ldi	r24, 0x53	; 83
    1e36:	9b e0       	ldi	r25, 0x0B	; 11
    1e38:	51 d2       	rcall	.+1186   	; 0x22dc <XModemReceive>
    return COMMAND_INFO_XMODEM_WAIT_ID;
}
    1e3a:	8e e6       	ldi	r24, 0x6E	; 110
    1e3c:	08 95       	ret

00001e3e <CommandExecDownload>:

CommandStatusIdType CommandExecDownload(char* OutMessage) {
    XModemSend(MemoryDownloadBlock);
    1e3e:	8e e6       	ldi	r24, 0x6E	; 110
    1e40:	9b e0       	ldi	r25, 0x0B	; 11
    1e42:	67 d2       	rcall	.+1230   	; 0x2312 <XModemSend>
    return COMMAND_INFO_XMODEM_WAIT_ID;
}
    1e44:	8e e6       	ldi	r24, 0x6E	; 110
    1e46:	08 95       	ret

00001e48 <CommandExecReset>:
			 *  enumerating the device once attached until \ref USB_Attach() is called.
			 */
			static inline void USB_Detach(void) ATTR_ALWAYS_INLINE;
			static inline void USB_Detach(void)
			{
				USB.CTRLB &= ~USB_ATTACH_bm;
    1e48:	e0 ec       	ldi	r30, 0xC0	; 192
    1e4a:	f4 e0       	ldi	r31, 0x04	; 4
    1e4c:	81 81       	ldd	r24, Z+1	; 0x01
    1e4e:	8e 7f       	andi	r24, 0xFE	; 254
    1e50:	81 83       	std	Z+1, r24	; 0x01

CommandStatusIdType CommandExecReset(char* OutMessage) {
	USB_Detach();
	USB_Disable();
    1e52:	0e 94 95 2a 	call	0x552a	; 0x552a <USB_Disable>
	SystemReset();
    1e56:	30 d8       	rcall	.-4000   	; 0xeb8 <SystemReset>
	return COMMAND_INFO_OK_ID;
}
    1e58:	84 e6       	ldi	r24, 0x64	; 100
    1e5a:	08 95       	ret

00001e5c <CommandExecUpgrade>:
    1e5c:	e0 ec       	ldi	r30, 0xC0	; 192
    1e5e:	f4 e0       	ldi	r31, 0x04	; 4
    1e60:	81 81       	ldd	r24, Z+1	; 0x01
    1e62:	8e 7f       	andi	r24, 0xFE	; 254
    1e64:	81 83       	std	Z+1, r24	; 0x01

#ifdef SUPPORT_FIRMWARE_UPGRADE
CommandStatusIdType CommandExecUpgrade(char* OutMessage) {
	USB_Detach();
	USB_Disable();
    1e66:	0e 94 95 2a 	call	0x552a	; 0x552a <USB_Disable>
	SystemEnterBootloader();
    1e6a:	2c d8       	rcall	.-4008   	; 0xec4 <SystemEnterBootloader>
	return COMMAND_INFO_OK_ID;
}
    1e6c:	84 e6       	ldi	r24, 0x64	; 100
    1e6e:	08 95       	ret

00001e70 <CommandGetMemSize>:
#endif

CommandStatusIdType CommandGetMemSize(char* OutParam) {
	snprintf_P(OutParam, TERMINAL_BUFFER_SIZE, PSTR("%u"), ActiveConfiguration.MemorySize);
    1e70:	ea e4       	ldi	r30, 0x4A	; 74
    1e72:	f1 e2       	ldi	r31, 0x21	; 33
    1e74:	25 89       	ldd	r18, Z+21	; 0x15
    1e76:	2f 93       	push	r18
    1e78:	24 89       	ldd	r18, Z+20	; 0x14
    1e7a:	2f 93       	push	r18
    1e7c:	21 e2       	ldi	r18, 0x21	; 33
    1e7e:	38 e0       	ldi	r19, 0x08	; 8
    1e80:	3f 93       	push	r19
    1e82:	2f 93       	push	r18
    1e84:	21 e0       	ldi	r18, 0x01	; 1
    1e86:	2f 93       	push	r18
    1e88:	1f 92       	push	r1
    1e8a:	9f 93       	push	r25
    1e8c:	8f 93       	push	r24
    1e8e:	0e 94 55 2e 	call	0x5caa	; 0x5caa <snprintf_P>
	return COMMAND_INFO_OK_WITH_TEXT_ID;
    1e92:	8d b7       	in	r24, 0x3d	; 61
    1e94:	9e b7       	in	r25, 0x3e	; 62
    1e96:	08 96       	adiw	r24, 0x08	; 8
    1e98:	8d bf       	out	0x3d, r24	; 61
    1e9a:	9e bf       	out	0x3e, r25	; 62
}
    1e9c:	85 e6       	ldi	r24, 0x65	; 101
    1e9e:	08 95       	ret

00001ea0 <CommandGetUidSize>:

CommandStatusIdType CommandGetUidSize(char* OutParam) {
    snprintf_P(OutParam, TERMINAL_BUFFER_SIZE, PSTR("%u"), ActiveConfiguration.UidSize);
    1ea0:	20 91 60 21 	lds	r18, 0x2160	; 0x802160 <ActiveConfiguration+0x16>
    1ea4:	1f 92       	push	r1
    1ea6:	2f 93       	push	r18
    1ea8:	2e e1       	ldi	r18, 0x1E	; 30
    1eaa:	38 e0       	ldi	r19, 0x08	; 8
    1eac:	3f 93       	push	r19
    1eae:	2f 93       	push	r18
    1eb0:	21 e0       	ldi	r18, 0x01	; 1
    1eb2:	2f 93       	push	r18
    1eb4:	1f 92       	push	r1
    1eb6:	9f 93       	push	r25
    1eb8:	8f 93       	push	r24
    1eba:	0e 94 55 2e 	call	0x5caa	; 0x5caa <snprintf_P>
    return COMMAND_INFO_OK_WITH_TEXT_ID;
    1ebe:	8d b7       	in	r24, 0x3d	; 61
    1ec0:	9e b7       	in	r25, 0x3e	; 62
    1ec2:	08 96       	adiw	r24, 0x08	; 8
    1ec4:	8d bf       	out	0x3d, r24	; 61
    1ec6:	9e bf       	out	0x3e, r25	; 62
}
    1ec8:	85 e6       	ldi	r24, 0x65	; 101
    1eca:	08 95       	ret

00001ecc <CommandExecButton>:

CommandStatusIdType CommandExecButton(char* OutMessage)
{
	ButtonGetActionList(OutMessage, TERMINAL_BUFFER_SIZE);
    1ecc:	60 e0       	ldi	r22, 0x00	; 0
    1ece:	71 e0       	ldi	r23, 0x01	; 1
    1ed0:	19 dd       	rcall	.-1486   	; 0x1904 <ButtonGetActionList>
	return COMMAND_INFO_OK_WITH_TEXT_ID;
}
    1ed2:	85 e6       	ldi	r24, 0x65	; 101
    1ed4:	08 95       	ret

00001ed6 <CommandGetButton>:

CommandStatusIdType CommandGetButton(char* OutParam)
{
	ButtonGetActionByName(BUTTON_PRESS_SHORT, OutParam, TERMINAL_BUFFER_SIZE);
    1ed6:	40 e0       	ldi	r20, 0x00	; 0
    1ed8:	51 e0       	ldi	r21, 0x01	; 1
    1eda:	bc 01       	movw	r22, r24
    1edc:	80 e0       	ldi	r24, 0x00	; 0
    1ede:	48 dd       	rcall	.-1392   	; 0x1970 <ButtonGetActionByName>
	return COMMAND_INFO_OK_WITH_TEXT_ID;
}
    1ee0:	85 e6       	ldi	r24, 0x65	; 101
    1ee2:	08 95       	ret

00001ee4 <CommandSetButton>:

CommandStatusIdType CommandSetButton(char* OutMessage, const char* InParam)
{
	if (ButtonSetActionByName(BUTTON_PRESS_SHORT, InParam)) {
    1ee4:	80 e0       	ldi	r24, 0x00	; 0
    1ee6:	64 dd       	rcall	.-1336   	; 0x19b0 <ButtonSetActionByName>
    1ee8:	88 23       	and	r24, r24
    1eea:	19 f0       	breq	.+6      	; 0x1ef2 <CommandSetButton+0xe>
		SettingsSave();
    1eec:	8c dd       	rcall	.-1256   	; 0x1a06 <SettingsSave>
    1eee:	84 e6       	ldi	r24, 0x64	; 100
		return COMMAND_INFO_OK_ID;
    1ef0:	08 95       	ret
    1ef2:	8a ec       	ldi	r24, 0xCA	; 202
		} else {
		return COMMAND_ERR_INVALID_PARAM_ID;
    1ef4:	08 95       	ret

00001ef6 <CommandExecButtonLong>:
	}
}
    1ef6:	60 e0       	ldi	r22, 0x00	; 0
    1ef8:	71 e0       	ldi	r23, 0x01	; 1
    1efa:	04 dd       	rcall	.-1528   	; 0x1904 <ButtonGetActionList>
    1efc:	85 e6       	ldi	r24, 0x65	; 101
    1efe:	08 95       	ret

00001f00 <CommandGetButtonLong>:
	return COMMAND_INFO_OK_WITH_TEXT_ID;
}

CommandStatusIdType CommandGetButtonLong(char* OutParam)
{
	ButtonGetActionByName(BUTTON_PRESS_LONG, OutParam, TERMINAL_BUFFER_SIZE);
    1f00:	40 e0       	ldi	r20, 0x00	; 0
    1f02:	51 e0       	ldi	r21, 0x01	; 1
    1f04:	bc 01       	movw	r22, r24
    1f06:	81 e0       	ldi	r24, 0x01	; 1
    1f08:	33 dd       	rcall	.-1434   	; 0x1970 <ButtonGetActionByName>
	return COMMAND_INFO_OK_WITH_TEXT_ID;
}
    1f0a:	85 e6       	ldi	r24, 0x65	; 101
    1f0c:	08 95       	ret

00001f0e <CommandSetButtonLong>:

CommandStatusIdType CommandSetButtonLong(char* OutMessage, const char* InParam)
{
	if (ButtonSetActionByName(BUTTON_PRESS_LONG, InParam)) {
    1f0e:	81 e0       	ldi	r24, 0x01	; 1
    1f10:	4f dd       	rcall	.-1378   	; 0x19b0 <ButtonSetActionByName>
    1f12:	88 23       	and	r24, r24
    1f14:	19 f0       	breq	.+6      	; 0x1f1c <CommandSetButtonLong+0xe>
		SettingsSave();
    1f16:	77 dd       	rcall	.-1298   	; 0x1a06 <SettingsSave>
    1f18:	84 e6       	ldi	r24, 0x64	; 100
		return COMMAND_INFO_OK_ID;
    1f1a:	08 95       	ret
    1f1c:	8a ec       	ldi	r24, 0xCA	; 202
		} else {
		return COMMAND_ERR_INVALID_PARAM_ID;
    1f1e:	08 95       	ret

00001f20 <CommandGetSetting>:
	}
}
    1f20:	60 e0       	ldi	r22, 0x00	; 0

CommandStatusIdType CommandGetSetting(char* OutParam) {
	SettingsGetActiveByName(OutParam, TERMINAL_BUFFER_SIZE);
    1f22:	71 e0       	ldi	r23, 0x01	; 1
    1f24:	a9 dd       	rcall	.-1198   	; 0x1a78 <SettingsGetActiveByName>
	return COMMAND_INFO_OK_WITH_TEXT_ID;
}
    1f26:	85 e6       	ldi	r24, 0x65	; 101
    1f28:	08 95       	ret

00001f2a <CommandSetSetting>:

CommandStatusIdType CommandSetSetting(char* OutMessage, const char* InParam) {
    1f2a:	cb 01       	movw	r24, r22
	if (SettingsSetActiveByName(InParam)) {
    1f2c:	b2 dd       	rcall	.-1180   	; 0x1a92 <SettingsSetActiveByName>
    1f2e:	88 23       	and	r24, r24
    1f30:	19 f0       	breq	.+6      	; 0x1f38 <CommandSetSetting+0xe>
		SettingsSave();
    1f32:	69 dd       	rcall	.-1326   	; 0x1a06 <SettingsSave>
    1f34:	84 e6       	ldi	r24, 0x64	; 100
		return COMMAND_INFO_OK_ID;
    1f36:	08 95       	ret
    1f38:	8a ec       	ldi	r24, 0xCA	; 202
	} else {
		return COMMAND_ERR_INVALID_PARAM_ID;
    1f3a:	08 95       	ret

00001f3c <CommandExecClear>:
	}
}
    1f3c:	53 db       	rcall	.-2394   	; 0x15e4 <MemoryClear>

CommandStatusIdType CommandExecClear(char* OutParam) {
	MemoryClear();
	return COMMAND_INFO_OK_ID;
}
    1f3e:	84 e6       	ldi	r24, 0x64	; 100
    1f40:	08 95       	ret

00001f42 <CommandExecHelp>:

CommandStatusIdType CommandExecHelp(char* OutMessage) {
    1f42:	df 92       	push	r13
    1f44:	ef 92       	push	r14
    1f46:	ff 92       	push	r15
    1f48:	0f 93       	push	r16
    1f4a:	1f 93       	push	r17
    1f4c:	cf 93       	push	r28
    1f4e:	df 93       	push	r29
    1f50:	ec 01       	movw	r28, r24
    const CommandEntryType* EntryPtr = CommandTable;
    uint16_t ByteCount = TERMINAL_BUFFER_SIZE - 1; /* Account for '\0' */
    1f52:	0f ef       	ldi	r16, 0xFF	; 255
    1f54:	10 e0       	ldi	r17, 0x00	; 0
    const CommandEntryType* EntryPtr = CommandTable;
    1f56:	87 e1       	ldi	r24, 0x17	; 23
    1f58:	e8 2e       	mov	r14, r24
    1f5a:	89 e0       	ldi	r24, 0x09	; 9
    1f5c:	f8 2e       	mov	r15, r24
            *OutMessage++ = c;
            CommandName++;
            ByteCount--;
        }

        *OutMessage++ = ',';
    1f5e:	9c e2       	ldi	r25, 0x2C	; 44
    1f60:	d9 2e       	mov	r13, r25
    while(strcmp_P(COMMAND_LIST_END, EntryPtr->Command) != 0) {
    1f62:	b7 01       	movw	r22, r14
    1f64:	8b e5       	ldi	r24, 0x5B	; 91
    1f66:	90 e2       	ldi	r25, 0x20	; 32
    1f68:	0e 94 20 2e 	call	0x5c40	; 0x5c40 <strcmp_P>
    1f6c:	89 2b       	or	r24, r25
    1f6e:	b1 f0       	breq	.+44     	; 0x1f9c <CommandExecHelp+0x5a>
    1f70:	ce 01       	movw	r24, r28
        const char* CommandName = EntryPtr->Command;
    1f72:	f7 01       	movw	r30, r14
    1f74:	02 c0       	rjmp	.+4      	; 0x1f7a <CommandExecHelp+0x38>
            *OutMessage++ = c;
    1f76:	4c 93       	st	X, r20
            CommandName++;
    1f78:	31 96       	adiw	r30, 0x01	; 1
    1f7a:	98 01       	movw	r18, r16
    1f7c:	dc 01       	movw	r26, r24
        while( (c = pgm_read_byte(CommandName)) != '\0' && ByteCount > 32) {
    1f7e:	44 91       	lpm	r20, Z
    1f80:	01 96       	adiw	r24, 0x01	; 1
    1f82:	ec 01       	movw	r28, r24
    1f84:	01 50       	subi	r16, 0x01	; 1
    1f86:	11 09       	sbc	r17, r1
    1f88:	44 23       	and	r20, r20
    1f8a:	19 f0       	breq	.+6      	; 0x1f92 <CommandExecHelp+0x50>
    1f8c:	21 32       	cpi	r18, 0x21	; 33
    1f8e:	31 05       	cpc	r19, r1
    1f90:	90 f7       	brcc	.-28     	; 0x1f76 <CommandExecHelp+0x34>
        *OutMessage++ = ',';
    1f92:	dc 92       	st	X, r13
        ByteCount--;

        EntryPtr++;
    1f94:	88 e1       	ldi	r24, 0x18	; 24
    1f96:	e8 0e       	add	r14, r24
    1f98:	f1 1c       	adc	r15, r1
    1f9a:	e3 cf       	rjmp	.-58     	; 0x1f62 <CommandExecHelp+0x20>
    }

    *--OutMessage = '\0';
    1f9c:	21 97       	sbiw	r28, 0x01	; 1
    1f9e:	18 82       	st	Y, r1

    return COMMAND_INFO_OK_WITH_TEXT_ID;
}
    1fa0:	85 e6       	ldi	r24, 0x65	; 101
    1fa2:	df 91       	pop	r29
    1fa4:	cf 91       	pop	r28
    1fa6:	1f 91       	pop	r17
    1fa8:	0f 91       	pop	r16
    1faa:	ff 90       	pop	r15
    1fac:	ef 90       	pop	r14
    1fae:	df 90       	pop	r13
    1fb0:	08 95       	ret

00001fb2 <CommandGetRssi>:

CommandStatusIdType CommandGetRssi(char* OutParam) {
    1fb2:	fc 01       	movw	r30, r24

}

static inline uint16_t AntennaLevelGet(void)
{
	ADCA.CH0.CTRL |= ADC_CH_START_bm;
    1fb4:	80 91 20 02 	lds	r24, 0x0220	; 0x800220 <__TEXT_REGION_LENGTH__+0x700220>
    1fb8:	80 68       	ori	r24, 0x80	; 128
    1fba:	80 93 20 02 	sts	0x0220, r24	; 0x800220 <__TEXT_REGION_LENGTH__+0x700220>
	while( !(ADCA.CH0.INTFLAGS & ADC_CH_CHIF_bm) );
    1fbe:	80 91 23 02 	lds	r24, 0x0223	; 0x800223 <__TEXT_REGION_LENGTH__+0x700223>
    1fc2:	80 ff       	sbrs	r24, 0
    1fc4:	fc cf       	rjmp	.-8      	; 0x1fbe <CommandGetRssi+0xc>

	ADCA.CH0.INTFLAGS = ADC_CH_CHIF_bm;
    1fc6:	81 e0       	ldi	r24, 0x01	; 1
    1fc8:	80 93 23 02 	sts	0x0223, r24	; 0x800223 <__TEXT_REGION_LENGTH__+0x700223>

	int16_t Result = ADCA.CH0RES - ANTENNA_LEVEL_OFFSET;
    1fcc:	a0 91 10 02 	lds	r26, 0x0210	; 0x800210 <__TEXT_REGION_LENGTH__+0x700210>
    1fd0:	b0 91 11 02 	lds	r27, 0x0211	; 0x800211 <__TEXT_REGION_LENGTH__+0x700211>
	if (Result < 0) Result = 0;

	return (uint16_t) (((uint32_t) Result * ANTENNA_LEVEL_NUMERATOR) / ANTENNA_LEVEL_DENOMINATOR);
    1fd4:	ae 5b       	subi	r26, 0xBE	; 190
    1fd6:	b1 09       	sbc	r27, r1
    1fd8:	b7 ff       	sbrs	r27, 7
    1fda:	02 c0       	rjmp	.+4      	; 0x1fe0 <CommandGetRssi+0x2e>
    1fdc:	b0 e0       	ldi	r27, 0x00	; 0
    1fde:	a0 e0       	ldi	r26, 0x00	; 0
    1fe0:	29 e6       	ldi	r18, 0x69	; 105
    1fe2:	37 e5       	ldi	r19, 0x57	; 87
    1fe4:	4b e0       	ldi	r20, 0x0B	; 11
    1fe6:	50 e0       	ldi	r21, 0x00	; 0
    1fe8:	0e 94 ad 2d 	call	0x5b5a	; 0x5b5a <__mulshisi3>
    1fec:	aa 27       	eor	r26, r26
    1fee:	bb 27       	eor	r27, r27
    snprintf_P(OutParam, TERMINAL_BUFFER_SIZE,  PSTR("%5u mV"), AntennaLevelGet());
    1ff0:	9f 93       	push	r25
    1ff2:	8f 93       	push	r24
    1ff4:	87 e1       	ldi	r24, 0x17	; 23
    1ff6:	98 e0       	ldi	r25, 0x08	; 8
    1ff8:	9f 93       	push	r25
    1ffa:	8f 93       	push	r24
    1ffc:	81 e0       	ldi	r24, 0x01	; 1
    1ffe:	8f 93       	push	r24
    2000:	1f 92       	push	r1
    2002:	ff 93       	push	r31
    2004:	ef 93       	push	r30
    2006:	0e 94 55 2e 	call	0x5caa	; 0x5caa <snprintf_P>
    return COMMAND_INFO_OK_WITH_TEXT_ID;
    200a:	8d b7       	in	r24, 0x3d	; 61
    200c:	9e b7       	in	r25, 0x3e	; 62
    200e:	08 96       	adiw	r24, 0x08	; 8
    2010:	8d bf       	out	0x3d, r24	; 61
    2012:	9e bf       	out	0x3e, r25	; 62
}
    2014:	85 e6       	ldi	r24, 0x65	; 101
    2016:	08 95       	ret

00002018 <CommandGetUltralightPassword>:
CommandStatusIdType CommandGetUltralightPassword(char* OutParam) {
    2018:	0f 93       	push	r16
    201a:	1f 93       	push	r17
    201c:	cf 93       	push	r28
    201e:	df 93       	push	r29
    2020:	00 d0       	rcall	.+0      	; 0x2022 <CommandGetUltralightPassword+0xa>
    2022:	00 d0       	rcall	.+0      	; 0x2024 <CommandGetUltralightPassword+0xc>
    2024:	cd b7       	in	r28, 0x3d	; 61
    2026:	de b7       	in	r29, 0x3e	; 62
    2028:	18 2f       	mov	r17, r24
    202a:	09 2f       	mov	r16, r25
	uint8_t pwd[4];
	/* Read saved password from authentication */
	MemoryReadBlock(pwd, MIFARE_ULTRALIGHT_PWD_ADDRESS, sizeof(pwd));
    202c:	44 e0       	ldi	r20, 0x04	; 4
    202e:	50 e0       	ldi	r21, 0x00	; 0
    2030:	68 e0       	ldi	r22, 0x08	; 8
    2032:	71 e0       	ldi	r23, 0x01	; 1
    2034:	ce 01       	movw	r24, r28
    2036:	01 96       	adiw	r24, 0x01	; 1
    2038:	22 d9       	rcall	.-3516   	; 0x127e <MemoryReadBlock>
	snprintf_P(OutParam, TERMINAL_BUFFER_SIZE,  PSTR("%02x%02x%02x%02x"), pwd[0], pwd[1], pwd[2], pwd[3]);
    203a:	8c 81       	ldd	r24, Y+4	; 0x04
    203c:	1f 92       	push	r1
    203e:	8f 93       	push	r24
    2040:	8b 81       	ldd	r24, Y+3	; 0x03
    2042:	1f 92       	push	r1
    2044:	8f 93       	push	r24
    2046:	8a 81       	ldd	r24, Y+2	; 0x02
    2048:	1f 92       	push	r1
    204a:	8f 93       	push	r24
    204c:	89 81       	ldd	r24, Y+1	; 0x01
    204e:	1f 92       	push	r1
    2050:	8f 93       	push	r24
    2052:	86 e0       	ldi	r24, 0x06	; 6
    2054:	98 e0       	ldi	r25, 0x08	; 8
    2056:	9f 93       	push	r25
    2058:	8f 93       	push	r24
    205a:	81 e0       	ldi	r24, 0x01	; 1
    205c:	8f 93       	push	r24
    205e:	1f 92       	push	r1
    2060:	0f 93       	push	r16
    2062:	1f 93       	push	r17
    2064:	0e 94 55 2e 	call	0x5caa	; 0x5caa <snprintf_P>
	return COMMAND_INFO_OK_WITH_TEXT_ID;
    2068:	cd bf       	out	0x3d, r28	; 61
    206a:	de bf       	out	0x3e, r29	; 62
}
    206c:	85 e6       	ldi	r24, 0x65	; 101
    206e:	24 96       	adiw	r28, 0x04	; 4
    2070:	cd bf       	out	0x3d, r28	; 61
    2072:	de bf       	out	0x3e, r29	; 62
    2074:	df 91       	pop	r29
    2076:	cf 91       	pop	r28
    2078:	1f 91       	pop	r17
    207a:	0f 91       	pop	r16
    207c:	08 95       	ret

0000207e <ComPass>:
 #define MEM_OFFSET_DETECTION_DATA  4096 + 16
 #define MEM_LEN_DETECTION_DATA 192

 /* Function to encrypt the transfer for collected data */
 void ComPass(char *toBeEncFileName, int key, int len)
 {
    207e:	8f 92       	push	r8
    2080:	9f 92       	push	r9
    2082:	af 92       	push	r10
    2084:	bf 92       	push	r11
    2086:	cf 92       	push	r12
    2088:	df 92       	push	r13
    208a:	ef 92       	push	r14
    208c:	ff 92       	push	r15
    208e:	0f 93       	push	r16
    2090:	1f 93       	push	r17
    2092:	cf 93       	push	r28
    2094:	df 93       	push	r29
    2096:	cd b7       	in	r28, 0x3d	; 61
    2098:	de b7       	in	r29, 0x3e	; 62
    209a:	c3 51       	subi	r28, 0x13	; 19
    209c:	d1 40       	sbci	r29, 0x01	; 1
    209e:	cd bf       	out	0x3d, r28	; 61
    20a0:	de bf       	out	0x3e, r29	; 62
    20a2:	7c 01       	movw	r14, r24
    20a4:	6b 01       	movw	r12, r22
    20a6:	8a 01       	movw	r16, r20
	 char newFileName[275] = { 0 };
    20a8:	9e 01       	movw	r18, r28
    20aa:	2f 5f       	subi	r18, 0xFF	; 255
    20ac:	3f 4f       	sbci	r19, 0xFF	; 255
    20ae:	59 01       	movw	r10, r18
    20b0:	83 e1       	ldi	r24, 0x13	; 19
    20b2:	91 e0       	ldi	r25, 0x01	; 1
    20b4:	d9 01       	movw	r26, r18
    20b6:	fc 01       	movw	r30, r24
    20b8:	1d 92       	st	X+, r1
    20ba:	31 97       	sbiw	r30, 0x01	; 1
    20bc:	e9 f7       	brne	.-6      	; 0x20b8 <ComPass+0x3a>
	 memcpy(newFileName, toBeEncFileName, len);
    20be:	b7 01       	movw	r22, r14
    20c0:	c9 01       	movw	r24, r18
    20c2:	0e 94 45 2e 	call	0x5c8a	; 0x5c8a <memcpy>
    20c6:	f5 01       	movw	r30, r10
	 int i, s, t, size = len;
	 for (i = 0; i < size; i++)
    20c8:	57 01       	movw	r10, r14
	 {
		 s = newFileName[i];
		 t = (size + key + i - size / key) ^ s;
    20ca:	48 01       	movw	r8, r16
    20cc:	8e 18       	sub	r8, r14
    20ce:	9f 08       	sbc	r9, r15
    20d0:	8c 0c       	add	r8, r12
    20d2:	9d 1c       	adc	r9, r13
	 for (i = 0; i < size; i++)
    20d4:	c5 01       	movw	r24, r10
    20d6:	8e 19       	sub	r24, r14
    20d8:	9f 09       	sbc	r25, r15
    20da:	80 17       	cp	r24, r16
    20dc:	91 07       	cpc	r25, r17
    20de:	8c f0       	brlt	.+34     	; 0x2102 <ComPass+0x84>
		 toBeEncFileName[i] = t;
	 }
 }
    20e0:	cd 5e       	subi	r28, 0xED	; 237
    20e2:	de 4f       	sbci	r29, 0xFE	; 254
    20e4:	cd bf       	out	0x3d, r28	; 61
    20e6:	de bf       	out	0x3e, r29	; 62
    20e8:	df 91       	pop	r29
    20ea:	cf 91       	pop	r28
    20ec:	1f 91       	pop	r17
    20ee:	0f 91       	pop	r16
    20f0:	ff 90       	pop	r15
    20f2:	ef 90       	pop	r14
    20f4:	df 90       	pop	r13
    20f6:	cf 90       	pop	r12
    20f8:	bf 90       	pop	r11
    20fa:	af 90       	pop	r10
    20fc:	9f 90       	pop	r9
    20fe:	8f 90       	pop	r8
    2100:	08 95       	ret
		 s = newFileName[i];
    2102:	41 91       	ld	r20, Z+
		 t = (size + key + i - size / key) ^ s;
    2104:	94 01       	movw	r18, r8
    2106:	2a 0d       	add	r18, r10
    2108:	3b 1d       	adc	r19, r11
    210a:	c8 01       	movw	r24, r16
    210c:	b6 01       	movw	r22, r12
    210e:	0e 94 6e 2d 	call	0x5adc	; 0x5adc <__divmodhi4>
    2112:	26 1b       	sub	r18, r22
    2114:	37 0b       	sbc	r19, r23
    2116:	24 27       	eor	r18, r20
		 toBeEncFileName[i] = t;
    2118:	d5 01       	movw	r26, r10
    211a:	2d 93       	st	X+, r18
    211c:	5d 01       	movw	r10, r26
    211e:	da cf       	rjmp	.-76     	; 0x20d4 <ComPass+0x56>

00002120 <CommandGetDetection>:

 CommandStatusIdType CommandGetDetection(char* OutParam)
 {
    2120:	ef 92       	push	r14
    2122:	ff 92       	push	r15
    2124:	0f 93       	push	r16
    2126:	1f 93       	push	r17
    2128:	cf 93       	push	r28
    212a:	df 93       	push	r29
    212c:	ec 01       	movw	r28, r24
	 /* Read UID / s0-b0 */
	 MemoryReadBlock(OutParam, 0, 16);
    212e:	40 e1       	ldi	r20, 0x10	; 16
    2130:	50 e0       	ldi	r21, 0x00	; 0
    2132:	70 e0       	ldi	r23, 0x00	; 0
    2134:	60 e0       	ldi	r22, 0x00	; 0
    2136:	a3 d8       	rcall	.-3770   	; 0x127e <MemoryReadBlock>

	 /* Read saved nonce data from authentication */
	 MemoryReadBlock(OutParam+16, MEM_OFFSET_DETECTION_DATA, MEM_LEN_DETECTION_DATA);
    2138:	40 ec       	ldi	r20, 0xC0	; 192
    213a:	50 e0       	ldi	r21, 0x00	; 0
    213c:	60 e1       	ldi	r22, 0x10	; 16
    213e:	70 e1       	ldi	r23, 0x10	; 16
    2140:	ce 01       	movw	r24, r28
    2142:	40 96       	adiw	r24, 0x10	; 16
    2144:	9c d8       	rcall	.-3784   	; 0x127e <MemoryReadBlock>

	 /* add file integrity to byte !! 209, 210 !! */
	 ISO14443AAppendCRCA(OutParam, 208);
    2146:	60 ed       	ldi	r22, 0xD0	; 208
    2148:	70 e0       	ldi	r23, 0x00	; 0
    214a:	ce 01       	movw	r24, r28
    214c:	0e 94 4d 23 	call	0x469a	; 0x469a <ISO14443AAppendCRCA>
	 
	 /* encrypt data , but not CRC*/
	 ComPass(OutParam, (int)123321, 208);
    2150:	40 ed       	ldi	r20, 0xD0	; 208
    2152:	50 e0       	ldi	r21, 0x00	; 0
    2154:	69 eb       	ldi	r22, 0xB9	; 185
    2156:	71 ee       	ldi	r23, 0xE1	; 225
    2158:	ce 01       	movw	r24, r28
    215a:	91 df       	rcall	.-222    	; 0x207e <ComPass>
    215c:	8e 01       	movw	r16, r28
    215e:	7e 01       	movw	r14, r28
    2160:	82 ed       	ldi	r24, 0xD2	; 210
    2162:	e8 0e       	add	r14, r24
    2164:	f1 1c       	adc	r15, r1

	 /* send data + CRC */
	 for(uint16_t num=0; num < 208+2; num++)
	 TerminalSendChar(OutParam[num]);
    2166:	f8 01       	movw	r30, r16
    2168:	61 91       	ld	r22, Z+
    216a:	8f 01       	movw	r16, r30
void EVENT_USB_Device_Connect(void);
void EVENT_USB_Device_Disconnect(void);
void EVENT_USB_Device_ConfigurationChanged(void);
void EVENT_USB_Device_ControlRequest(void);

INLINE void TerminalSendChar(char c) { CDC_Device_SendByte(&TerminalHandle, c); }
    216c:	8c e2       	ldi	r24, 0x2C	; 44
    216e:	90 e2       	ldi	r25, 0x20	; 32
    2170:	0e 94 dc 2b 	call	0x57b8	; 0x57b8 <CDC_Device_SendByte>
	 for(uint16_t num=0; num < 208+2; num++)
    2174:	0e 15       	cp	r16, r14
    2176:	1f 05       	cpc	r17, r15
    2178:	b1 f7       	brne	.-20     	; 0x2166 <CommandGetDetection+0x46>

	 OutParam[0]=0;
    217a:	18 82       	st	Y, r1
	 return COMMAND_INFO_OK_ID;
 }
    217c:	84 e6       	ldi	r24, 0x64	; 100
    217e:	df 91       	pop	r29
    2180:	cf 91       	pop	r28
    2182:	1f 91       	pop	r17
    2184:	0f 91       	pop	r16
    2186:	ff 90       	pop	r15
    2188:	ef 90       	pop	r14
    218a:	08 95       	ret

0000218c <CommandSetDetection>:

 CommandStatusIdType CommandSetDetection(char* OutMessage, const char* InParam)
 {
    218c:	cf 93       	push	r28
    218e:	df 93       	push	r29
    2190:	cd b7       	in	r28, 0x3d	; 61
    2192:	de b7       	in	r29, 0x3e	; 62
    2194:	c8 5c       	subi	r28, 0xC8	; 200
    2196:	d1 09       	sbc	r29, r1
    2198:	cd bf       	out	0x3d, r28	; 61
    219a:	de bf       	out	0x3e, r29	; 62
	 /* Fill memory for detection with 0xFF,  clearing it */
	 uint8_t t[200];
	 memset(t, 0xff, 200);
    219c:	48 ec       	ldi	r20, 0xC8	; 200
    219e:	50 e0       	ldi	r21, 0x00	; 0
    21a0:	6f ef       	ldi	r22, 0xFF	; 255
    21a2:	70 e0       	ldi	r23, 0x00	; 0
    21a4:	ce 01       	movw	r24, r28
    21a6:	01 96       	adiw	r24, 0x01	; 1
    21a8:	0e 94 4e 2e 	call	0x5c9c	; 0x5c9c <memset>
	 MemoryWriteBlock(t, MEM_OFFSET_DETECTION_DATA, MEM_LEN_DETECTION_DATA);
    21ac:	40 ec       	ldi	r20, 0xC0	; 192
    21ae:	50 e0       	ldi	r21, 0x00	; 0
    21b0:	60 e1       	ldi	r22, 0x10	; 16
    21b2:	70 e1       	ldi	r23, 0x10	; 16
    21b4:	ce 01       	movw	r24, r28
    21b6:	01 96       	adiw	r24, 0x01	; 1
    21b8:	eb d8       	rcall	.-3626   	; 0x1390 <MemoryWriteBlock>
	 return COMMAND_INFO_OK_ID;
 }
    21ba:	84 e6       	ldi	r24, 0x64	; 100
    21bc:	c8 53       	subi	r28, 0x38	; 56
    21be:	df 4f       	sbci	r29, 0xFF	; 255
    21c0:	cd bf       	out	0x3d, r28	; 61
    21c2:	de bf       	out	0x3e, r29	; 62
    21c4:	df 91       	pop	r29
    21c6:	cf 91       	pop	r28
    21c8:	08 95       	ret

000021ca <CommandExecSPIFlashInfo>:
#endif

CommandStatusIdType CommandExecSPIFlashInfo(char* OutMessage)
{
    21ca:	0f 93       	push	r16
    21cc:	1f 93       	push	r17
    21ce:	cf 93       	push	r28
    21d0:	df 93       	push	r29
    21d2:	00 d0       	rcall	.+0      	; 0x21d4 <CommandExecSPIFlashInfo+0xa>
    21d4:	00 d0       	rcall	.+0      	; 0x21d6 <CommandExecSPIFlashInfo+0xc>
    21d6:	cd b7       	in	r28, 0x3d	; 61
    21d8:	de b7       	in	r29, 0x3e	; 62
    21da:	18 2f       	mov	r17, r24
    21dc:	09 2f       	mov	r16, r25
	uint8_t b[4];
	FlashReadManufacturerDeviceInfo(b);
    21de:	ce 01       	movw	r24, r28
    21e0:	01 96       	adiw	r24, 0x01	; 1
    21e2:	0e 94 7c 08 	call	0x10f8	; 0x10f8 <FlashReadManufacturerDeviceInfo>
	uint8_t ManufacturerId = b[0];
    21e6:	79 81       	ldd	r23, Y+1	; 0x01
	uint8_t FamilyCode = b[1] >> 5;
    21e8:	2a 81       	ldd	r18, Y+2	; 0x02
    21ea:	62 2f       	mov	r22, r18
    21ec:	62 95       	swap	r22
    21ee:	66 95       	lsr	r22
    21f0:	67 70       	andi	r22, 0x07	; 7
	uint8_t DensityCode = b[1] & 0x1F;
    21f2:	2f 71       	andi	r18, 0x1F	; 31
	uint8_t MLC_Code = b[2] >> 5;
    21f4:	3b 81       	ldd	r19, Y+3	; 0x03
    21f6:	e3 2f       	mov	r30, r19
    21f8:	e2 95       	swap	r30
    21fa:	e6 95       	lsr	r30
    21fc:	e7 70       	andi	r30, 0x07	; 7
	uint8_t ProductVersionCode = b[2] & 0x1F;
    21fe:	3f 71       	andi	r19, 0x1F	; 31
    2200:	42 2f       	mov	r20, r18
    2202:	50 e0       	ldi	r21, 0x00	; 0
	uint16_t Mbits = 0;
	if ((DensityCode >= 2) && (DensityCode <= 8) && (FamilyCode == 1))
    2204:	8e ef       	ldi	r24, 0xFE	; 254
    2206:	82 0f       	add	r24, r18
    2208:	87 30       	cpi	r24, 0x07	; 7
    220a:	a8 f5       	brcc	.+106    	; 0x2276 <CommandExecSPIFlashInfo+0xac>
    220c:	61 30       	cpi	r22, 0x01	; 1
    220e:	99 f5       	brne	.+102    	; 0x2276 <CommandExecSPIFlashInfo+0xac>
		Mbits = 1 << (DensityCode - 2); 
    2210:	42 50       	subi	r20, 0x02	; 2
    2212:	51 09       	sbc	r21, r1
    2214:	81 e0       	ldi	r24, 0x01	; 1
    2216:	90 e0       	ldi	r25, 0x00	; 0
    2218:	02 c0       	rjmp	.+4      	; 0x221e <CommandExecSPIFlashInfo+0x54>
    221a:	88 0f       	add	r24, r24
    221c:	99 1f       	adc	r25, r25
    221e:	4a 95       	dec	r20
    2220:	e2 f7       	brpl	.-8      	; 0x221a <CommandExecSPIFlashInfo+0x50>
	// Minimum: AT45DB011D Density Code : 00010 = 1-Mbit 
	// Maximum: AT45DB642D Density Code : 01000 = 64-Mbit
	snprintf_P(OutMessage, TERMINAL_BUFFER_SIZE, 
    2222:	ac 01       	movw	r20, r24
    2224:	56 95       	lsr	r21
    2226:	54 2f       	mov	r21, r20
    2228:	44 27       	eor	r20, r20
    222a:	57 95       	ror	r21
    222c:	47 95       	ror	r20
    222e:	5f 93       	push	r21
    2230:	4f 93       	push	r20
    2232:	9f 93       	push	r25
    2234:	8f 93       	push	r24
    2236:	1f 92       	push	r1
    2238:	3f 93       	push	r19
    223a:	1f 92       	push	r1
    223c:	ef 93       	push	r30
    223e:	1f 92       	push	r1
    2240:	2f 93       	push	r18
    2242:	1f 92       	push	r1
    2244:	6f 93       	push	r22
    2246:	1f 92       	push	r1
    2248:	7f 93       	push	r23
    224a:	82 e8       	ldi	r24, 0x82	; 130
    224c:	97 e0       	ldi	r25, 0x07	; 7
    224e:	9f 93       	push	r25
    2250:	8f 93       	push	r24
    2252:	81 e0       	ldi	r24, 0x01	; 1
    2254:	8f 93       	push	r24
    2256:	1f 92       	push	r1
    2258:	0f 93       	push	r16
    225a:	1f 93       	push	r17
    225c:	0e 94 55 2e 	call	0x5caa	; 0x5caa <snprintf_P>
		PSTR("Manufacturer ID: %02xh\r\nFamily code: %d\r\nDensity code: %d\r\nMLC Code: %d\r\nProduct version: %d\r\nFlash memory size: %d-Mbit (%d-KByte)"), 
		ManufacturerId, FamilyCode, DensityCode, MLC_Code, ProductVersionCode, Mbits, Mbits * 128); 
		// Precalculated 1024 / 8 = 128, to prevent uint16_t overflow for possible 64-Mbit flash
	return COMMAND_INFO_OK_WITH_TEXT_ID;
    2260:	cd bf       	out	0x3d, r28	; 61
    2262:	de bf       	out	0x3e, r29	; 62
}
    2264:	85 e6       	ldi	r24, 0x65	; 101
    2266:	24 96       	adiw	r28, 0x04	; 4
    2268:	cd bf       	out	0x3d, r28	; 61
    226a:	de bf       	out	0x3e, r29	; 62
    226c:	df 91       	pop	r29
    226e:	cf 91       	pop	r28
    2270:	1f 91       	pop	r17
    2272:	0f 91       	pop	r16
    2274:	08 95       	ret
	uint16_t Mbits = 0;
    2276:	90 e0       	ldi	r25, 0x00	; 0
    2278:	80 e0       	ldi	r24, 0x00	; 0
    227a:	d3 cf       	rjmp	.-90     	; 0x2222 <CommandExecSPIFlashInfo+0x58>

0000227c <CommandGetSPIFlashInfo>:

CommandStatusIdType CommandGetSPIFlashInfo(char* OutParam)
{
    227c:	0f 93       	push	r16
    227e:	1f 93       	push	r17
    2280:	cf 93       	push	r28
    2282:	df 93       	push	r29
    2284:	00 d0       	rcall	.+0      	; 0x2286 <CommandGetSPIFlashInfo+0xa>
    2286:	00 d0       	rcall	.+0      	; 0x2288 <CommandGetSPIFlashInfo+0xc>
    2288:	cd b7       	in	r28, 0x3d	; 61
    228a:	de b7       	in	r29, 0x3e	; 62
    228c:	18 2f       	mov	r17, r24
    228e:	09 2f       	mov	r16, r25
	uint8_t b[4];
	FlashReadManufacturerDeviceInfo(b);
    2290:	ce 01       	movw	r24, r28
    2292:	01 96       	adiw	r24, 0x01	; 1
    2294:	0e 94 7c 08 	call	0x10f8	; 0x10f8 <FlashReadManufacturerDeviceInfo>
	snprintf_P(OutParam, TERMINAL_BUFFER_SIZE, PSTR("%02x%02x%02x%02x"), b[0], b[1], b[2], b[3]);
    2298:	8c 81       	ldd	r24, Y+4	; 0x04
    229a:	1f 92       	push	r1
    229c:	8f 93       	push	r24
    229e:	8b 81       	ldd	r24, Y+3	; 0x03
    22a0:	1f 92       	push	r1
    22a2:	8f 93       	push	r24
    22a4:	8a 81       	ldd	r24, Y+2	; 0x02
    22a6:	1f 92       	push	r1
    22a8:	8f 93       	push	r24
    22aa:	89 81       	ldd	r24, Y+1	; 0x01
    22ac:	1f 92       	push	r1
    22ae:	8f 93       	push	r24
    22b0:	81 e7       	ldi	r24, 0x71	; 113
    22b2:	97 e0       	ldi	r25, 0x07	; 7
    22b4:	9f 93       	push	r25
    22b6:	8f 93       	push	r24
    22b8:	81 e0       	ldi	r24, 0x01	; 1
    22ba:	8f 93       	push	r24
    22bc:	1f 92       	push	r1
    22be:	0f 93       	push	r16
    22c0:	1f 93       	push	r17
    22c2:	0e 94 55 2e 	call	0x5caa	; 0x5caa <snprintf_P>
	return COMMAND_INFO_OK_WITH_TEXT_ID;
    22c6:	cd bf       	out	0x3d, r28	; 61
    22c8:	de bf       	out	0x3e, r29	; 62
    22ca:	85 e6       	ldi	r24, 0x65	; 101
    22cc:	24 96       	adiw	r28, 0x04	; 4
    22ce:	cd bf       	out	0x3d, r28	; 61
    22d0:	de bf       	out	0x3e, r29	; 62
    22d2:	df 91       	pop	r29
    22d4:	cf 91       	pop	r28
    22d6:	1f 91       	pop	r17
    22d8:	0f 91       	pop	r16
    22da:	08 95       	ret

000022dc <XModemReceive>:
    return Checksum;
}

void XModemReceive(XModemCallbackType TheCallbackFunc)
{
    State = STATE_RECEIVE_INIT;
    22dc:	21 e0       	ldi	r18, 0x01	; 1
    22de:	20 93 f3 20 	sts	0x20F3, r18	; 0x8020f3 <State>
    CurrentFrameNumber = FIRST_FRAME_NUMBER;
    22e2:	20 93 f2 20 	sts	0x20F2, r18	; 0x8020f2 <CurrentFrameNumber>
    RetryCount = RECV_INIT_COUNT;
    22e6:	24 e1       	ldi	r18, 0x14	; 20
    22e8:	20 93 f0 20 	sts	0x20F0, r18	; 0x8020f0 <RetryCount>
    RetryTimeout = RECV_INIT_TIMEOUT;
    22ec:	25 e0       	ldi	r18, 0x05	; 5
    22ee:	30 e0       	ldi	r19, 0x00	; 0
    22f0:	20 93 ee 20 	sts	0x20EE, r18	; 0x8020ee <RetryTimeout>
    22f4:	30 93 ef 20 	sts	0x20EF, r19	; 0x8020ef <RetryTimeout+0x1>
    BlockAddress = 0;
    22f8:	10 92 e8 20 	sts	0x20E8, r1	; 0x8020e8 <BlockAddress>
    22fc:	10 92 e9 20 	sts	0x20E9, r1	; 0x8020e9 <BlockAddress+0x1>
    2300:	10 92 ea 20 	sts	0x20EA, r1	; 0x8020ea <BlockAddress+0x2>
    2304:	10 92 eb 20 	sts	0x20EB, r1	; 0x8020eb <BlockAddress+0x3>

    CallbackFunc = TheCallbackFunc;
    2308:	80 93 e6 20 	sts	0x20E6, r24	; 0x8020e6 <CallbackFunc>
    230c:	90 93 e7 20 	sts	0x20E7, r25	; 0x8020e7 <CallbackFunc+0x1>
}
    2310:	08 95       	ret

00002312 <XModemSend>:

void XModemSend(XModemCallbackType TheCallbackFunc)
{
    State = STATE_SEND_INIT;
    2312:	27 e0       	ldi	r18, 0x07	; 7
    2314:	20 93 f3 20 	sts	0x20F3, r18	; 0x8020f3 <State>
    RetryTimeout = SEND_INIT_TIMEOUT;
    2318:	24 e6       	ldi	r18, 0x64	; 100
    231a:	30 e0       	ldi	r19, 0x00	; 0
    231c:	20 93 ee 20 	sts	0x20EE, r18	; 0x8020ee <RetryTimeout>
    2320:	30 93 ef 20 	sts	0x20EF, r19	; 0x8020ef <RetryTimeout+0x1>
    BlockAddress = 0;
    2324:	10 92 e8 20 	sts	0x20E8, r1	; 0x8020e8 <BlockAddress>
    2328:	10 92 e9 20 	sts	0x20E9, r1	; 0x8020e9 <BlockAddress+0x1>
    232c:	10 92 ea 20 	sts	0x20EA, r1	; 0x8020ea <BlockAddress+0x2>
    2330:	10 92 eb 20 	sts	0x20EB, r1	; 0x8020eb <BlockAddress+0x3>

    CallbackFunc = TheCallbackFunc;
    2334:	80 93 e6 20 	sts	0x20E6, r24	; 0x8020e6 <CallbackFunc>
    2338:	90 93 e7 20 	sts	0x20E7, r25	; 0x8020e7 <CallbackFunc+0x1>
}
    233c:	08 95       	ret

0000233e <XModemProcessByte>:

bool XModemProcessByte(uint8_t Byte)
{
    233e:	cf 93       	push	r28
    switch(State) {
    2340:	90 91 f3 20 	lds	r25, 0x20F3	; 0x8020f3 <State>
    2344:	95 30       	cpi	r25, 0x05	; 5
    2346:	09 f4       	brne	.+2      	; 0x234a <XModemProcessByte+0xc>
    2348:	41 c0       	rjmp	.+130    	; 0x23cc <XModemProcessByte+0x8e>
    234a:	38 f4       	brcc	.+14     	; 0x235a <XModemProcessByte+0x1c>
    234c:	93 30       	cpi	r25, 0x03	; 3
    234e:	41 f1       	breq	.+80     	; 0x23a0 <XModemProcessByte+0x62>
    2350:	58 f5       	brcc	.+86     	; 0x23a8 <XModemProcessByte+0x6a>
    2352:	91 30       	cpi	r25, 0x01	; 1
    2354:	78 f4       	brcc	.+30     	; 0x2374 <XModemProcessByte+0x36>
        /* Receive Ack */
        State = STATE_OFF;
        break;

    default:
        return false;
    2356:	c0 e0       	ldi	r28, 0x00	; 0
    2358:	8e c0       	rjmp	.+284    	; 0x2476 <XModemProcessByte+0x138>
    switch(State) {
    235a:	97 30       	cpi	r25, 0x07	; 7
    235c:	09 f4       	brne	.+2      	; 0x2360 <XModemProcessByte+0x22>
    235e:	a0 c0       	rjmp	.+320    	; 0x24a0 <XModemProcessByte+0x162>
    2360:	08 f4       	brcc	.+2      	; 0x2364 <XModemProcessByte+0x26>
    2362:	48 c0       	rjmp	.+144    	; 0x23f4 <XModemProcessByte+0xb6>
    2364:	98 30       	cpi	r25, 0x08	; 8
    2366:	09 f4       	brne	.+2      	; 0x236a <XModemProcessByte+0x2c>
    2368:	ee c0       	rjmp	.+476    	; 0x2546 <XModemProcessByte+0x208>
    236a:	99 30       	cpi	r25, 0x09	; 9
    236c:	a1 f7       	brne	.-24     	; 0x2356 <XModemProcessByte+0x18>
        State = STATE_OFF;
    236e:	10 92 f3 20 	sts	0x20F3, r1	; 0x8020f3 <State>
    2372:	14 c0       	rjmp	.+40     	; 0x239c <XModemProcessByte+0x5e>
        if (Byte == BYTE_SOH) {
    2374:	81 30       	cpi	r24, 0x01	; 1
    2376:	41 f4       	brne	.+16     	; 0x2388 <XModemProcessByte+0x4a>
            BufferIdx = 0;
    2378:	10 92 ec 20 	sts	0x20EC, r1	; 0x8020ec <BufferIdx>
    237c:	10 92 ed 20 	sts	0x20ED, r1	; 0x8020ed <BufferIdx+0x1>
            State = STATE_RECEIVE_FRAMENUM1;
    2380:	83 e0       	ldi	r24, 0x03	; 3
                State = STATE_SEND_EOT;
    2382:	80 93 f3 20 	sts	0x20F3, r24	; 0x8020f3 <State>
    2386:	0a c0       	rjmp	.+20     	; 0x239c <XModemProcessByte+0x5e>
        } else if (Byte == BYTE_EOT) {
    2388:	84 30       	cpi	r24, 0x04	; 4
    238a:	31 f4       	brne	.+12     	; 0x2398 <XModemProcessByte+0x5a>
INLINE void TerminalSendByte(uint8_t Byte) { CDC_Device_SendByte(&TerminalHandle, Byte); }
    238c:	66 e0       	ldi	r22, 0x06	; 6
    238e:	8c e2       	ldi	r24, 0x2C	; 44
    2390:	90 e2       	ldi	r25, 0x20	; 32
    2392:	0e 94 dc 2b 	call	0x57b8	; 0x57b8 <CDC_Device_SendByte>
    2396:	eb cf       	rjmp	.-42     	; 0x236e <XModemProcessByte+0x30>
        } else if (Byte == BYTE_CAN) {
    2398:	88 31       	cpi	r24, 0x18	; 24
    239a:	49 f3       	breq	.-46     	; 0x236e <XModemProcessByte+0x30>
        break;
    }

    return true;
    239c:	c1 e0       	ldi	r28, 0x01	; 1
        break;
    239e:	6b c0       	rjmp	.+214    	; 0x2476 <XModemProcessByte+0x138>
        ReceivedFrameNumber = Byte;
    23a0:	80 93 f1 20 	sts	0x20F1, r24	; 0x8020f1 <ReceivedFrameNumber>
        State = STATE_RECEIVE_FRAMENUM2;
    23a4:	84 e0       	ldi	r24, 0x04	; 4
    23a6:	ed cf       	rjmp	.-38     	; 0x2382 <XModemProcessByte+0x44>
        if (Byte == (255 - ReceivedFrameNumber)) {
    23a8:	90 91 f1 20 	lds	r25, 0x20F1	; 0x8020f1 <ReceivedFrameNumber>
    23ac:	2f ef       	ldi	r18, 0xFF	; 255
    23ae:	30 e0       	ldi	r19, 0x00	; 0
    23b0:	29 1b       	sub	r18, r25
    23b2:	31 09       	sbc	r19, r1
    23b4:	82 17       	cp	r24, r18
    23b6:	13 06       	cpc	r1, r19
    23b8:	11 f4       	brne	.+4      	; 0x23be <XModemProcessByte+0x80>
            State = STATE_RECEIVE_DATA;
    23ba:	85 e0       	ldi	r24, 0x05	; 5
    23bc:	e2 cf       	rjmp	.-60     	; 0x2382 <XModemProcessByte+0x44>
    23be:	65 e1       	ldi	r22, 0x15	; 21
    23c0:	8c e2       	ldi	r24, 0x2C	; 44
    23c2:	90 e2       	ldi	r25, 0x20	; 32
    23c4:	0e 94 dc 2b 	call	0x57b8	; 0x57b8 <CDC_Device_SendByte>
            State = STATE_RECEIVE_WAIT;
    23c8:	82 e0       	ldi	r24, 0x02	; 2
    23ca:	db cf       	rjmp	.-74     	; 0x2382 <XModemProcessByte+0x44>
        TerminalBuffer[BufferIdx++] = Byte;
    23cc:	20 91 ec 20 	lds	r18, 0x20EC	; 0x8020ec <BufferIdx>
    23d0:	30 91 ed 20 	lds	r19, 0x20ED	; 0x8020ed <BufferIdx+0x1>
    23d4:	a9 01       	movw	r20, r18
    23d6:	4f 5f       	subi	r20, 0xFF	; 255
    23d8:	5f 4f       	sbci	r21, 0xFF	; 255
    23da:	40 93 ec 20 	sts	0x20EC, r20	; 0x8020ec <BufferIdx>
    23de:	50 93 ed 20 	sts	0x20ED, r21	; 0x8020ed <BufferIdx+0x1>
    23e2:	2e 59       	subi	r18, 0x9E	; 158
    23e4:	3e 4d       	sbci	r19, 0xDE	; 222
    23e6:	f9 01       	movw	r30, r18
    23e8:	80 83       	st	Z, r24
            State = STATE_RECEIVE_PROCESS;
    23ea:	86 e0       	ldi	r24, 0x06	; 6
        if (BufferIdx == XMODEM_BLOCK_SIZE) {
    23ec:	40 38       	cpi	r20, 0x80	; 128
    23ee:	51 05       	cpc	r21, r1
    23f0:	a9 f6       	brne	.-86     	; 0x239c <XModemProcessByte+0x5e>
    23f2:	c7 cf       	rjmp	.-114    	; 0x2382 <XModemProcessByte+0x44>
        if (ReceivedFrameNumber == CurrentFrameNumber) {
    23f4:	20 91 f1 20 	lds	r18, 0x20F1	; 0x8020f1 <ReceivedFrameNumber>
    23f8:	90 91 f2 20 	lds	r25, 0x20F2	; 0x8020f2 <CurrentFrameNumber>
    23fc:	29 13       	cpse	r18, r25
    23fe:	48 c0       	rjmp	.+144    	; 0x2490 <XModemProcessByte+0x152>
    2400:	e2 e6       	ldi	r30, 0x62	; 98
    2402:	f1 e2       	ldi	r31, 0x21	; 33
    2404:	22 ee       	ldi	r18, 0xE2	; 226
    2406:	31 e2       	ldi	r19, 0x21	; 33
    uint8_t Checksum = CHECKSUM_INIT_VALUE;
    2408:	90 e0       	ldi	r25, 0x00	; 0
    while(ByteCount--) {
    240a:	2e 17       	cp	r18, r30
    240c:	3f 07       	cpc	r19, r31
    240e:	b1 f5       	brne	.+108    	; 0x247c <XModemProcessByte+0x13e>
            if (CalcChecksum(TerminalBuffer, XMODEM_BLOCK_SIZE) == Byte) {
    2410:	89 13       	cpse	r24, r25
    2412:	d5 cf       	rjmp	.-86     	; 0x23be <XModemProcessByte+0x80>
                if (CallbackFunc(TerminalBuffer, BlockAddress, XMODEM_BLOCK_SIZE)) {
    2414:	60 91 e8 20 	lds	r22, 0x20E8	; 0x8020e8 <BlockAddress>
    2418:	70 91 e9 20 	lds	r23, 0x20E9	; 0x8020e9 <BlockAddress+0x1>
    241c:	e0 91 e6 20 	lds	r30, 0x20E6	; 0x8020e6 <CallbackFunc>
    2420:	f0 91 e7 20 	lds	r31, 0x20E7	; 0x8020e7 <CallbackFunc+0x1>
    2424:	40 e8       	ldi	r20, 0x80	; 128
    2426:	50 e0       	ldi	r21, 0x00	; 0
    2428:	82 e6       	ldi	r24, 0x62	; 98
    242a:	91 e2       	ldi	r25, 0x21	; 33
    242c:	09 95       	icall
    242e:	c8 2f       	mov	r28, r24
    2430:	88 23       	and	r24, r24
    2432:	39 f1       	breq	.+78     	; 0x2482 <XModemProcessByte+0x144>
                    CurrentFrameNumber++;
    2434:	80 91 f2 20 	lds	r24, 0x20F2	; 0x8020f2 <CurrentFrameNumber>
    2438:	8f 5f       	subi	r24, 0xFF	; 255
    243a:	80 93 f2 20 	sts	0x20F2, r24	; 0x8020f2 <CurrentFrameNumber>
                    BlockAddress += XMODEM_BLOCK_SIZE;
    243e:	80 91 e8 20 	lds	r24, 0x20E8	; 0x8020e8 <BlockAddress>
    2442:	90 91 e9 20 	lds	r25, 0x20E9	; 0x8020e9 <BlockAddress+0x1>
    2446:	a0 91 ea 20 	lds	r26, 0x20EA	; 0x8020ea <BlockAddress+0x2>
    244a:	b0 91 eb 20 	lds	r27, 0x20EB	; 0x8020eb <BlockAddress+0x3>
    244e:	80 58       	subi	r24, 0x80	; 128
    2450:	9f 4f       	sbci	r25, 0xFF	; 255
    2452:	af 4f       	sbci	r26, 0xFF	; 255
    2454:	bf 4f       	sbci	r27, 0xFF	; 255
    2456:	80 93 e8 20 	sts	0x20E8, r24	; 0x8020e8 <BlockAddress>
    245a:	90 93 e9 20 	sts	0x20E9, r25	; 0x8020e9 <BlockAddress+0x1>
    245e:	a0 93 ea 20 	sts	0x20EA, r26	; 0x8020ea <BlockAddress+0x2>
    2462:	b0 93 eb 20 	sts	0x20EB, r27	; 0x8020eb <BlockAddress+0x3>
INLINE void TerminalSendChar(char c) { CDC_Device_SendByte(&TerminalHandle, c); }
    2466:	66 e0       	ldi	r22, 0x06	; 6
    2468:	8c e2       	ldi	r24, 0x2C	; 44
    246a:	90 e2       	ldi	r25, 0x20	; 32
    246c:	0e 94 dc 2b 	call	0x57b8	; 0x57b8 <CDC_Device_SendByte>
                    State = STATE_RECEIVE_WAIT;
    2470:	82 e0       	ldi	r24, 0x02	; 2
    2472:	80 93 f3 20 	sts	0x20F3, r24	; 0x8020f3 <State>
}
    2476:	8c 2f       	mov	r24, r28
    2478:	cf 91       	pop	r28
    247a:	08 95       	ret
        Checksum += *DataPtr++;
    247c:	41 91       	ld	r20, Z+
    247e:	94 0f       	add	r25, r20
    2480:	c4 cf       	rjmp	.-120    	; 0x240a <XModemProcessByte+0xcc>
INLINE void TerminalSendByte(uint8_t Byte) { CDC_Device_SendByte(&TerminalHandle, Byte); }
    2482:	68 e1       	ldi	r22, 0x18	; 24
    2484:	8c e2       	ldi	r24, 0x2C	; 44
    2486:	90 e2       	ldi	r25, 0x20	; 32
    2488:	0e 94 dc 2b 	call	0x57b8	; 0x57b8 <CDC_Device_SendByte>
    248c:	68 e1       	ldi	r22, 0x18	; 24
    248e:	7f cf       	rjmp	.-258    	; 0x238e <XModemProcessByte+0x50>
        } else if (ReceivedFrameNumber == (CurrentFrameNumber - 1)) {
    2490:	49 2f       	mov	r20, r25
    2492:	41 50       	subi	r20, 0x01	; 1
    2494:	55 0b       	sbc	r21, r21
    2496:	24 17       	cp	r18, r20
    2498:	15 06       	cpc	r1, r21
    249a:	c1 f7       	brne	.-16     	; 0x248c <XModemProcessByte+0x14e>
    249c:	66 e0       	ldi	r22, 0x06	; 6
    249e:	90 cf       	rjmp	.-224    	; 0x23c0 <XModemProcessByte+0x82>
        if (Byte == BYTE_NAK) {
    24a0:	85 31       	cpi	r24, 0x15	; 21
    24a2:	09 f0       	breq	.+2      	; 0x24a6 <XModemProcessByte+0x168>
    24a4:	50 c0       	rjmp	.+160    	; 0x2546 <XModemProcessByte+0x208>
            CurrentFrameNumber = FIRST_FRAME_NUMBER - 1;
    24a6:	10 92 f2 20 	sts	0x20F2, r1	; 0x8020f2 <CurrentFrameNumber>
            CurrentFrameNumber++;
    24aa:	80 91 f2 20 	lds	r24, 0x20F2	; 0x8020f2 <CurrentFrameNumber>
    24ae:	8f 5f       	subi	r24, 0xFF	; 255
    24b0:	80 93 f2 20 	sts	0x20F2, r24	; 0x8020f2 <CurrentFrameNumber>
            if (CallbackFunc(TerminalBuffer, BlockAddress, XMODEM_BLOCK_SIZE)) {
    24b4:	60 91 e8 20 	lds	r22, 0x20E8	; 0x8020e8 <BlockAddress>
    24b8:	70 91 e9 20 	lds	r23, 0x20E9	; 0x8020e9 <BlockAddress+0x1>
    24bc:	e0 91 e6 20 	lds	r30, 0x20E6	; 0x8020e6 <CallbackFunc>
    24c0:	f0 91 e7 20 	lds	r31, 0x20E7	; 0x8020e7 <CallbackFunc+0x1>
    24c4:	40 e8       	ldi	r20, 0x80	; 128
    24c6:	50 e0       	ldi	r21, 0x00	; 0
    24c8:	82 e6       	ldi	r24, 0x62	; 98
    24ca:	91 e2       	ldi	r25, 0x21	; 33
    24cc:	09 95       	icall
    24ce:	c8 2f       	mov	r28, r24
    24d0:	88 23       	and	r24, r24
    24d2:	09 f4       	brne	.+2      	; 0x24d6 <XModemProcessByte+0x198>
    24d4:	67 c0       	rjmp	.+206    	; 0x25a4 <XModemProcessByte+0x266>
    24d6:	61 e0       	ldi	r22, 0x01	; 1
    24d8:	8c e2       	ldi	r24, 0x2C	; 44
    24da:	90 e2       	ldi	r25, 0x20	; 32
    24dc:	0e 94 dc 2b 	call	0x57b8	; 0x57b8 <CDC_Device_SendByte>
    24e0:	60 91 f2 20 	lds	r22, 0x20F2	; 0x8020f2 <CurrentFrameNumber>
    24e4:	8c e2       	ldi	r24, 0x2C	; 44
    24e6:	90 e2       	ldi	r25, 0x20	; 32
    24e8:	0e 94 dc 2b 	call	0x57b8	; 0x57b8 <CDC_Device_SendByte>
                TerminalSendByte(255 - CurrentFrameNumber);
    24ec:	60 91 f2 20 	lds	r22, 0x20F2	; 0x8020f2 <CurrentFrameNumber>
    24f0:	60 95       	com	r22
    24f2:	8c e2       	ldi	r24, 0x2C	; 44
    24f4:	90 e2       	ldi	r25, 0x20	; 32
    24f6:	0e 94 dc 2b 	call	0x57b8	; 0x57b8 <CDC_Device_SendByte>
                TerminalSendBlock(TerminalBuffer, XMODEM_BLOCK_SIZE);
    24fa:	60 e8       	ldi	r22, 0x80	; 128
    24fc:	70 e0       	ldi	r23, 0x00	; 0
    24fe:	82 e6       	ldi	r24, 0x62	; 98
    2500:	91 e2       	ldi	r25, 0x21	; 33
    2502:	86 db       	rcall	.-2292   	; 0x1c10 <TerminalSendBlock>
    2504:	e2 e6       	ldi	r30, 0x62	; 98
    2506:	f1 e2       	ldi	r31, 0x21	; 33
    uint8_t Checksum = CHECKSUM_INIT_VALUE;
    2508:	60 e0       	ldi	r22, 0x00	; 0
    while(ByteCount--) {
    250a:	51 e2       	ldi	r21, 0x21	; 33
    250c:	e2 3e       	cpi	r30, 0xE2	; 226
    250e:	f5 07       	cpc	r31, r21
    2510:	09 f0       	breq	.+2      	; 0x2514 <XModemProcessByte+0x1d6>
    2512:	45 c0       	rjmp	.+138    	; 0x259e <XModemProcessByte+0x260>
    2514:	8c e2       	ldi	r24, 0x2C	; 44
    2516:	90 e2       	ldi	r25, 0x20	; 32
    2518:	0e 94 dc 2b 	call	0x57b8	; 0x57b8 <CDC_Device_SendByte>
                BlockAddress += XMODEM_BLOCK_SIZE;
    251c:	80 91 e8 20 	lds	r24, 0x20E8	; 0x8020e8 <BlockAddress>
    2520:	90 91 e9 20 	lds	r25, 0x20E9	; 0x8020e9 <BlockAddress+0x1>
    2524:	a0 91 ea 20 	lds	r26, 0x20EA	; 0x8020ea <BlockAddress+0x2>
    2528:	b0 91 eb 20 	lds	r27, 0x20EB	; 0x8020eb <BlockAddress+0x3>
    252c:	80 58       	subi	r24, 0x80	; 128
    252e:	9f 4f       	sbci	r25, 0xFF	; 255
    2530:	af 4f       	sbci	r26, 0xFF	; 255
    2532:	bf 4f       	sbci	r27, 0xFF	; 255
    2534:	80 93 e8 20 	sts	0x20E8, r24	; 0x8020e8 <BlockAddress>
    2538:	90 93 e9 20 	sts	0x20E9, r25	; 0x8020e9 <BlockAddress+0x1>
    253c:	a0 93 ea 20 	sts	0x20EA, r26	; 0x8020ea <BlockAddress+0x2>
    2540:	b0 93 eb 20 	sts	0x20EB, r27	; 0x8020eb <BlockAddress+0x3>
    2544:	98 cf       	rjmp	.-208    	; 0x2476 <XModemProcessByte+0x138>
        if (Byte == BYTE_CAN) {
    2546:	88 31       	cpi	r24, 0x18	; 24
    2548:	09 f4       	brne	.+2      	; 0x254c <XModemProcessByte+0x20e>
    254a:	20 cf       	rjmp	.-448    	; 0x238c <XModemProcessByte+0x4e>
        } else if (Byte == BYTE_ACK) {
    254c:	86 30       	cpi	r24, 0x06	; 6
    254e:	09 f4       	brne	.+2      	; 0x2552 <XModemProcessByte+0x214>
    2550:	ac cf       	rjmp	.-168    	; 0x24aa <XModemProcessByte+0x16c>
        } else if (Byte == BYTE_NAK){
    2552:	85 31       	cpi	r24, 0x15	; 21
    2554:	09 f0       	breq	.+2      	; 0x2558 <XModemProcessByte+0x21a>
    2556:	22 cf       	rjmp	.-444    	; 0x239c <XModemProcessByte+0x5e>
    2558:	61 e0       	ldi	r22, 0x01	; 1
    255a:	8c e2       	ldi	r24, 0x2C	; 44
    255c:	90 e2       	ldi	r25, 0x20	; 32
    255e:	0e 94 dc 2b 	call	0x57b8	; 0x57b8 <CDC_Device_SendByte>
    2562:	60 91 f2 20 	lds	r22, 0x20F2	; 0x8020f2 <CurrentFrameNumber>
    2566:	8c e2       	ldi	r24, 0x2C	; 44
    2568:	90 e2       	ldi	r25, 0x20	; 32
    256a:	0e 94 dc 2b 	call	0x57b8	; 0x57b8 <CDC_Device_SendByte>
            TerminalSendByte(255 - CurrentFrameNumber);
    256e:	60 91 f2 20 	lds	r22, 0x20F2	; 0x8020f2 <CurrentFrameNumber>
    2572:	60 95       	com	r22
    2574:	8c e2       	ldi	r24, 0x2C	; 44
    2576:	90 e2       	ldi	r25, 0x20	; 32
    2578:	0e 94 dc 2b 	call	0x57b8	; 0x57b8 <CDC_Device_SendByte>
            TerminalSendBlock(TerminalBuffer, XMODEM_BLOCK_SIZE);
    257c:	60 e8       	ldi	r22, 0x80	; 128
    257e:	70 e0       	ldi	r23, 0x00	; 0
    2580:	82 e6       	ldi	r24, 0x62	; 98
    2582:	91 e2       	ldi	r25, 0x21	; 33
    2584:	45 db       	rcall	.-2422   	; 0x1c10 <TerminalSendBlock>
    2586:	e2 e6       	ldi	r30, 0x62	; 98
    2588:	f1 e2       	ldi	r31, 0x21	; 33
    uint8_t Checksum = CHECKSUM_INIT_VALUE;
    258a:	60 e0       	ldi	r22, 0x00	; 0
    while(ByteCount--) {
    258c:	81 e2       	ldi	r24, 0x21	; 33
    258e:	e2 3e       	cpi	r30, 0xE2	; 226
    2590:	f8 07       	cpc	r31, r24
    2592:	79 f4       	brne	.+30     	; 0x25b2 <XModemProcessByte+0x274>
    2594:	8c e2       	ldi	r24, 0x2C	; 44
    2596:	90 e2       	ldi	r25, 0x20	; 32
    2598:	0e 94 dc 2b 	call	0x57b8	; 0x57b8 <CDC_Device_SendByte>
    259c:	ff ce       	rjmp	.-514    	; 0x239c <XModemProcessByte+0x5e>
        Checksum += *DataPtr++;
    259e:	81 91       	ld	r24, Z+
    25a0:	68 0f       	add	r22, r24
    25a2:	b3 cf       	rjmp	.-154    	; 0x250a <XModemProcessByte+0x1cc>
    25a4:	64 e0       	ldi	r22, 0x04	; 4
    25a6:	8c e2       	ldi	r24, 0x2C	; 44
    25a8:	90 e2       	ldi	r25, 0x20	; 32
    25aa:	0e 94 dc 2b 	call	0x57b8	; 0x57b8 <CDC_Device_SendByte>
                State = STATE_SEND_EOT;
    25ae:	89 e0       	ldi	r24, 0x09	; 9
    25b0:	e8 ce       	rjmp	.-560    	; 0x2382 <XModemProcessByte+0x44>
        Checksum += *DataPtr++;
    25b2:	81 91       	ld	r24, Z+
    25b4:	68 0f       	add	r22, r24
    25b6:	ea cf       	rjmp	.-44     	; 0x258c <XModemProcessByte+0x24e>

000025b8 <XModemTick>:

void XModemTick(void)
{
    /* Timeouts go here */
    switch(State) {
    25b8:	80 91 f3 20 	lds	r24, 0x20F3	; 0x8020f3 <State>
    25bc:	81 30       	cpi	r24, 0x01	; 1
    25be:	19 f0       	breq	.+6      	; 0x25c6 <XModemTick+0xe>
    25c0:	87 30       	cpi	r24, 0x07	; 7
    25c2:	29 f1       	breq	.+74     	; 0x260e <XModemTick+0x56>
    25c4:	08 95       	ret
    case STATE_RECEIVE_INIT:
        if (RetryTimeout-- == 0) {
    25c6:	80 91 ee 20 	lds	r24, 0x20EE	; 0x8020ee <RetryTimeout>
    25ca:	90 91 ef 20 	lds	r25, 0x20EF	; 0x8020ef <RetryTimeout+0x1>
    25ce:	9c 01       	movw	r18, r24
    25d0:	21 50       	subi	r18, 0x01	; 1
    25d2:	31 09       	sbc	r19, r1
    25d4:	20 93 ee 20 	sts	0x20EE, r18	; 0x8020ee <RetryTimeout>
    25d8:	30 93 ef 20 	sts	0x20EF, r19	; 0x8020ef <RetryTimeout+0x1>
    25dc:	89 2b       	or	r24, r25
    25de:	31 f5       	brne	.+76     	; 0x262c <XModemTick+0x74>
            if (RetryCount-- > 0) {
    25e0:	80 91 f0 20 	lds	r24, 0x20F0	; 0x8020f0 <RetryCount>
    25e4:	9f ef       	ldi	r25, 0xFF	; 255
    25e6:	98 0f       	add	r25, r24
    25e8:	90 93 f0 20 	sts	0x20F0, r25	; 0x8020f0 <RetryCount>
    25ec:	88 23       	and	r24, r24
    25ee:	61 f0       	breq	.+24     	; 0x2608 <XModemTick+0x50>
INLINE void TerminalSendChar(char c) { CDC_Device_SendByte(&TerminalHandle, c); }
    25f0:	65 e1       	ldi	r22, 0x15	; 21
    25f2:	8c e2       	ldi	r24, 0x2C	; 44
    25f4:	90 e2       	ldi	r25, 0x20	; 32
    25f6:	0e 94 dc 2b 	call	0x57b8	; 0x57b8 <CDC_Device_SendByte>
            } else {
                /* Just shut off after some time. */
                State = STATE_OFF;
            }

            RetryTimeout = RECV_INIT_TIMEOUT;
    25fa:	85 e0       	ldi	r24, 0x05	; 5
    25fc:	90 e0       	ldi	r25, 0x00	; 0
    25fe:	80 93 ee 20 	sts	0x20EE, r24	; 0x8020ee <RetryTimeout>
    2602:	90 93 ef 20 	sts	0x20EF, r25	; 0x8020ef <RetryTimeout+0x1>
    2606:	08 95       	ret
                State = STATE_OFF;
    2608:	10 92 f3 20 	sts	0x20F3, r1	; 0x8020f3 <State>
    260c:	f6 cf       	rjmp	.-20     	; 0x25fa <XModemTick+0x42>
        }
        break;

    case STATE_SEND_INIT:
        if (RetryTimeout-- == 0) {
    260e:	80 91 ee 20 	lds	r24, 0x20EE	; 0x8020ee <RetryTimeout>
    2612:	90 91 ef 20 	lds	r25, 0x20EF	; 0x8020ef <RetryTimeout+0x1>
    2616:	9c 01       	movw	r18, r24
    2618:	21 50       	subi	r18, 0x01	; 1
    261a:	31 09       	sbc	r19, r1
    261c:	20 93 ee 20 	sts	0x20EE, r18	; 0x8020ee <RetryTimeout>
    2620:	30 93 ef 20 	sts	0x20EF, r19	; 0x8020ef <RetryTimeout+0x1>
    2624:	89 2b       	or	r24, r25
    2626:	11 f4       	brne	.+4      	; 0x262c <XModemTick+0x74>
            /* Abort */
            State = STATE_OFF;
    2628:	10 92 f3 20 	sts	0x20F3, r1	; 0x8020f3 <State>
        break;

    default:
        break;
    }
}
    262c:	08 95       	ret

0000262e <GetStatusMessageP>:

void (*CommandLinePendingTaskTimeout) (void) = NO_FUNCTION; // gets called on Timeout
static bool TaskPending = false;
static uint16_t TaskPendingSince;

static const char* GetStatusMessageP(CommandStatusIdType StatusId) {
    262e:	30 e0       	ldi	r19, 0x00	; 0
    2630:	20 e0       	ldi	r18, 0x00	; 0
    uint8_t i;
    for (i = 0; i < ARRAY_COUNT(StatusTable); i++) {
        if (pgm_read_byte(&StatusTable[i].Id) == StatusId)
    2632:	f9 01       	movw	r30, r18
    2634:	ef 5a       	subi	r30, 0xAF	; 175
    2636:	f7 4f       	sbci	r31, 0xF7	; 247
    2638:	e4 91       	lpm	r30, Z
    263a:	e8 13       	cpse	r30, r24
    263c:	04 c0       	rjmp	.+8      	; 0x2646 <GetStatusMessageP+0x18>
            return StatusTable[i].Message;
    263e:	c9 01       	movw	r24, r18
    2640:	8e 5a       	subi	r24, 0xAE	; 174
    2642:	97 4f       	sbci	r25, 0xF7	; 247
    2644:	08 95       	ret
    2646:	2f 5d       	subi	r18, 0xDF	; 223
    2648:	3f 4f       	sbci	r19, 0xFF	; 255
    for (i = 0; i < ARRAY_COUNT(StatusTable); i++) {
    264a:	26 3c       	cpi	r18, 0xC6	; 198
    264c:	31 05       	cpc	r19, r1
    264e:	89 f7       	brne	.-30     	; 0x2632 <GetStatusMessageP+0x4>
    }
    return (void*) 0;
    2650:	90 e0       	ldi	r25, 0x00	; 0
    2652:	80 e0       	ldi	r24, 0x00	; 0
}
    2654:	08 95       	ret

00002656 <CommandLineProcessByte>:

void CommandLineInit(void) {
  BufferIdx = 0;
}

bool CommandLineProcessByte(uint8_t b) {
    2656:	ef 92       	push	r14
    2658:	ff 92       	push	r15
    265a:	0f 93       	push	r16
    265c:	1f 93       	push	r17
    265e:	cf 93       	push	r28
    2660:	df 93       	push	r29
	if (IS_CHARACTER(b)) {
    2662:	98 2f       	mov	r25, r24
    2664:	9f 7d       	andi	r25, 0xDF	; 223
    2666:	91 54       	subi	r25, 0x41	; 65
    2668:	9a 31       	cpi	r25, 0x1A	; 26
    266a:	60 f0       	brcs	.+24     	; 0x2684 <CommandLineProcessByte+0x2e>
    266c:	90 ed       	ldi	r25, 0xD0	; 208
    266e:	98 0f       	add	r25, r24
    2670:	9a 30       	cpi	r25, 0x0A	; 10
    2672:	40 f0       	brcs	.+16     	; 0x2684 <CommandLineProcessByte+0x2e>
    2674:	8f 35       	cpi	r24, 0x5F	; 95
    2676:	31 f0       	breq	.+12     	; 0x2684 <CommandLineProcessByte+0x2e>
    2678:	98 2f       	mov	r25, r24
    267a:	9d 7f       	andi	r25, 0xFD	; 253
    267c:	9d 33       	cpi	r25, 0x3D	; 61
    267e:	11 f0       	breq	.+4      	; 0x2684 <CommandLineProcessByte+0x2e>
    2680:	80 32       	cpi	r24, 0x20	; 32
    2682:	f9 f4       	brne	.+62     	; 0x26c2 <CommandLineProcessByte+0x6c>
		
    /* Store uppercase character */
		if (IS_LOWERCASE(b))
    2684:	9f e9       	ldi	r25, 0x9F	; 159
    2686:	98 0f       	add	r25, r24
    2688:	9a 31       	cpi	r25, 0x1A	; 26
    268a:	08 f4       	brcc	.+2      	; 0x268e <CommandLineProcessByte+0x38>
			b = TO_UPPERCASE(b);
    268c:	80 52       	subi	r24, 0x20	; 32

    /* Prevent buffer overflow and account for '\0' */
		if (BufferIdx < TERMINAL_BUFFER_SIZE - 1)
    268e:	20 91 f9 20 	lds	r18, 0x20F9	; 0x8020f9 <BufferIdx>
    2692:	30 91 fa 20 	lds	r19, 0x20FA	; 0x8020fa <BufferIdx+0x1>
    2696:	2f 3f       	cpi	r18, 0xFF	; 255
    2698:	31 05       	cpc	r19, r1
    269a:	58 f4       	brcc	.+22     	; 0x26b2 <CommandLineProcessByte+0x5c>
			TerminalBuffer[BufferIdx++] = b;
    269c:	a9 01       	movw	r20, r18
    269e:	4f 5f       	subi	r20, 0xFF	; 255
    26a0:	5f 4f       	sbci	r21, 0xFF	; 255
    26a2:	40 93 f9 20 	sts	0x20F9, r20	; 0x8020f9 <BufferIdx>
    26a6:	50 93 fa 20 	sts	0x20FA, r21	; 0x8020fa <BufferIdx+0x1>
    26aa:	2e 59       	subi	r18, 0x9E	; 158
    26ac:	3e 4d       	sbci	r19, 0xDE	; 222
    26ae:	f9 01       	movw	r30, r18
    26b0:	80 83       	st	Z, r24
    BufferIdx = 0;
  } else {
    /* Ignore other chars */
  }
  return true;
}
    26b2:	81 e0       	ldi	r24, 0x01	; 1
    26b4:	df 91       	pop	r29
    26b6:	cf 91       	pop	r28
    26b8:	1f 91       	pop	r17
    26ba:	0f 91       	pop	r16
    26bc:	ff 90       	pop	r15
    26be:	ef 90       	pop	r14
    26c0:	08 95       	ret
	} else if (b == '\r') {
    26c2:	8d 30       	cpi	r24, 0x0D	; 13
    26c4:	09 f0       	breq	.+2      	; 0x26c8 <CommandLineProcessByte+0x72>
    26c6:	91 c0       	rjmp	.+290    	; 0x27ea <CommandLineProcessByte+0x194>
    TerminalBuffer[BufferIdx] = '\0';
    26c8:	e0 91 f9 20 	lds	r30, 0x20F9	; 0x8020f9 <BufferIdx>
    26cc:	f0 91 fa 20 	lds	r31, 0x20FA	; 0x8020fa <BufferIdx+0x1>
    26d0:	ee 59       	subi	r30, 0x9E	; 158
    26d2:	fe 4d       	sbci	r31, 0xDE	; 222
    26d4:	10 82       	st	Z, r1
    BufferIdx = 0;
    26d6:	10 92 f9 20 	sts	0x20F9, r1	; 0x8020f9 <BufferIdx>
    26da:	10 92 fa 20 	sts	0x20FA, r1	; 0x8020fa <BufferIdx+0x1>
        if (!TaskPending)
    26de:	10 91 f8 20 	lds	r17, 0x20F8	; 0x8020f8 <TaskPending>
    26e2:	11 11       	cpse	r17, r1
    26e4:	e6 cf       	rjmp	.-52     	; 0x26b2 <CommandLineProcessByte+0x5c>
  if (!IS_COMMAND_DELIMITER(pTerminalBuffer[0])) {
    26e6:	80 91 62 21 	lds	r24, 0x2162	; 0x802162 <TerminalBuffer>
    26ea:	98 2f       	mov	r25, r24
    26ec:	9f 7d       	andi	r25, 0xDF	; 223
    26ee:	09 f4       	brne	.+2      	; 0x26f2 <CommandLineProcessByte+0x9c>
    26f0:	64 c0       	rjmp	.+200    	; 0x27ba <CommandLineProcessByte+0x164>
    26f2:	8d 7f       	andi	r24, 0xFD	; 253
    26f4:	8d 33       	cpi	r24, 0x3D	; 61
    26f6:	09 f4       	brne	.+2      	; 0x26fa <CommandLineProcessByte+0xa4>
    26f8:	60 c0       	rjmp	.+192    	; 0x27ba <CommandLineProcessByte+0x164>
    26fa:	e2 e6       	ldi	r30, 0x62	; 98
    26fc:	f1 e2       	ldi	r31, 0x21	; 33
    26fe:	7f 01       	movw	r14, r30
    while(!(IS_COMMAND_DELIMITER(*pCommandDelimiter)))
    2700:	01 91       	ld	r16, Z+
    2702:	00 23       	and	r16, r16
    2704:	31 f0       	breq	.+12     	; 0x2712 <CommandLineProcessByte+0xbc>
    2706:	0f 33       	cpi	r16, 0x3F	; 63
    2708:	21 f0       	breq	.+8      	; 0x2712 <CommandLineProcessByte+0xbc>
    270a:	0d 33       	cpi	r16, 0x3D	; 61
    270c:	11 f0       	breq	.+4      	; 0x2712 <CommandLineProcessByte+0xbc>
    270e:	00 32       	cpi	r16, 0x20	; 32
    2710:	b1 f7       	brne	.-20     	; 0x26fe <CommandLineProcessByte+0xa8>
    *pCommandDelimiter = '\0';
    2712:	f7 01       	movw	r30, r14
    2714:	10 82       	st	Z, r1
    2716:	d0 e0       	ldi	r29, 0x00	; 0
    2718:	c0 e0       	ldi	r28, 0x00	; 0
      if (strcmp_P(pTerminalBuffer, CommandTable[i].Command) == 0) {
    271a:	be 01       	movw	r22, r28
    271c:	69 5e       	subi	r22, 0xE9	; 233
    271e:	76 4f       	sbci	r23, 0xF6	; 246
    2720:	82 e6       	ldi	r24, 0x62	; 98
    2722:	91 e2       	ldi	r25, 0x21	; 33
    2724:	0e 94 20 2e 	call	0x5c40	; 0x5c40 <strcmp_P>
    2728:	89 2b       	or	r24, r25
    272a:	09 f0       	breq	.+2      	; 0x272e <CommandLineProcessByte+0xd8>
    272c:	40 c0       	rjmp	.+128    	; 0x27ae <CommandLineProcessByte+0x158>
        pTerminalBuffer[0] = '\0';
    272e:	10 92 62 21 	sts	0x2162, r1	; 0x802162 <TerminalBuffer>
    CommandGetFuncType GetFunc = pgm_read_ptr(&CommandEntry->GetFunc);
    2732:	fe 01       	movw	r30, r28
    2734:	e3 5d       	subi	r30, 0xD3	; 211
    2736:	f6 4f       	sbci	r31, 0xF6	; 246
  if (CommandDelimiter == CHAR_GET_MODE) {
    2738:	0f 33       	cpi	r16, 0x3F	; 63
    273a:	69 f0       	breq	.+26     	; 0x2756 <CommandLineProcessByte+0x100>
        char* pParam = ++pCommandDelimiter;
    273c:	b7 01       	movw	r22, r14
    273e:	6f 5f       	subi	r22, 0xFF	; 255
    2740:	7f 4f       	sbci	r23, 0xFF	; 255
    CommandSetFuncType SetFunc = pgm_read_ptr(&CommandEntry->SetFunc);
    2742:	fe 01       	movw	r30, r28
    2744:	e5 5d       	subi	r30, 0xD5	; 213
    2746:	f6 4f       	sbci	r31, 0xF6	; 246
  } else if (CommandDelimiter == CHAR_SET_MODE) {
    2748:	0d 33       	cpi	r16, 0x3D	; 61
    274a:	39 f1       	breq	.+78     	; 0x279a <CommandLineProcessByte+0x144>
  } else if (CommandDelimiter == CHAR_EXEC_MODE){
    274c:	01 11       	cpse	r16, r1
    274e:	20 c0       	rjmp	.+64     	; 0x2790 <CommandLineProcessByte+0x13a>
    CommandExecFuncType ExecFunc = pgm_read_ptr(&CommandEntry->ExecFunc);
    2750:	fe 01       	movw	r30, r28
    2752:	e9 5d       	subi	r30, 0xD9	; 217
    2754:	f6 4f       	sbci	r31, 0xF6	; 246
    2756:	25 91       	lpm	r18, Z+
    2758:	34 91       	lpm	r19, Z
    if (ExecFunc != NO_FUNCTION) {
    275a:	21 15       	cp	r18, r1
    275c:	31 05       	cpc	r19, r1
    275e:	09 f4       	brne	.+2      	; 0x2762 <CommandLineProcessByte+0x10c>
    2760:	41 c0       	rjmp	.+130    	; 0x27e4 <CommandLineProcessByte+0x18e>
            Status = ExecFunc(pTerminalBuffer);
    2762:	82 e6       	ldi	r24, 0x62	; 98
    2764:	91 e2       	ldi	r25, 0x21	; 33
    2766:	f9 01       	movw	r30, r18
    2768:	09 95       	icall
	if (Status == TIMEOUT_COMMAND) {
    276a:	8f 3f       	cpi	r24, 0xFF	; 255
    276c:	09 f0       	breq	.+2      	; 0x2770 <CommandLineProcessByte+0x11a>
    276e:	3b c0       	rjmp	.+118    	; 0x27e6 <CommandLineProcessByte+0x190>
        TaskPending = true;
    2770:	81 e0       	ldi	r24, 0x01	; 1
    2772:	80 93 f8 20 	sts	0x20F8, r24	; 0x8020f8 <TaskPending>

    return false;
}

INLINE uint16_t SystemGetSysTick(void) {
    return SYSTEM_TICK_REGISTER | RTC.CNT;
    2776:	8e b1       	in	r24, 0x0e	; 14
    2778:	9f b1       	in	r25, 0x0f	; 15
    277a:	20 91 08 04 	lds	r18, 0x0408	; 0x800408 <__TEXT_REGION_LENGTH__+0x700408>
    277e:	30 91 09 04 	lds	r19, 0x0409	; 0x800409 <__TEXT_REGION_LENGTH__+0x700409>
    2782:	82 2b       	or	r24, r18
    2784:	93 2b       	or	r25, r19
        TaskPendingSince = SystemGetSysTick();
    2786:	80 93 f6 20 	sts	0x20F6, r24	; 0x8020f6 <TaskPendingSince>
    278a:	90 93 f7 20 	sts	0x20F7, r25	; 0x8020f7 <TaskPendingSince+0x1>
    278e:	91 cf       	rjmp	.-222    	; 0x26b2 <CommandLineProcessByte+0x5c>
    } else if (CommandDelimiter == CHAR_EXEC_MODE_PARAM) {
    2790:	00 32       	cpi	r16, 0x20	; 32
    2792:	41 f5       	brne	.+80     	; 0x27e4 <CommandLineProcessByte+0x18e>
        CommandExecParamFuncType ExecParamFunc = pgm_read_ptr(&CommandEntry->ExecParamFunc);
    2794:	fe 01       	movw	r30, r28
    2796:	e7 5d       	subi	r30, 0xD7	; 215
    2798:	f6 4f       	sbci	r31, 0xF6	; 246
    279a:	25 91       	lpm	r18, Z+
    279c:	34 91       	lpm	r19, Z
        if (ExecParamFunc != NO_FUNCTION) {
    279e:	21 15       	cp	r18, r1
    27a0:	31 05       	cpc	r19, r1
    27a2:	01 f1       	breq	.+64     	; 0x27e4 <CommandLineProcessByte+0x18e>
            Status = ExecParamFunc(pTerminalBuffer, pParam);
    27a4:	82 e6       	ldi	r24, 0x62	; 98
    27a6:	91 e2       	ldi	r25, 0x21	; 33
    27a8:	f9 01       	movw	r30, r18
    27aa:	09 95       	icall
    27ac:	de cf       	rjmp	.-68     	; 0x276a <CommandLineProcessByte+0x114>
    27ae:	68 96       	adiw	r28, 0x18	; 24
    for (i = 0; i < ARRAY_COUNT(CommandTable); i++) {
    27b0:	c0 3e       	cpi	r28, 0xE0	; 224
    27b2:	f1 e0       	ldi	r31, 0x01	; 1
    27b4:	df 07       	cpc	r29, r31
    27b6:	09 f0       	breq	.+2      	; 0x27ba <CommandLineProcessByte+0x164>
    27b8:	b0 cf       	rjmp	.-160    	; 0x271a <CommandLineProcessByte+0xc4>
  CommandStatusIdType StatusId = COMMAND_ERR_UNKNOWN_CMD_ID;
    27ba:	88 ec       	ldi	r24, 0xC8	; 200
  TerminalSendStringP(GetStatusMessageP(StatusId));
    27bc:	38 df       	rcall	.-400    	; 0x262e <GetStatusMessageP>
    27be:	18 da       	rcall	.-3024   	; 0x1bf0 <TerminalSendStringP>
  TerminalSendStringP(PSTR(STATUS_MESSAGE_TRAILER));
    27c0:	8e e4       	ldi	r24, 0x4E	; 78
    27c2:	98 e0       	ldi	r25, 0x08	; 8
    27c4:	15 da       	rcall	.-3030   	; 0x1bf0 <TerminalSendStringP>
  if (CommandFound && (pTerminalBuffer[0] != '\0') ) {
    27c6:	11 23       	and	r17, r17
    27c8:	09 f4       	brne	.+2      	; 0x27cc <CommandLineProcessByte+0x176>
    27ca:	73 cf       	rjmp	.-282    	; 0x26b2 <CommandLineProcessByte+0x5c>
    27cc:	80 91 62 21 	lds	r24, 0x2162	; 0x802162 <TerminalBuffer>
    27d0:	88 23       	and	r24, r24
    27d2:	09 f4       	brne	.+2      	; 0x27d6 <CommandLineProcessByte+0x180>
    TerminalSendString(pTerminalBuffer);
    27d4:	6e cf       	rjmp	.-292    	; 0x26b2 <CommandLineProcessByte+0x5c>
    27d6:	82 e6       	ldi	r24, 0x62	; 98
    27d8:	91 e2       	ldi	r25, 0x21	; 33
    TerminalSendStringP(PSTR(OPTIONAL_ANSWER_TRAILER));
    27da:	05 da       	rcall	.-3062   	; 0x1be6 <TerminalSendString>
    27dc:	8b e4       	ldi	r24, 0x4B	; 75
    27de:	98 e0       	ldi	r25, 0x08	; 8
    27e0:	07 da       	rcall	.-3058   	; 0x1bf0 <TerminalSendStringP>
    27e2:	67 cf       	rjmp	.-306    	; 0x26b2 <CommandLineProcessByte+0x5c>
  CommandStatusIdType Status = COMMAND_ERR_INVALID_USAGE_ID;
    27e4:	89 ec       	ldi	r24, 0xC9	; 201
        CommandFound = true;
    27e6:	11 e0       	ldi	r17, 0x01	; 1
    27e8:	e9 cf       	rjmp	.-46     	; 0x27bc <CommandLineProcessByte+0x166>
	} else if (b == '\b') {
    27ea:	88 30       	cpi	r24, 0x08	; 8
    27ec:	69 f4       	brne	.+26     	; 0x2808 <CommandLineProcessByte+0x1b2>
		if (BufferIdx > 0)
    27ee:	80 91 f9 20 	lds	r24, 0x20F9	; 0x8020f9 <BufferIdx>
    27f2:	90 91 fa 20 	lds	r25, 0x20FA	; 0x8020fa <BufferIdx+0x1>
    27f6:	00 97       	sbiw	r24, 0x00	; 0
    27f8:	09 f4       	brne	.+2      	; 0x27fc <CommandLineProcessByte+0x1a6>
    27fa:	5b cf       	rjmp	.-330    	; 0x26b2 <CommandLineProcessByte+0x5c>
      BufferIdx--;
    27fc:	01 97       	sbiw	r24, 0x01	; 1
    27fe:	80 93 f9 20 	sts	0x20F9, r24	; 0x8020f9 <BufferIdx>
    2802:	90 93 fa 20 	sts	0x20FA, r25	; 0x8020fa <BufferIdx+0x1>
    2806:	55 cf       	rjmp	.-342    	; 0x26b2 <CommandLineProcessByte+0x5c>
	} else if (b == 0x1B) {
    2808:	8b 31       	cpi	r24, 0x1B	; 27
    280a:	09 f0       	breq	.+2      	; 0x280e <CommandLineProcessByte+0x1b8>
    280c:	52 cf       	rjmp	.-348    	; 0x26b2 <CommandLineProcessByte+0x5c>
    BufferIdx = 0;
    280e:	10 92 f9 20 	sts	0x20F9, r1	; 0x8020f9 <BufferIdx>
    2812:	10 92 fa 20 	sts	0x20FA, r1	; 0x8020fa <BufferIdx+0x1>
    2816:	4d cf       	rjmp	.-358    	; 0x26b2 <CommandLineProcessByte+0x5c>

00002818 <CommandLineTick>:
        CommandLinePendingTaskTimeout = NO_FUNCTION;
    }
}

void CommandLineTick(void) {
    if (TaskPending
    2818:	80 91 f8 20 	lds	r24, 0x20F8	; 0x8020f8 <TaskPending>
    281c:	88 23       	and	r24, r24
    281e:	89 f1       	breq	.+98     	; 0x2882 <CommandLineTick+0x6a>
			 && GlobalSettings.ActiveSettingPtr->PendingTaskTimeout != 0	// 0 means no timeout
    2820:	e0 91 01 20 	lds	r30, 0x2001	; 0x802001 <GlobalSettings+0x1>
    2824:	f0 91 02 20 	lds	r31, 0x2002	; 0x802002 <GlobalSettings+0x2>
    2828:	23 81       	ldd	r18, Z+3	; 0x03
    282a:	34 81       	ldd	r19, Z+4	; 0x04
    282c:	21 15       	cp	r18, r1
    282e:	31 05       	cpc	r19, r1
    2830:	41 f1       	breq	.+80     	; 0x2882 <CommandLineTick+0x6a>
    2832:	8e b1       	in	r24, 0x0e	; 14
    2834:	9f b1       	in	r25, 0x0f	; 15
    2836:	40 91 08 04 	lds	r20, 0x0408	; 0x800408 <__TEXT_REGION_LENGTH__+0x700408>
    283a:	50 91 09 04 	lds	r21, 0x0409	; 0x800409 <__TEXT_REGION_LENGTH__+0x700409>
    283e:	84 2b       	or	r24, r20
    2840:	95 2b       	or	r25, r21
             && SYSTICK_DIFF_100MS(TaskPendingSince) >= GlobalSettings.ActiveSettingPtr->PendingTaskTimeout) {	// timeout expired
    2842:	40 91 f6 20 	lds	r20, 0x20F6	; 0x8020f6 <TaskPendingSince>
    2846:	50 91 f7 20 	lds	r21, 0x20F7	; 0x8020f7 <TaskPendingSince+0x1>
    284a:	84 1b       	sub	r24, r20
    284c:	95 0b       	sbc	r25, r21
    284e:	64 e6       	ldi	r22, 0x64	; 100
    2850:	70 e0       	ldi	r23, 0x00	; 0
    2852:	0e 94 5a 2d 	call	0x5ab4	; 0x5ab4 <__udivmodhi4>
    2856:	62 17       	cp	r22, r18
    2858:	73 07       	cpc	r23, r19
    285a:	98 f0       	brcs	.+38     	; 0x2882 <CommandLineTick+0x6a>
    TaskPending = false;
    285c:	10 92 f8 20 	sts	0x20F8, r1	; 0x8020f8 <TaskPending>
    TerminalSendStringP(GetStatusMessageP(COMMAND_ERR_TIMEOUT_ID));
    2860:	8b ec       	ldi	r24, 0xCB	; 203
    2862:	e5 de       	rcall	.-566    	; 0x262e <GetStatusMessageP>
    2864:	c5 d9       	rcall	.-3190   	; 0x1bf0 <TerminalSendStringP>
    TerminalSendStringP(PSTR(STATUS_MESSAGE_TRAILER));
    2866:	88 e4       	ldi	r24, 0x48	; 72
    2868:	98 e0       	ldi	r25, 0x08	; 8
    286a:	c2 d9       	rcall	.-3196   	; 0x1bf0 <TerminalSendStringP>
    if (CommandLinePendingTaskTimeout != NO_FUNCTION) {
    286c:	e0 91 f4 20 	lds	r30, 0x20F4	; 0x8020f4 <CommandLinePendingTaskTimeout>
    2870:	f0 91 f5 20 	lds	r31, 0x20F5	; 0x8020f5 <CommandLinePendingTaskTimeout+0x1>
    2874:	30 97       	sbiw	r30, 0x00	; 0
    2876:	29 f0       	breq	.+10     	; 0x2882 <CommandLineTick+0x6a>
        CommandLinePendingTaskTimeout(); // call the function that ends the task
    2878:	09 95       	icall
        CommandLinePendingTaskTimeout = NO_FUNCTION;
    287a:	10 92 f4 20 	sts	0x20F4, r1	; 0x8020f4 <CommandLinePendingTaskTimeout>
    287e:	10 92 f5 20 	sts	0x20F5, r1	; 0x8020f5 <CommandLinePendingTaskTimeout+0x1>
        Timeout();
    }
}
    2882:	08 95       	ret

00002884 <StartDemod>:
}

INLINE void CodecSetDemodPower(bool bOnOff) {
    CODEC_DEMOD_POWER_PORT.DIRSET = CODEC_DEMOD_POWER_MASK;
    2884:	a0 e2       	ldi	r26, 0x20	; 32
    2886:	b6 e0       	ldi	r27, 0x06	; 6
    2888:	82 e0       	ldi	r24, 0x02	; 2
    288a:	11 96       	adiw	r26, 0x01	; 1
    288c:	8c 93       	st	X, r24
    288e:	11 97       	sbiw	r26, 0x01	; 1

    if (bOnOff) {
        CODEC_DEMOD_POWER_PORT.OUTSET = CODEC_DEMOD_POWER_MASK;
    2890:	15 96       	adiw	r26, 0x05	; 5
    2892:	8c 93       	st	X, r24
    2894:	15 97       	sbiw	r26, 0x05	; 5
static void StartDemod(void) {
    /* Activate Power for demodulator */
    CodecSetDemodPower(true);

    /* Configure sampling-timer free running and sync to first modulation-pause. */
    CODEC_TIMER_SAMPLING.CNT = 0;
    2896:	e0 e4       	ldi	r30, 0x40	; 64
    2898:	f8 e0       	ldi	r31, 0x08	; 8
    289a:	10 a2       	std	Z+32, r1	; 0x20
    289c:	11 a2       	std	Z+33, r1	; 0x21
    CODEC_TIMER_SAMPLING.PER = SAMPLE_RATE_SYSTEM_CYCLES - 1;
    289e:	8d e2       	ldi	r24, 0x2D	; 45
    28a0:	91 e0       	ldi	r25, 0x01	; 1
    28a2:	86 a3       	std	Z+38, r24	; 0x26
    28a4:	97 a3       	std	Z+39, r25	; 0x27
    CODEC_TIMER_SAMPLING.CCA = 0xFFFF; /* CCA Interrupt is not active! */
    28a6:	8f ef       	ldi	r24, 0xFF	; 255
    28a8:	9f ef       	ldi	r25, 0xFF	; 255
    28aa:	80 a7       	std	Z+40, r24	; 0x28
    28ac:	91 a7       	std	Z+41, r25	; 0x29
    CODEC_TIMER_SAMPLING.CTRLA = TC_CLKSEL_DIV1_gc;
    28ae:	81 e0       	ldi	r24, 0x01	; 1
    28b0:	80 83       	st	Z, r24
    CODEC_TIMER_SAMPLING.CTRLD = TC_EVACT_RESTART_gc | TC_EVSEL_CH0_gc;
    28b2:	98 e8       	ldi	r25, 0x88	; 136
    28b4:	93 83       	std	Z+3, r25	; 0x03
    CODEC_TIMER_SAMPLING.INTCTRLB = TC_CCAINTLVL_HI_gc;
    28b6:	93 e0       	ldi	r25, 0x03	; 3
    28b8:	97 83       	std	Z+7, r25	; 0x07

    /* Start looking out for modulation pause via interrupt. */
    CODEC_DEMOD_IN_PORT.INT0MASK = CODEC_DEMOD_IN_MASK0;
    28ba:	1a 96       	adiw	r26, 0x0a	; 10
    28bc:	8c 93       	st	X, r24
}
    28be:	08 95       	ret

000028c0 <__vector_34>:

ISR(CODEC_DEMOD_IN_INT0_VECT) {
    28c0:	1f 92       	push	r1
    28c2:	0f 92       	push	r0
    28c4:	0f b6       	in	r0, 0x3f	; 63
    28c6:	0f 92       	push	r0
    28c8:	11 24       	eor	r1, r1
    28ca:	8f 93       	push	r24
    28cc:	9f 93       	push	r25
    28ce:	ef 93       	push	r30
    28d0:	ff 93       	push	r31
    /* This is the first edge of the first modulation-pause after StartDemod.
     * Now we have time to prepare our timers and variables to start
     * demodulating beginning from one bit-width after this edge. */
    CodecBufferPtr = CodecBuffer;
    28d2:	82 e6       	ldi	r24, 0x62	; 98
    28d4:	92 e2       	ldi	r25, 0x22	; 34
    28d6:	80 93 07 21 	sts	0x2107, r24	; 0x802107 <CodecBufferPtr>
    28da:	90 93 08 21 	sts	0x2108, r25	; 0x802108 <CodecBufferPtr+0x1>
    ParityBufferPtr = &CodecBuffer[ISO14443A_BUFFER_PARITY_OFFSET];
    28de:	82 ee       	ldi	r24, 0xE2	; 226
    28e0:	92 e2       	ldi	r25, 0x22	; 34
    28e2:	80 93 05 21 	sts	0x2105, r24	; 0x802105 <ParityBufferPtr>
    28e6:	90 93 06 21 	sts	0x2106, r25	; 0x802106 <ParityBufferPtr+0x1>
    DataRegister = 0;
    28ea:	10 92 00 21 	sts	0x2100, r1	; 0x802100 <DataRegister>
    SampleRegister = 0;
    28ee:	10 92 ff 20 	sts	0x20FF, r1	; 0x8020ff <SampleRegister>
    SamplePosition = 0;
    28f2:	10 92 fb 20 	sts	0x20FB, r1	; 0x8020fb <SamplePosition>
    BitCount = 0;
    28f6:	10 92 03 21 	sts	0x2103, r1	; 0x802103 <BitCount>
    28fa:	10 92 04 21 	sts	0x2104, r1	; 0x802104 <BitCount+0x1>
    IsParityBit = false;
    28fe:	10 92 fe 20 	sts	0x20FE, r1	; 0x8020fe <IsParityBit>
     * XYZBUF mechanism of the xmega to automatically double the sampling rate on the
     * next overflow. For this we have to temporarily deactivate the automatical alignment
     * in order to catch next overflow event for updating the BUF registers.
     * We want to sample the demodulated data stream in the first quarter of the half-bit
     * where the pulsed miller encoded is located. */
    CODEC_TIMER_SAMPLING.CTRLD = TC_EVACT_OFF_gc;
    2902:	e0 e4       	ldi	r30, 0x40	; 64
    2904:	f8 e0       	ldi	r31, 0x08	; 8
    2906:	13 82       	std	Z+3, r1	; 0x03
    CODEC_TIMER_SAMPLING.PERBUF = SAMPLE_RATE_SYSTEM_CYCLES/2 - 1; /* Half bit width */
    2908:	86 e9       	ldi	r24, 0x96	; 150
    290a:	90 e0       	ldi	r25, 0x00	; 0
    290c:	86 ab       	std	Z+54, r24	; 0x36
    290e:	97 ab       	std	Z+55, r25	; 0x37
    CODEC_TIMER_SAMPLING.CCABUF = SAMPLE_RATE_SYSTEM_CYCLES/8 - 10 - 1; /* Compensate for DIGFILT and ISR prolog */
    2910:	8a e1       	ldi	r24, 0x1A	; 26
    2912:	90 e0       	ldi	r25, 0x00	; 0
    2914:	80 af       	std	Z+56, r24	; 0x38
    2916:	91 af       	std	Z+57, r25	; 0x39
    /* Setup Frame Delay Timer and wire to EVSYS. Frame delay time is
     * measured from last change in RF field, therefore we use
     * the event channel 1 (end of modulation pause) as the restart event.
     * The preliminary frame delay time chosen here is irrelevant, because
     * the correct FDT gets set automatically after demodulation. */
    CODEC_TIMER_LOADMOD.CNT = 0;
    2918:	e0 e4       	ldi	r30, 0x40	; 64
    291a:	f9 e0       	ldi	r31, 0x09	; 9
    291c:	10 a2       	std	Z+32, r1	; 0x20
    291e:	11 a2       	std	Z+33, r1	; 0x21
    CODEC_TIMER_LOADMOD.PER = 0xFFFF;
    2920:	8f ef       	ldi	r24, 0xFF	; 255
    2922:	9f ef       	ldi	r25, 0xFF	; 255
    2924:	86 a3       	std	Z+38, r24	; 0x26
    2926:	97 a3       	std	Z+39, r25	; 0x27
    CODEC_TIMER_LOADMOD.CTRLD = TC_EVACT_RESTART_gc | TC_EVSEL_CH1_gc;
    2928:	89 e8       	ldi	r24, 0x89	; 137
    292a:	83 83       	std	Z+3, r24	; 0x03
    CODEC_TIMER_LOADMOD.CTRLA = TC_CLKSEL_EVCH6_gc;
    292c:	8e e0       	ldi	r24, 0x0E	; 14
    292e:	80 83       	st	Z, r24

    /* Disable this interrupt */
    CODEC_DEMOD_IN_PORT.INT0MASK = 0;
    2930:	10 92 2a 06 	sts	0x062A, r1	; 0x80062a <__TEXT_REGION_LENGTH__+0x70062a>
}
    2934:	ff 91       	pop	r31
    2936:	ef 91       	pop	r30
    2938:	9f 91       	pop	r25
    293a:	8f 91       	pop	r24
    293c:	0f 90       	pop	r0
    293e:	0f be       	out	0x3f, r0	; 63
    2940:	0f 90       	pop	r0
    2942:	1f 90       	pop	r1
    2944:	18 95       	reti

00002946 <__vector_22>:

ISR(CODEC_TIMER_SAMPLING_CCA_VECT) {
    2946:	1f 92       	push	r1
    2948:	0f 92       	push	r0
    294a:	0f b6       	in	r0, 0x3f	; 63
    294c:	0f 92       	push	r0
    294e:	11 24       	eor	r1, r1
    2950:	2f 93       	push	r18
    2952:	3f 93       	push	r19
    2954:	8f 93       	push	r24
    2956:	9f 93       	push	r25
    2958:	ef 93       	push	r30
    295a:	ff 93       	push	r31
    /* This interrupt gets called twice for every bit to sample it. */
    uint8_t SamplePin = CODEC_DEMOD_IN_PORT.IN & CODEC_DEMOD_IN_MASK;
    295c:	20 91 28 06 	lds	r18, 0x0628	; 0x800628 <__TEXT_REGION_LENGTH__+0x700628>
    uint8_t NewSampleRegister;

    /* Shift sampled bit into sampling register and hold a local copy for fast access. */
    NewSampleRegister = SampleRegister << 1;
    2960:	90 91 ff 20 	lds	r25, 0x20FF	; 0x8020ff <SampleRegister>
    uint8_t SamplePin = CODEC_DEMOD_IN_PORT.IN & CODEC_DEMOD_IN_MASK;
    2964:	25 70       	andi	r18, 0x05	; 5
    NewSampleRegister |= (!SamplePin ? 0x01 : 0x00);
    2966:	81 e0       	ldi	r24, 0x01	; 1
    2968:	09 f0       	breq	.+2      	; 0x296c <__vector_22+0x26>
    296a:	80 e0       	ldi	r24, 0x00	; 0
    NewSampleRegister = SampleRegister << 1;
    296c:	99 0f       	add	r25, r25
    NewSampleRegister |= (!SamplePin ? 0x01 : 0x00);
    296e:	89 2b       	or	r24, r25
    SampleRegister = NewSampleRegister;
    2970:	80 93 ff 20 	sts	0x20FF, r24	; 0x8020ff <SampleRegister>

    if (SamplePosition) {
    2974:	90 91 fb 20 	lds	r25, 0x20FB	; 0x8020fb <SamplePosition>
    2978:	99 23       	and	r25, r25
    297a:	89 f1       	breq	.+98     	; 0x29de <__vector_22+0x98>
        /* Analyze the sampling register after 2 samples. */
        if ((NewSampleRegister & 0x07) == 0x07) {
    297c:	98 2f       	mov	r25, r24
    297e:	97 70       	andi	r25, 0x07	; 7
    2980:	97 30       	cpi	r25, 0x07	; 7
    2982:	09 f0       	breq	.+2      	; 0x2986 <__vector_22+0x40>
    2984:	45 c0       	rjmp	.+138    	; 0x2a10 <__vector_22+0xca>
            /* No carrier modulation for 3 sample points. EOC! */
            CODEC_TIMER_SAMPLING.CTRLA = TC_CLKSEL_OFF_gc;
    2986:	10 92 40 08 	sts	0x0840, r1	; 0x800840 <__TEXT_REGION_LENGTH__+0x700840>
            CODEC_TIMER_SAMPLING.INTFLAGS = TC0_CCAIF_bm;
    298a:	80 e1       	ldi	r24, 0x10	; 16
    298c:	80 93 4c 08 	sts	0x084C, r24	; 0x80084c <__TEXT_REGION_LENGTH__+0x70084c>

            /* By this time, the FDT timer is aligned to the last modulation
             * edge of the reader. So we disable the auto-synchronization and
             * let it count the frame delay time in the background, and generate
             * an interrupt once it has reached the FDT. */
            CODEC_TIMER_LOADMOD.CTRLD = TC_EVACT_OFF_gc;
    2990:	10 92 43 09 	sts	0x0943, r1	; 0x800943 <__TEXT_REGION_LENGTH__+0x700943>

            if (LastBit) {
    2994:	80 91 fd 20 	lds	r24, 0x20FD	; 0x8020fd <LastBit>
    2998:	88 23       	and	r24, r24
    299a:	a9 f1       	breq	.+106    	; 0x2a06 <__vector_22+0xc0>
                CODEC_TIMER_LOADMOD.PER = ISO14443A_FRAME_DELAY_PREV1;
    299c:	8c eb       	ldi	r24, 0xBC	; 188
    299e:	94 e0       	ldi	r25, 0x04	; 4
            } else {
                CODEC_TIMER_LOADMOD.PER = ISO14443A_FRAME_DELAY_PREV0;
    29a0:	80 93 66 09 	sts	0x0966, r24	; 0x800966 <__TEXT_REGION_LENGTH__+0x700966>
    29a4:	90 93 67 09 	sts	0x0967, r25	; 0x800967 <__TEXT_REGION_LENGTH__+0x700967>
            }

            LoadModState = LOADMOD_FDT;
    29a8:	10 92 fc 20 	sts	0x20FC, r1	; 0x8020fc <LoadModState>

            CODEC_TIMER_LOADMOD.INTFLAGS = TC1_OVFIF_bm;
    29ac:	81 e0       	ldi	r24, 0x01	; 1
    29ae:	80 93 4c 09 	sts	0x094C, r24	; 0x80094c <__TEXT_REGION_LENGTH__+0x70094c>
            CODEC_TIMER_LOADMOD.INTCTRLA = TC_OVFINTLVL_HI_gc;
    29b2:	83 e0       	ldi	r24, 0x03	; 3
    29b4:	80 93 46 09 	sts	0x0946, r24	; 0x800946 <__TEXT_REGION_LENGTH__+0x700946>

            /* Determine if we did not receive a multiple of 8 bits.
             * If this is the case, right-align the remaining data and
             * store it into the buffer. */
            uint8_t RemainingBits = BitCount % 8;
    29b8:	80 91 03 21 	lds	r24, 0x2103	; 0x802103 <BitCount>
    29bc:	90 91 04 21 	lds	r25, 0x2104	; 0x802104 <BitCount+0x1>
    29c0:	87 70       	andi	r24, 0x07	; 7
            if (RemainingBits != 0) {
    29c2:	51 f0       	breq	.+20     	; 0x29d8 <__vector_22+0x92>
                uint8_t NewDataRegister = DataRegister;
    29c4:	90 91 00 21 	lds	r25, 0x2100	; 0x802100 <DataRegister>

                while (RemainingBits++ < 8) {
    29c8:	8f 5f       	subi	r24, 0xFF	; 255
    29ca:	89 30       	cpi	r24, 0x09	; 9
    29cc:	f9 f4       	brne	.+62     	; 0x2a0c <__vector_22+0xc6>
                    /* Pad with zeroes to right-align. */
                    NewDataRegister >>= 1;
                }

                /* TODO: Prevent buffer overflow */
                *CodecBufferPtr = NewDataRegister;
    29ce:	e0 91 07 21 	lds	r30, 0x2107	; 0x802107 <CodecBufferPtr>
    29d2:	f0 91 08 21 	lds	r31, 0x2108	; 0x802108 <CodecBufferPtr+0x1>
    29d6:	90 83       	st	Z, r25
            }

            /* Signal, that we have finished sampling */
            Flags.DemodFinished = 1;
    29d8:	81 e0       	ldi	r24, 0x01	; 1
    29da:	80 93 09 21 	sts	0x2109, r24	; 0x802109 <Flags>
        }
    } else {
        /* On odd sample position just sample. */
    }

    SamplePosition = !SamplePosition;
    29de:	80 91 fb 20 	lds	r24, 0x20FB	; 0x8020fb <SamplePosition>
    29e2:	91 e0       	ldi	r25, 0x01	; 1
    29e4:	89 27       	eor	r24, r25
    29e6:	80 93 fb 20 	sts	0x20FB, r24	; 0x8020fb <SamplePosition>

    /* Make sure the sampling timer gets automatically aligned to the
     * modulation pauses by using the RESTART event.
     * This can be understood as a "poor mans PLL" and makes sure that we are
     * never too far out the bit-grid while sampling. */
    CODEC_TIMER_SAMPLING.CTRLD = TC_EVACT_RESTART_gc | TC_EVSEL_CH0_gc;
    29ea:	88 e8       	ldi	r24, 0x88	; 136
    29ec:	80 93 43 08 	sts	0x0843, r24	; 0x800843 <__TEXT_REGION_LENGTH__+0x700843>
}
    29f0:	ff 91       	pop	r31
    29f2:	ef 91       	pop	r30
    29f4:	9f 91       	pop	r25
    29f6:	8f 91       	pop	r24
    29f8:	3f 91       	pop	r19
    29fa:	2f 91       	pop	r18
    29fc:	0f 90       	pop	r0
    29fe:	0f be       	out	0x3f, r0	; 63
    2a00:	0f 90       	pop	r0
    2a02:	1f 90       	pop	r1
    2a04:	18 95       	reti
                CODEC_TIMER_LOADMOD.PER = ISO14443A_FRAME_DELAY_PREV0;
    2a06:	8c e7       	ldi	r24, 0x7C	; 124
    2a08:	94 e0       	ldi	r25, 0x04	; 4
    2a0a:	ca cf       	rjmp	.-108    	; 0x29a0 <__vector_22+0x5a>
                    NewDataRegister >>= 1;
    2a0c:	96 95       	lsr	r25
    2a0e:	dc cf       	rjmp	.-72     	; 0x29c8 <__vector_22+0x82>
            uint8_t BitSample = NewSampleRegister & 0xC;
    2a10:	98 2f       	mov	r25, r24
    2a12:	9c 70       	andi	r25, 0x0C	; 12
            if (BitSample != (0x0 << 2)) {
    2a14:	21 f3       	breq	.-56     	; 0x29de <__vector_22+0x98>
                if (BitSample & (0x1 << 2)) {
    2a16:	91 e0       	ldi	r25, 0x01	; 1
    2a18:	28 2f       	mov	r18, r24
    2a1a:	24 70       	andi	r18, 0x04	; 4
    2a1c:	82 fd       	sbrc	r24, 2
    2a1e:	90 e0       	ldi	r25, 0x00	; 0
                LastBit = Bit;
    2a20:	90 93 fd 20 	sts	0x20FD, r25	; 0x8020fd <LastBit>
                if (!IsParityBit) {
    2a24:	80 91 fe 20 	lds	r24, 0x20FE	; 0x8020fe <IsParityBit>
    2a28:	81 11       	cpse	r24, r1
    2a2a:	29 c0       	rjmp	.+82     	; 0x2a7e <__vector_22+0x138>
                    uint8_t NewDataRegister = DataRegister >> 1;
    2a2c:	80 91 00 21 	lds	r24, 0x2100	; 0x802100 <DataRegister>
    2a30:	86 95       	lsr	r24
                    NewDataRegister |= (Bit ? 0x80 : 0x00);
    2a32:	90 e0       	ldi	r25, 0x00	; 0
    2a34:	21 11       	cpse	r18, r1
    2a36:	01 c0       	rjmp	.+2      	; 0x2a3a <__vector_22+0xf4>
    2a38:	90 e8       	ldi	r25, 0x80	; 128
    2a3a:	89 2b       	or	r24, r25
                    DataRegister = NewDataRegister;
    2a3c:	80 93 00 21 	sts	0x2100, r24	; 0x802100 <DataRegister>
                    uint16_t NewBitCount = ++BitCount;
    2a40:	20 91 03 21 	lds	r18, 0x2103	; 0x802103 <BitCount>
    2a44:	30 91 04 21 	lds	r19, 0x2104	; 0x802104 <BitCount+0x1>
    2a48:	2f 5f       	subi	r18, 0xFF	; 255
    2a4a:	3f 4f       	sbci	r19, 0xFF	; 255
    2a4c:	20 93 03 21 	sts	0x2103, r18	; 0x802103 <BitCount>
    2a50:	30 93 04 21 	sts	0x2104, r19	; 0x802104 <BitCount+0x1>
                    if ((NewBitCount & 0x07) == 0) {
    2a54:	27 70       	andi	r18, 0x07	; 7
    2a56:	33 27       	eor	r19, r19
    2a58:	23 2b       	or	r18, r19
    2a5a:	09 f0       	breq	.+2      	; 0x2a5e <__vector_22+0x118>
    2a5c:	c0 cf       	rjmp	.-128    	; 0x29de <__vector_22+0x98>
                        *CodecBufferPtr++ = NewDataRegister;
    2a5e:	e0 91 07 21 	lds	r30, 0x2107	; 0x802107 <CodecBufferPtr>
    2a62:	f0 91 08 21 	lds	r31, 0x2108	; 0x802108 <CodecBufferPtr+0x1>
    2a66:	9f 01       	movw	r18, r30
    2a68:	2f 5f       	subi	r18, 0xFF	; 255
    2a6a:	3f 4f       	sbci	r19, 0xFF	; 255
    2a6c:	20 93 07 21 	sts	0x2107, r18	; 0x802107 <CodecBufferPtr>
    2a70:	30 93 08 21 	sts	0x2108, r19	; 0x802108 <CodecBufferPtr+0x1>
    2a74:	80 83       	st	Z, r24
                        IsParityBit = true;
    2a76:	81 e0       	ldi	r24, 0x01	; 1
    2a78:	80 93 fe 20 	sts	0x20FE, r24	; 0x8020fe <IsParityBit>
    2a7c:	b0 cf       	rjmp	.-160    	; 0x29de <__vector_22+0x98>
                    IsParityBit = false;
    2a7e:	10 92 fe 20 	sts	0x20FE, r1	; 0x8020fe <IsParityBit>
    2a82:	ad cf       	rjmp	.-166    	; 0x29de <__vector_22+0x98>

00002a84 <__vector_83>:

ISR(CODEC_TIMER_OVF_VECT) {
    2a84:	1f 92       	push	r1
    2a86:	0f 92       	push	r0
    2a88:	0f b6       	in	r0, 0x3f	; 63
    2a8a:	0f 92       	push	r0
    2a8c:	11 24       	eor	r1, r1
    2a8e:	2f 93       	push	r18
    2a90:	3f 93       	push	r19
    2a92:	8f 93       	push	r24
    2a94:	9f 93       	push	r25
    2a96:	ef 93       	push	r30
    2a98:	ff 93       	push	r31
    /* Bit rate timer. Output a half bit on the output. */
    uint8_t Temp8;
    uint16_t Temp16;

    switch (LoadModState) {
    2a9a:	80 91 fc 20 	lds	r24, 0x20FC	; 0x8020fc <LoadModState>
    2a9e:	85 30       	cpi	r24, 0x05	; 5
    2aa0:	09 f4       	brne	.+2      	; 0x2aa4 <__vector_83+0x20>
    2aa2:	91 c0       	rjmp	.+290    	; 0x2bc6 <__vector_83+0x142>
    2aa4:	18 f5       	brcc	.+70     	; 0x2aec <__vector_83+0x68>
    2aa6:	82 30       	cpi	r24, 0x02	; 2
    2aa8:	09 f4       	brne	.+2      	; 0x2aac <__vector_83+0x28>
    2aaa:	74 c0       	rjmp	.+232    	; 0x2b94 <__vector_83+0x110>
    2aac:	88 f4       	brcc	.+34     	; 0x2ad0 <__vector_83+0x4c>
    2aae:	88 23       	and	r24, r24
    2ab0:	09 f4       	brne	.+2      	; 0x2ab4 <__vector_83+0x30>
    2ab2:	60 c0       	rjmp	.+192    	; 0x2b74 <__vector_83+0xf0>
    2ab4:	81 30       	cpi	r24, 0x01	; 1
    2ab6:	09 f4       	brne	.+2      	; 0x2aba <__vector_83+0x36>
    2ab8:	64 c0       	rjmp	.+200    	; 0x2b82 <__vector_83+0xfe>
        break;

    default:
        break;
    }
}
    2aba:	ff 91       	pop	r31
    2abc:	ef 91       	pop	r30
    2abe:	9f 91       	pop	r25
    2ac0:	8f 91       	pop	r24
    2ac2:	3f 91       	pop	r19
    2ac4:	2f 91       	pop	r18
    2ac6:	0f 90       	pop	r0
    2ac8:	0f be       	out	0x3f, r0	; 63
    2aca:	0f 90       	pop	r0
    2acc:	1f 90       	pop	r1
    2ace:	18 95       	reti
    switch (LoadModState) {
    2ad0:	83 30       	cpi	r24, 0x03	; 3
    2ad2:	09 f4       	brne	.+2      	; 0x2ad6 <__vector_83+0x52>
    2ad4:	66 c0       	rjmp	.+204    	; 0x2ba2 <__vector_83+0x11e>
    2ad6:	84 30       	cpi	r24, 0x04	; 4
    2ad8:	81 f7       	brne	.-32     	; 0x2aba <__vector_83+0x36>
        if (DataRegister & 1) {
    2ada:	80 91 00 21 	lds	r24, 0x2100	; 0x802100 <DataRegister>
    2ade:	80 ff       	sbrs	r24, 0
    2ae0:	6e c0       	rjmp	.+220    	; 0x2bbe <__vector_83+0x13a>
        	CODEC_LOADMOD_PORT.OUTSET = CODEC_LOADMOD_MASK;
    2ae2:	80 e4       	ldi	r24, 0x40	; 64
    2ae4:	80 93 45 06 	sts	0x0645, r24	; 0x800645 <__TEXT_REGION_LENGTH__+0x700645>
        LoadModState = LOADMOD_DATA1;
    2ae8:	85 e0       	ldi	r24, 0x05	; 5
    2aea:	58 c0       	rjmp	.+176    	; 0x2b9c <__vector_83+0x118>
    switch (LoadModState) {
    2aec:	88 30       	cpi	r24, 0x08	; 8
    2aee:	09 f4       	brne	.+2      	; 0x2af2 <__vector_83+0x6e>
    2af0:	a5 c0       	rjmp	.+330    	; 0x2c3c <__vector_83+0x1b8>
    2af2:	80 f5       	brcc	.+96     	; 0x2b54 <__vector_83+0xd0>
    2af4:	86 30       	cpi	r24, 0x06	; 6
    2af6:	09 f4       	brne	.+2      	; 0x2afa <__vector_83+0x76>
    2af8:	8d c0       	rjmp	.+282    	; 0x2c14 <__vector_83+0x190>
    2afa:	87 30       	cpi	r24, 0x07	; 7
    2afc:	f1 f6       	brne	.-68     	; 0x2aba <__vector_83+0x36>
        if (*ParityBufferPtr) {
    2afe:	e0 91 05 21 	lds	r30, 0x2105	; 0x802105 <ParityBufferPtr>
    2b02:	f0 91 06 21 	lds	r31, 0x2106	; 0x802106 <ParityBufferPtr+0x1>
    2b06:	80 81       	ld	r24, Z
    2b08:	88 23       	and	r24, r24
    2b0a:	09 f4       	brne	.+2      	; 0x2b0e <__vector_83+0x8a>
    2b0c:	93 c0       	rjmp	.+294    	; 0x2c34 <__vector_83+0x1b0>
        	CODEC_LOADMOD_PORT.OUTCLR = CODEC_LOADMOD_MASK;
    2b0e:	80 e4       	ldi	r24, 0x40	; 64
    2b10:	80 93 46 06 	sts	0x0646, r24	; 0x800646 <__TEXT_REGION_LENGTH__+0x700646>
        if (BitSent == BitCount) {
    2b14:	20 91 01 21 	lds	r18, 0x2101	; 0x802101 <BitSent>
    2b18:	30 91 02 21 	lds	r19, 0x2102	; 0x802102 <BitSent+0x1>
    2b1c:	80 91 03 21 	lds	r24, 0x2103	; 0x802103 <BitCount>
    2b20:	90 91 04 21 	lds	r25, 0x2104	; 0x802104 <BitCount+0x1>
    2b24:	28 17       	cp	r18, r24
    2b26:	39 07       	cpc	r19, r25
    2b28:	09 f4       	brne	.+2      	; 0x2b2c <__vector_83+0xa8>
    2b2a:	72 c0       	rjmp	.+228    	; 0x2c10 <__vector_83+0x18c>
            ParityBufferPtr++;
    2b2c:	31 96       	adiw	r30, 0x01	; 1
    2b2e:	e0 93 05 21 	sts	0x2105, r30	; 0x802105 <ParityBufferPtr>
    2b32:	f0 93 06 21 	sts	0x2106, r31	; 0x802106 <ParityBufferPtr+0x1>
            DataRegister = *++CodecBufferPtr;
    2b36:	e0 91 07 21 	lds	r30, 0x2107	; 0x802107 <CodecBufferPtr>
    2b3a:	f0 91 08 21 	lds	r31, 0x2108	; 0x802108 <CodecBufferPtr+0x1>
    2b3e:	cf 01       	movw	r24, r30
    2b40:	01 96       	adiw	r24, 0x01	; 1
    2b42:	80 93 07 21 	sts	0x2107, r24	; 0x802107 <CodecBufferPtr>
    2b46:	90 93 08 21 	sts	0x2108, r25	; 0x802108 <CodecBufferPtr+0x1>
    2b4a:	81 81       	ldd	r24, Z+1	; 0x01
    2b4c:	80 93 00 21 	sts	0x2100, r24	; 0x802100 <DataRegister>
            LoadModState = LOADMOD_DATA0;
    2b50:	84 e0       	ldi	r24, 0x04	; 4
    2b52:	24 c0       	rjmp	.+72     	; 0x2b9c <__vector_83+0x118>
    switch (LoadModState) {
    2b54:	89 30       	cpi	r24, 0x09	; 9
    2b56:	09 f4       	brne	.+2      	; 0x2b5a <__vector_83+0xd6>
    2b58:	76 c0       	rjmp	.+236    	; 0x2c46 <__vector_83+0x1c2>
    2b5a:	8a 30       	cpi	r24, 0x0A	; 10
    2b5c:	09 f0       	breq	.+2      	; 0x2b60 <__vector_83+0xdc>
    2b5e:	ad cf       	rjmp	.-166    	; 0x2aba <__vector_83+0x36>
        CODEC_TIMER_LOADMOD.CTRLA = TC_CLKSEL_OFF_gc;
    2b60:	10 92 40 09 	sts	0x0940, r1	; 0x800940 <__TEXT_REGION_LENGTH__+0x700940>
        CODEC_TIMER_LOADMOD.INTCTRLA = 0;
    2b64:	10 92 46 09 	sts	0x0946, r1	; 0x800946 <__TEXT_REGION_LENGTH__+0x700946>
        CODEC_SUBCARRIER_TIMER.CTRLA = TC_CLKSEL_OFF_gc;
    2b68:	10 92 00 08 	sts	0x0800, r1	; 0x800800 <__TEXT_REGION_LENGTH__+0x700800>
        Flags.LoadmodFinished = 1;
    2b6c:	81 e0       	ldi	r24, 0x01	; 1
    2b6e:	80 93 0a 21 	sts	0x210A, r24	; 0x80210a <Flags+0x1>
}
    2b72:	a3 cf       	rjmp	.-186    	; 0x2aba <__vector_83+0x36>
        CODEC_TIMER_LOADMOD.PER = ISO14443A_BIT_GRID_CYCLES - 1;
    2b74:	8f e7       	ldi	r24, 0x7F	; 127
    2b76:	90 e0       	ldi	r25, 0x00	; 0
    2b78:	80 93 66 09 	sts	0x0966, r24	; 0x800966 <__TEXT_REGION_LENGTH__+0x700966>
    2b7c:	90 93 67 09 	sts	0x0967, r25	; 0x800967 <__TEXT_REGION_LENGTH__+0x700967>
        break;
    2b80:	9c cf       	rjmp	.-200    	; 0x2aba <__vector_83+0x36>
        CODEC_TIMER_LOADMOD.PER = ISO14443A_BIT_RATE_CYCLES / 2 - 1;
    2b82:	8f e3       	ldi	r24, 0x3F	; 63
    2b84:	90 e0       	ldi	r25, 0x00	; 0
    2b86:	80 93 66 09 	sts	0x0966, r24	; 0x800966 <__TEXT_REGION_LENGTH__+0x700966>
    2b8a:	90 93 67 09 	sts	0x0967, r25	; 0x800967 <__TEXT_REGION_LENGTH__+0x700967>
        CODEC_SUBCARRIER_TIMER.CTRLA = TC_CLKSEL_EVCH6_gc;
    2b8e:	8e e0       	ldi	r24, 0x0E	; 14
    2b90:	80 93 00 08 	sts	0x0800, r24	; 0x800800 <__TEXT_REGION_LENGTH__+0x700800>
    	CODEC_LOADMOD_PORT.OUTSET = CODEC_LOADMOD_MASK;
    2b94:	80 e4       	ldi	r24, 0x40	; 64
    2b96:	80 93 45 06 	sts	0x0645, r24	; 0x800645 <__TEXT_REGION_LENGTH__+0x700645>
        LoadModState = LOADMOD_START_BIT1;
    2b9a:	83 e0       	ldi	r24, 0x03	; 3
        LoadModState = LOADMOD_FINISHED;
    2b9c:	80 93 fc 20 	sts	0x20FC, r24	; 0x8020fc <LoadModState>
        break;
    2ba0:	8c cf       	rjmp	.-232    	; 0x2aba <__vector_83+0x36>
    	CODEC_LOADMOD_PORT.OUTCLR = CODEC_LOADMOD_MASK;
    2ba2:	80 e4       	ldi	r24, 0x40	; 64
    2ba4:	80 93 46 06 	sts	0x0646, r24	; 0x800646 <__TEXT_REGION_LENGTH__+0x700646>
        LoadModState = LOADMOD_DATA0;
    2ba8:	84 e0       	ldi	r24, 0x04	; 4
    2baa:	80 93 fc 20 	sts	0x20FC, r24	; 0x8020fc <LoadModState>
        DataRegister = *CodecBufferPtr;
    2bae:	e0 91 07 21 	lds	r30, 0x2107	; 0x802107 <CodecBufferPtr>
    2bb2:	f0 91 08 21 	lds	r31, 0x2108	; 0x802108 <CodecBufferPtr+0x1>
    2bb6:	80 81       	ld	r24, Z
    2bb8:	80 93 00 21 	sts	0x2100, r24	; 0x802100 <DataRegister>
        break;
    2bbc:	7e cf       	rjmp	.-260    	; 0x2aba <__vector_83+0x36>
        	CODEC_LOADMOD_PORT.OUTCLR = CODEC_LOADMOD_MASK;
    2bbe:	80 e4       	ldi	r24, 0x40	; 64
    2bc0:	80 93 46 06 	sts	0x0646, r24	; 0x800646 <__TEXT_REGION_LENGTH__+0x700646>
    2bc4:	91 cf       	rjmp	.-222    	; 0x2ae8 <__vector_83+0x64>
        Temp8 = DataRegister;
    2bc6:	80 91 00 21 	lds	r24, 0x2100	; 0x802100 <DataRegister>
        	CODEC_LOADMOD_PORT.OUTCLR = CODEC_LOADMOD_MASK;
    2bca:	90 e4       	ldi	r25, 0x40	; 64
        if (Temp8 & 1) {
    2bcc:	80 ff       	sbrs	r24, 0
    2bce:	15 c0       	rjmp	.+42     	; 0x2bfa <__vector_83+0x176>
        	CODEC_LOADMOD_PORT.OUTCLR = CODEC_LOADMOD_MASK;
    2bd0:	90 93 46 06 	sts	0x0646, r25	; 0x800646 <__TEXT_REGION_LENGTH__+0x700646>
        DataRegister = Temp8 >> 1;
    2bd4:	86 95       	lsr	r24
    2bd6:	80 93 00 21 	sts	0x2100, r24	; 0x802100 <DataRegister>
        Temp16 = BitSent;
    2bda:	80 91 01 21 	lds	r24, 0x2101	; 0x802101 <BitSent>
    2bde:	90 91 02 21 	lds	r25, 0x2102	; 0x802102 <BitSent+0x1>
        BitSent = ++Temp16;
    2be2:	01 96       	adiw	r24, 0x01	; 1
    2be4:	80 93 01 21 	sts	0x2101, r24	; 0x802101 <BitSent>
    2be8:	90 93 02 21 	sts	0x2102, r25	; 0x802102 <BitSent+0x1>
        if ((Temp16 & 0x07) == 0) {
    2bec:	9c 01       	movw	r18, r24
    2bee:	27 70       	andi	r18, 0x07	; 7
    2bf0:	33 27       	eor	r19, r19
    2bf2:	23 2b       	or	r18, r19
    2bf4:	29 f4       	brne	.+10     	; 0x2c00 <__vector_83+0x17c>
            LoadModState = LOADMOD_PARITY0;
    2bf6:	86 e0       	ldi	r24, 0x06	; 6
    2bf8:	d1 cf       	rjmp	.-94     	; 0x2b9c <__vector_83+0x118>
        	CODEC_LOADMOD_PORT.OUTSET = CODEC_LOADMOD_MASK;
    2bfa:	90 93 45 06 	sts	0x0645, r25	; 0x800645 <__TEXT_REGION_LENGTH__+0x700645>
    2bfe:	ea cf       	rjmp	.-44     	; 0x2bd4 <__vector_83+0x150>
        if (Temp16 == BitCount) {
    2c00:	20 91 03 21 	lds	r18, 0x2103	; 0x802103 <BitCount>
    2c04:	30 91 04 21 	lds	r19, 0x2104	; 0x802104 <BitCount+0x1>
    2c08:	28 17       	cp	r18, r24
    2c0a:	39 07       	cpc	r19, r25
    2c0c:	09 f0       	breq	.+2      	; 0x2c10 <__vector_83+0x18c>
    2c0e:	a0 cf       	rjmp	.-192    	; 0x2b50 <__vector_83+0xcc>
            LoadModState = LOADMOD_STOP_BIT0;
    2c10:	88 e0       	ldi	r24, 0x08	; 8
    2c12:	c4 cf       	rjmp	.-120    	; 0x2b9c <__vector_83+0x118>
        if (*ParityBufferPtr) {
    2c14:	e0 91 05 21 	lds	r30, 0x2105	; 0x802105 <ParityBufferPtr>
    2c18:	f0 91 06 21 	lds	r31, 0x2106	; 0x802106 <ParityBufferPtr+0x1>
    2c1c:	80 81       	ld	r24, Z
    2c1e:	88 23       	and	r24, r24
    2c20:	29 f0       	breq	.+10     	; 0x2c2c <__vector_83+0x1a8>
        	CODEC_LOADMOD_PORT.OUTSET = CODEC_LOADMOD_MASK;
    2c22:	80 e4       	ldi	r24, 0x40	; 64
    2c24:	80 93 45 06 	sts	0x0645, r24	; 0x800645 <__TEXT_REGION_LENGTH__+0x700645>
        LoadModState = LOADMOD_PARITY1;
    2c28:	87 e0       	ldi	r24, 0x07	; 7
    2c2a:	b8 cf       	rjmp	.-144    	; 0x2b9c <__vector_83+0x118>
        	CODEC_LOADMOD_PORT.OUTCLR = CODEC_LOADMOD_MASK;
    2c2c:	80 e4       	ldi	r24, 0x40	; 64
    2c2e:	80 93 46 06 	sts	0x0646, r24	; 0x800646 <__TEXT_REGION_LENGTH__+0x700646>
    2c32:	fa cf       	rjmp	.-12     	; 0x2c28 <__vector_83+0x1a4>
        	CODEC_LOADMOD_PORT.OUTSET = CODEC_LOADMOD_MASK;
    2c34:	80 e4       	ldi	r24, 0x40	; 64
    2c36:	80 93 45 06 	sts	0x0645, r24	; 0x800645 <__TEXT_REGION_LENGTH__+0x700645>
    2c3a:	6c cf       	rjmp	.-296    	; 0x2b14 <__vector_83+0x90>
    	CODEC_LOADMOD_PORT.OUTCLR = CODEC_LOADMOD_MASK;
    2c3c:	80 e4       	ldi	r24, 0x40	; 64
    2c3e:	80 93 46 06 	sts	0x0646, r24	; 0x800646 <__TEXT_REGION_LENGTH__+0x700646>
        LoadModState = LOADMOD_STOP_BIT1;
    2c42:	89 e0       	ldi	r24, 0x09	; 9
    2c44:	ab cf       	rjmp	.-170    	; 0x2b9c <__vector_83+0x118>
    	CODEC_LOADMOD_PORT.OUTCLR = CODEC_LOADMOD_MASK;
    2c46:	80 e4       	ldi	r24, 0x40	; 64
    2c48:	80 93 46 06 	sts	0x0646, r24	; 0x800646 <__TEXT_REGION_LENGTH__+0x700646>
        LoadModState = LOADMOD_FINISHED;
    2c4c:	8a e0       	ldi	r24, 0x0A	; 10
    2c4e:	a6 cf       	rjmp	.-180    	; 0x2b9c <__vector_83+0x118>

00002c50 <ISO14443ACodecInit>:

void ISO14443ACodecInit(void) {
    2c50:	cf 93       	push	r28
    2c52:	df 93       	push	r29
    CODEC_CARRIER_IN_PORT.DIRCLR = CODEC_CARRIER_IN_MASK;
    2c54:	e0 e4       	ldi	r30, 0x40	; 64
    2c56:	f6 e0       	ldi	r31, 0x06	; 6
    2c58:	84 e0       	ldi	r24, 0x04	; 4
    2c5a:	82 83       	std	Z+2, r24	; 0x02
    CODEC_CARRIER_IN_PORT.CODEC_CARRIER_IN_PINCTRL = PORT_ISC_BOTHEDGES_gc;
    2c5c:	12 8a       	std	Z+18, r1	; 0x12
    EVSYS.CH6MUX = CODEC_CARRIER_IN_EVMUX;
    2c5e:	c0 e8       	ldi	r28, 0x80	; 128
    2c60:	d1 e0       	ldi	r29, 0x01	; 1
    2c62:	82 e6       	ldi	r24, 0x62	; 98
    2c64:	8e 83       	std	Y+6, r24	; 0x06
    CODEC_DEMOD_IN_PORT.DIRCLR = CODEC_DEMOD_IN_MASK;
    2c66:	a0 e2       	ldi	r26, 0x20	; 32
    2c68:	b6 e0       	ldi	r27, 0x06	; 6
    2c6a:	85 e0       	ldi	r24, 0x05	; 5
    2c6c:	12 96       	adiw	r26, 0x02	; 2
    2c6e:	8c 93       	st	X, r24
    2c70:	12 97       	sbiw	r26, 0x02	; 2
    CODEC_DEMOD_IN_PORT.CODEC_DEMOD_IN_PINCTRL0 = PORT_ISC_RISING_gc;
    2c72:	81 e0       	ldi	r24, 0x01	; 1
    2c74:	50 96       	adiw	r26, 0x10	; 16
    2c76:	8c 93       	st	X, r24
    2c78:	50 97       	sbiw	r26, 0x10	; 16
    CODEC_DEMOD_IN_PORT.CODEC_DEMOD_IN_PINCTRL1 = PORT_ISC_FALLING_gc;
    2c7a:	82 e0       	ldi	r24, 0x02	; 2
    2c7c:	52 96       	adiw	r26, 0x12	; 18
    2c7e:	8c 93       	st	X, r24
    2c80:	52 97       	sbiw	r26, 0x12	; 18
    CODEC_DEMOD_IN_PORT.INT0MASK = 0;
    2c82:	1a 96       	adiw	r26, 0x0a	; 10
    2c84:	1c 92       	st	X, r1
    2c86:	1a 97       	sbiw	r26, 0x0a	; 10
    CODEC_DEMOD_IN_PORT.INTCTRL = PORT_INT0LVL_HI_gc;
    2c88:	83 e0       	ldi	r24, 0x03	; 3
    2c8a:	19 96       	adiw	r26, 0x09	; 9
    2c8c:	8c 93       	st	X, r24
    EVSYS.CH0MUX = CODEC_DEMOD_IN_EVMUX0;
    2c8e:	98 e5       	ldi	r25, 0x58	; 88
    2c90:	98 83       	st	Y, r25
    EVSYS.CH1MUX = CODEC_DEMOD_IN_EVMUX1;
    2c92:	9a e5       	ldi	r25, 0x5A	; 90
    2c94:	99 83       	std	Y+1, r25	; 0x01
    CODEC_LOADMOD_PORT.DIRSET = CODEC_LOADMOD_MASK;
    2c96:	90 e4       	ldi	r25, 0x40	; 64
    2c98:	91 83       	std	Z+1, r25	; 0x01
    CODEC_LOADMOD_PORT.OUTCLR = CODEC_LOADMOD_MASK;
    2c9a:	96 83       	std	Z+6, r25	; 0x06
    CODEC_SUBCARRIER_PORT.DIRSET = CODEC_SUBCARRIER_MASK;
    2c9c:	81 83       	std	Z+1, r24	; 0x01
    CODEC_SUBCARRIER_PORT.OUTCLR = CODEC_SUBCARRIER_MASK;
    2c9e:	86 83       	std	Z+6, r24	; 0x06
    CODEC_SUBCARRIER_TIMER.PER = ISO14443A_SUBCARRIER_DIVIDER - 1;
    2ca0:	e0 e0       	ldi	r30, 0x00	; 0
    2ca2:	f8 e0       	ldi	r31, 0x08	; 8
    2ca4:	8f e0       	ldi	r24, 0x0F	; 15
    2ca6:	90 e0       	ldi	r25, 0x00	; 0
    2ca8:	86 a3       	std	Z+38, r24	; 0x26
    2caa:	97 a3       	std	Z+39, r25	; 0x27
    CODEC_SUBCARRIER_TIMER.CODEC_SUBCARRIER_CC_OOK = ISO14443A_SUBCARRIER_DIVIDER/2;
    2cac:	88 e0       	ldi	r24, 0x08	; 8
    2cae:	90 e0       	ldi	r25, 0x00	; 0
    2cb0:	82 a7       	std	Z+42, r24	; 0x2a
    2cb2:	93 a7       	std	Z+43, r25	; 0x2b
    CODEC_SUBCARRIER_TIMER.CTRLB = CODEC_SUBCARRIER_CCEN_OOK | TC_WGMODE_SINGLESLOPE_gc;
    2cb4:	83 e2       	ldi	r24, 0x23	; 35
    2cb6:	81 83       	std	Z+1, r24	; 0x01
    /* Initialize common peripherals and start listening
     * for incoming data. */
    Initialize();
    StartDemod();
}
    2cb8:	df 91       	pop	r29
    2cba:	cf 91       	pop	r28
    StartDemod();
    2cbc:	e3 cd       	rjmp	.-1082   	; 0x2884 <StartDemod>

00002cbe <ISO14443ACodecTask>:

void ISO14443ACodecTask(void) {
    if (Flags.DemodFinished) {
    2cbe:	80 91 09 21 	lds	r24, 0x2109	; 0x802109 <Flags>
    2cc2:	88 23       	and	r24, r24
    2cc4:	09 f4       	brne	.+2      	; 0x2cc8 <ISO14443ACodecTask+0xa>
    2cc6:	4a c0       	rjmp	.+148    	; 0x2d5c <ISO14443ACodecTask+0x9e>
        Flags.DemodFinished = 0;
    2cc8:	10 92 09 21 	sts	0x2109, r1	; 0x802109 <Flags>
    CODEC_DEMOD_POWER_PORT.DIRSET = CODEC_DEMOD_POWER_MASK;
    2ccc:	82 e0       	ldi	r24, 0x02	; 2
    2cce:	80 93 21 06 	sts	0x0621, r24	; 0x800621 <__TEXT_REGION_LENGTH__+0x700621>
    } else {
        CODEC_DEMOD_POWER_PORT.OUTCLR = CODEC_DEMOD_POWER_MASK;
    2cd2:	80 93 26 06 	sts	0x0626, r24	; 0x800626 <__TEXT_REGION_LENGTH__+0x700626>
        /* Reception finished. Process the received bytes */
        CodecSetDemodPower(false);

        uint16_t DemodBitCount = BitCount;
    2cd6:	60 91 03 21 	lds	r22, 0x2103	; 0x802103 <BitCount>
    2cda:	70 91 04 21 	lds	r23, 0x2104	; 0x802104 <BitCount+0x1>
        uint16_t AnswerBitCount = ISO14443A_APP_NO_RESPONSE;

        if (DemodBitCount > 0) {
    2cde:	61 15       	cp	r22, r1
    2ce0:	71 05       	cpc	r23, r1
    2ce2:	09 f4       	brne	.+2      	; 0x2ce6 <ISO14443ACodecTask+0x28>
    2ce4:	42 c0       	rjmp	.+132    	; 0x2d6a <ISO14443ACodecTask+0xac>
INLINE void ApplicationTick(void) {
    ActiveConfiguration.ApplicationTickFunc();
}

INLINE uint16_t ApplicationProcess(uint8_t* ByteBuffer, uint16_t ByteCount) {
    return ActiveConfiguration.ApplicationProcessFunc(ByteBuffer, ByteCount);
    2ce6:	e0 91 58 21 	lds	r30, 0x2158	; 0x802158 <ActiveConfiguration+0xe>
    2cea:	f0 91 59 21 	lds	r31, 0x2159	; 0x802159 <ActiveConfiguration+0xf>
    2cee:	82 e6       	ldi	r24, 0x62	; 98
    2cf0:	92 e2       	ldi	r25, 0x22	; 34
    2cf2:	09 95       	icall

            /* Call application if we received data */
            AnswerBitCount = ApplicationProcess(CodecBuffer, DemodBitCount);
					    //for(uint16_t i=0;i<=DemodBitCount/8;i++)
					    //uart_putc_hex(CodecBuffer[i]);
            if (AnswerBitCount & ISO14443A_APP_CUSTOM_PARITY) {
    2cf4:	94 fd       	sbrc	r25, 4
    2cf6:	18 c0       	rjmp	.+48     	; 0x2d28 <ISO14443ACodecTask+0x6a>
                /* Application has generated it's own parity bits.
                 * Clear this option bit. */
                AnswerBitCount &= ~ISO14443A_APP_CUSTOM_PARITY;
            } else {
                /* We have to generate the parity bits ourself */
                for (uint8_t i = 0; i < (AnswerBitCount / 8); i++) {
    2cf8:	ac 01       	movw	r20, r24
    2cfa:	23 e0       	ldi	r18, 0x03	; 3
    2cfc:	56 95       	lsr	r21
    2cfe:	47 95       	ror	r20
    2d00:	2a 95       	dec	r18
    2d02:	e1 f7       	brne	.-8      	; 0x2cfc <ISO14443ACodecTask+0x3e>
    2d04:	20 e0       	ldi	r18, 0x00	; 0
    2d06:	a2 2f       	mov	r26, r18
    2d08:	b0 e0       	ldi	r27, 0x00	; 0
    2d0a:	a4 17       	cp	r26, r20
    2d0c:	b5 07       	cpc	r27, r21
    2d0e:	68 f4       	brcc	.+26     	; 0x2d2a <ISO14443ACodecTask+0x6c>
                    /* For each whole byte, generate a parity bit. */
                    CodecBuffer[ISO14443A_BUFFER_PARITY_OFFSET + i] = ODD_PARITY(CodecBuffer[i]);
    2d10:	ae 59       	subi	r26, 0x9E	; 158
    2d12:	bd 4d       	sbci	r27, 0xDD	; 221

INLINE uint8_t OddParityBit(uint8_t Byte)
{
    extern const uint8_t PROGMEM OddParityByteTable[];

    return pgm_read_byte(&OddParityByteTable[Byte]);
    2d14:	ec 91       	ld	r30, X
    2d16:	f0 e0       	ldi	r31, 0x00	; 0
    2d18:	ef 56       	subi	r30, 0x6F	; 111
    2d1a:	fb 4f       	sbci	r31, 0xFB	; 251
    2d1c:	e4 91       	lpm	r30, Z
    2d1e:	a0 58       	subi	r26, 0x80	; 128
    2d20:	bf 4f       	sbci	r27, 0xFF	; 255
    2d22:	ec 93       	st	X, r30
                for (uint8_t i = 0; i < (AnswerBitCount / 8); i++) {
    2d24:	2f 5f       	subi	r18, 0xFF	; 255
    2d26:	ef cf       	rjmp	.-34     	; 0x2d06 <ISO14443ACodecTask+0x48>
                AnswerBitCount &= ~ISO14443A_APP_CUSTOM_PARITY;
    2d28:	9f 7e       	andi	r25, 0xEF	; 239
            }
        } else {
            ApplicationReset();
        }

        if (AnswerBitCount != ISO14443A_APP_NO_RESPONSE) {
    2d2a:	00 97       	sbiw	r24, 0x00	; 0
    2d2c:	19 f1       	breq	.+70     	; 0x2d74 <ISO14443ACodecTask+0xb6>
            BitCount = AnswerBitCount;
    2d2e:	80 93 03 21 	sts	0x2103, r24	; 0x802103 <BitCount>
    2d32:	90 93 04 21 	sts	0x2104, r25	; 0x802104 <BitCount+0x1>
            BitSent = 0;
    2d36:	10 92 01 21 	sts	0x2101, r1	; 0x802101 <BitSent>
    2d3a:	10 92 02 21 	sts	0x2102, r1	; 0x802102 <BitSent+0x1>
            CodecBufferPtr = CodecBuffer;
    2d3e:	82 e6       	ldi	r24, 0x62	; 98
    2d40:	92 e2       	ldi	r25, 0x22	; 34
    2d42:	80 93 07 21 	sts	0x2107, r24	; 0x802107 <CodecBufferPtr>
    2d46:	90 93 08 21 	sts	0x2108, r25	; 0x802108 <CodecBufferPtr+0x1>
            ParityBufferPtr = &CodecBuffer[ISO14443A_BUFFER_PARITY_OFFSET];
    2d4a:	82 ee       	ldi	r24, 0xE2	; 226
    2d4c:	92 e2       	ldi	r25, 0x22	; 34
    2d4e:	80 93 05 21 	sts	0x2105, r24	; 0x802105 <ParityBufferPtr>
    2d52:	90 93 06 21 	sts	0x2106, r25	; 0x802106 <ParityBufferPtr+0x1>
            LoadModState = LOADMOD_START;
    2d56:	81 e0       	ldi	r24, 0x01	; 1
    2d58:	80 93 fc 20 	sts	0x20FC, r24	; 0x8020fc <LoadModState>

            StartDemod();
        }
    }

    if (Flags.LoadmodFinished) {
    2d5c:	80 91 0a 21 	lds	r24, 0x210A	; 0x80210a <Flags+0x1>
    2d60:	88 23       	and	r24, r24
    2d62:	71 f0       	breq	.+28     	; 0x2d80 <ISO14443ACodecTask+0xc2>
        Flags.LoadmodFinished = 0;
    2d64:	10 92 0a 21 	sts	0x210A, r1	; 0x80210a <Flags+0x1>
        /* Load modulation has been finished. Stop it and start to listen
         * for incoming data again. */
        StartDemod();
    2d68:	8d cd       	rjmp	.-1254   	; 0x2884 <StartDemod>
}

INLINE void ApplicationReset(void) {
    ActiveConfiguration.ApplicationResetFunc();
    2d6a:	e0 91 52 21 	lds	r30, 0x2152	; 0x802152 <ActiveConfiguration+0x8>
    2d6e:	f0 91 53 21 	lds	r31, 0x2153	; 0x802153 <ActiveConfiguration+0x9>
    2d72:	09 95       	icall
            CODEC_TIMER_LOADMOD.CTRLA = TC_CLKSEL_OFF_gc;
    2d74:	10 92 40 09 	sts	0x0940, r1	; 0x800940 <__TEXT_REGION_LENGTH__+0x700940>
            CODEC_TIMER_LOADMOD.INTCTRLA = 0;
    2d78:	10 92 46 09 	sts	0x0946, r1	; 0x800946 <__TEXT_REGION_LENGTH__+0x700946>
            StartDemod();
    2d7c:	83 dd       	rcall	.-1274   	; 0x2884 <StartDemod>
    2d7e:	ee cf       	rjmp	.-36     	; 0x2d5c <ISO14443ACodecTask+0x9e>
    }
}
    2d80:	08 95       	ret

00002d82 <VerifyAuthentication>:
{

}

static bool VerifyAuthentication(uint8_t PageAddress)
{
    2d82:	98 2f       	mov	r25, r24
    /* No authentication for EV0 cards; always pass */
    if (Flavor < UL_EV1) {
    2d84:	80 91 13 21 	lds	r24, 0x2113	; 0x802113 <Flavor>
    2d88:	88 23       	and	r24, r24
    2d8a:	59 f0       	breq	.+22     	; 0x2da2 <VerifyAuthentication+0x20>
        return true;
    }
    /* If authenticated, no verification needed */
    if (Authenticated) {
    2d8c:	80 91 0d 21 	lds	r24, 0x210D	; 0x80210d <Authenticated>
    2d90:	81 11       	cpse	r24, r1
    2d92:	08 c0       	rjmp	.+16     	; 0x2da4 <VerifyAuthentication+0x22>
        return true;
    }
    /* Otherwise, verify the accessed page is below the limit */
    return PageAddress < FirstAuthenticatedPage;
    2d94:	81 e0       	ldi	r24, 0x01	; 1
    2d96:	20 91 0c 21 	lds	r18, 0x210C	; 0x80210c <FirstAuthenticatedPage>
    2d9a:	92 17       	cp	r25, r18
    2d9c:	18 f0       	brcs	.+6      	; 0x2da4 <VerifyAuthentication+0x22>
    2d9e:	80 e0       	ldi	r24, 0x00	; 0
    2da0:	08 95       	ret
        return true;
    2da2:	81 e0       	ldi	r24, 0x01	; 1
}
    2da4:	08 95       	ret

00002da6 <AppInitEV1Common>:
{
    2da6:	ff 92       	push	r15
    2da8:	0f 93       	push	r16
    2daa:	1f 93       	push	r17
    2dac:	cf 93       	push	r28
    2dae:	df 93       	push	r29
    2db0:	1f 92       	push	r1
    2db2:	cd b7       	in	r28, 0x3d	; 61
    2db4:	de b7       	in	r29, 0x3e	; 62
    uint8_t ConfigAreaAddress = PageCount * MIFARE_ULTRALIGHT_PAGE_SIZE - CONFIG_AREA_SIZE;
    2db6:	00 91 10 21 	lds	r16, 0x2110	; 0x802110 <PageCount>
    2dba:	04 5c       	subi	r16, 0xC4	; 196
    2dbc:	00 0f       	add	r16, r16
    2dbe:	00 0f       	add	r16, r16
    Flavor = UL_EV1;
    2dc0:	ff 24       	eor	r15, r15
    2dc2:	f3 94       	inc	r15
    2dc4:	f0 92 13 21 	sts	0x2113, r15	; 0x802113 <Flavor>
    MemoryReadBlock(&FirstAuthenticatedPage, ConfigAreaAddress + CONF_AUTH0_OFFSET, 1);
    2dc8:	10 e0       	ldi	r17, 0x00	; 0
    2dca:	b8 01       	movw	r22, r16
    2dcc:	6d 5f       	subi	r22, 0xFD	; 253
    2dce:	7f 4f       	sbci	r23, 0xFF	; 255
    2dd0:	41 e0       	ldi	r20, 0x01	; 1
    2dd2:	50 e0       	ldi	r21, 0x00	; 0
    2dd4:	8c e0       	ldi	r24, 0x0C	; 12
    2dd6:	91 e2       	ldi	r25, 0x21	; 33
    2dd8:	0e 94 3f 09 	call	0x127e	; 0x127e <MemoryReadBlock>
    MemoryReadBlock(&Access, ConfigAreaAddress + CONF_ACCESS_OFFSET, 1);
    2ddc:	b8 01       	movw	r22, r16
    2dde:	6c 5f       	subi	r22, 0xFC	; 252
    2de0:	7f 4f       	sbci	r23, 0xFF	; 255
    2de2:	41 e0       	ldi	r20, 0x01	; 1
    2de4:	50 e0       	ldi	r21, 0x00	; 0
    2de6:	ce 01       	movw	r24, r28
    2de8:	01 96       	adiw	r24, 0x01	; 1
    2dea:	0e 94 3f 09 	call	0x127e	; 0x127e <MemoryReadBlock>
    ReadAccessProtected = !!(Access & CONF_ACCESS_PROT);
    2dee:	89 81       	ldd	r24, Y+1	; 0x01
    2df0:	88 1f       	adc	r24, r24
    2df2:	88 27       	eor	r24, r24
    2df4:	88 1f       	adc	r24, r24
    2df6:	80 93 0b 21 	sts	0x210B, r24	; 0x80210b <ReadAccessProtected>
    State = STATE_IDLE;
    2dfa:	f0 92 12 21 	sts	0x2112, r15	; 0x802112 <State>
    FromHalt = false;
    2dfe:	10 92 11 21 	sts	0x2111, r1	; 0x802111 <FromHalt>
    Authenticated = false;
    2e02:	10 92 0d 21 	sts	0x210D, r1	; 0x80210d <Authenticated>
    ArmedForCompatWrite = false;
    2e06:	10 92 0f 21 	sts	0x210F, r1	; 0x80210f <ArmedForCompatWrite>
}
    2e0a:	0f 90       	pop	r0
    2e0c:	df 91       	pop	r29
    2e0e:	cf 91       	pop	r28
    2e10:	1f 91       	pop	r17
    2e12:	0f 91       	pop	r16
    2e14:	ff 90       	pop	r15
    2e16:	08 95       	ret

00002e18 <MifareUltralightAppInit>:
    Flavor = UL_EV0;
    2e18:	10 92 13 21 	sts	0x2113, r1	; 0x802113 <Flavor>
    PageCount = MIFARE_ULTRALIGHT_PAGES;
    2e1c:	80 e1       	ldi	r24, 0x10	; 16
    2e1e:	80 93 10 21 	sts	0x2110, r24	; 0x802110 <PageCount>
    FirstAuthenticatedPage = 0xFF;
    2e22:	8f ef       	ldi	r24, 0xFF	; 255
    2e24:	80 93 0c 21 	sts	0x210C, r24	; 0x80210c <FirstAuthenticatedPage>
    ReadAccessProtected = false;
    2e28:	10 92 0b 21 	sts	0x210B, r1	; 0x80210b <ReadAccessProtected>
    State = STATE_IDLE;
    2e2c:	81 e0       	ldi	r24, 0x01	; 1
    2e2e:	80 93 12 21 	sts	0x2112, r24	; 0x802112 <State>
    FromHalt = false;
    2e32:	10 92 11 21 	sts	0x2111, r1	; 0x802111 <FromHalt>
    Authenticated = false;
    2e36:	10 92 0d 21 	sts	0x210D, r1	; 0x80210d <Authenticated>
    ArmedForCompatWrite = false;
    2e3a:	10 92 0f 21 	sts	0x210F, r1	; 0x80210f <ArmedForCompatWrite>
}
    2e3e:	08 95       	ret

00002e40 <MifareUltralightEV11AppInit>:
    PageCount = MIFARE_ULTRALIGHT_EV11_PAGES;
    2e40:	84 e1       	ldi	r24, 0x14	; 20
    2e42:	80 93 10 21 	sts	0x2110, r24	; 0x802110 <PageCount>
    AppInitEV1Common();
    2e46:	af cf       	rjmp	.-162    	; 0x2da6 <AppInitEV1Common>

00002e48 <MifareUltralightEV12AppInit>:
    PageCount = MIFARE_ULTRALIGHT_EV12_PAGES;
    2e48:	89 e2       	ldi	r24, 0x29	; 41
    2e4a:	80 93 10 21 	sts	0x2110, r24	; 0x802110 <PageCount>
    AppInitEV1Common();
    2e4e:	ab cf       	rjmp	.-170    	; 0x2da6 <AppInitEV1Common>

00002e50 <MifareUltralightAppReset>:
    State = STATE_IDLE;
    2e50:	81 e0       	ldi	r24, 0x01	; 1
    2e52:	80 93 12 21 	sts	0x2112, r24	; 0x802112 <State>
}
    2e56:	08 95       	ret

00002e58 <MifareUltralightAppTask>:
}
    2e58:	08 95       	ret

00002e5a <MifareUltralightAppProcess>:
    State = STATE_IDLE;
    return ISO14443A_APP_NO_RESPONSE;
}

uint16_t MifareUltralightAppProcess(uint8_t* Buffer, uint16_t BitCount)
{
    2e5a:	af 92       	push	r10
    2e5c:	bf 92       	push	r11
    2e5e:	cf 92       	push	r12
    2e60:	df 92       	push	r13
    2e62:	ef 92       	push	r14
    2e64:	ff 92       	push	r15
    2e66:	0f 93       	push	r16
    2e68:	1f 93       	push	r17
    2e6a:	cf 93       	push	r28
    2e6c:	df 93       	push	r29
    2e6e:	00 d0       	rcall	.+0      	; 0x2e70 <MifareUltralightAppProcess+0x16>
    2e70:	00 d0       	rcall	.+0      	; 0x2e72 <MifareUltralightAppProcess+0x18>
    2e72:	cd b7       	in	r28, 0x3d	; 61
    2e74:	de b7       	in	r29, 0x3e	; 62
    2e76:	8c 01       	movw	r16, r24
    uint8_t Cmd = Buffer[0];
    2e78:	fc 01       	movw	r30, r24
    2e7a:	80 81       	ld	r24, Z
    uint16_t ByteCount;

    switch(State) {
    2e7c:	90 91 12 21 	lds	r25, 0x2112	; 0x802112 <State>
    2e80:	92 30       	cpi	r25, 0x02	; 2
    2e82:	61 f1       	breq	.+88     	; 0x2edc <MifareUltralightAppProcess+0x82>
    2e84:	48 f0       	brcs	.+18     	; 0x2e98 <MifareUltralightAppProcess+0x3e>
    2e86:	93 30       	cpi	r25, 0x03	; 3
    2e88:	09 f4       	brne	.+2      	; 0x2e8c <MifareUltralightAppProcess+0x32>
    2e8a:	bc c0       	rjmp	.+376    	; 0x3004 <__stack+0x5>
    2e8c:	94 30       	cpi	r25, 0x04	; 4
    2e8e:	09 f4       	brne	.+2      	; 0x2e92 <MifareUltralightAppProcess+0x38>
    2e90:	0f c1       	rjmp	.+542    	; 0x30b0 <__stack+0xb1>
        /* Unknown state? Should never happen. */
        break;
    }

    /* No response has been sent, when we reach here */
    return ISO14443A_APP_NO_RESPONSE;
    2e92:	90 e0       	ldi	r25, 0x00	; 0
    2e94:	80 e0       	ldi	r24, 0x00	; 0
    2e96:	14 c0       	rjmp	.+40     	; 0x2ec0 <MifareUltralightAppProcess+0x66>
        FromHalt = State == STATE_HALT;
    2e98:	29 2f       	mov	r18, r25
    2e9a:	20 95       	com	r18
    2e9c:	21 70       	andi	r18, 0x01	; 1
    2e9e:	20 93 11 21 	sts	0x2111, r18	; 0x802111 <FromHalt>
INLINE
bool ISO14443AWakeUp(void* Buffer, uint16_t* BitCount, uint16_t ATQAValue, bool FromHalt)
{
    uint8_t* DataPtr = (uint8_t*) Buffer;

    if ( ((! FromHalt) && (DataPtr[0] == ISO14443A_CMD_REQA)) ||
    2ea2:	99 23       	and	r25, r25
    2ea4:	11 f0       	breq	.+4      	; 0x2eaa <MifareUltralightAppProcess+0x50>
    2ea6:	86 32       	cpi	r24, 0x26	; 38
    2ea8:	11 f0       	breq	.+4      	; 0x2eae <MifareUltralightAppProcess+0x54>
    2eaa:	82 35       	cpi	r24, 0x52	; 82
    2eac:	91 f7       	brne	.-28     	; 0x2e92 <MifareUltralightAppProcess+0x38>
         (DataPtr[0] == ISO14443A_CMD_WUPA) ){
        DataPtr[0] = (ATQAValue >> 0) & 0x00FF;
    2eae:	84 e4       	ldi	r24, 0x44	; 68
    2eb0:	f8 01       	movw	r30, r16
    2eb2:	80 83       	st	Z, r24
        DataPtr[1] = (ATQAValue >> 8) & 0x00FF;
    2eb4:	11 82       	std	Z+1, r1	; 0x01
            State = STATE_READY1;
    2eb6:	82 e0       	ldi	r24, 0x02	; 2
    2eb8:	80 93 12 21 	sts	0x2112, r24	; 0x802112 <State>

        *BitCount = ISO14443A_ATQA_FRAME_SIZE;
    2ebc:	80 e1       	ldi	r24, 0x10	; 16
    2ebe:	90 e0       	ldi	r25, 0x00	; 0
}
    2ec0:	24 96       	adiw	r28, 0x04	; 4
    2ec2:	cd bf       	out	0x3d, r28	; 61
    2ec4:	de bf       	out	0x3e, r29	; 62
    2ec6:	df 91       	pop	r29
    2ec8:	cf 91       	pop	r28
    2eca:	1f 91       	pop	r17
    2ecc:	0f 91       	pop	r16
    2ece:	ff 90       	pop	r15
    2ed0:	ef 90       	pop	r14
    2ed2:	df 90       	pop	r13
    2ed4:	cf 90       	pop	r12
    2ed6:	bf 90       	pop	r11
    2ed8:	af 90       	pop	r10
    2eda:	08 95       	ret
        if (ISO14443AWakeUp(Buffer, &BitCount, ATQA_VALUE, FromHalt)) {
    2edc:	90 91 11 21 	lds	r25, 0x2111	; 0x802111 <FromHalt>
    if ( ((! FromHalt) && (DataPtr[0] == ISO14443A_CMD_REQA)) ||
    2ee0:	91 11       	cpse	r25, r1
    2ee2:	03 c0       	rjmp	.+6      	; 0x2eea <MifareUltralightAppProcess+0x90>
    2ee4:	86 32       	cpi	r24, 0x26	; 38
    2ee6:	09 f4       	brne	.+2      	; 0x2eea <MifareUltralightAppProcess+0x90>
    2ee8:	01 c1       	rjmp	.+514    	; 0x30ec <__stack+0xed>
    2eea:	82 35       	cpi	r24, 0x52	; 82
    2eec:	09 f4       	brne	.+2      	; 0x2ef0 <MifareUltralightAppProcess+0x96>
    2eee:	fe c0       	rjmp	.+508    	; 0x30ec <__stack+0xed>
        } else if (Cmd == ISO14443A_CMD_SELECT_CL1) {
    2ef0:	83 39       	cpi	r24, 0x93	; 147
    2ef2:	09 f0       	breq	.+2      	; 0x2ef6 <MifareUltralightAppProcess+0x9c>
    2ef4:	ec c1       	rjmp	.+984    	; 0x32ce <__stack+0x2cf>
            uint8_t UidCL1[ISO14443A_CL_UID_SIZE] = { [0] = ISO14443A_UID0_CT };
    2ef6:	19 82       	std	Y+1, r1	; 0x01
    2ef8:	1a 82       	std	Y+2, r1	; 0x02
    2efa:	1b 82       	std	Y+3, r1	; 0x03
    2efc:	1c 82       	std	Y+4, r1	; 0x04
    2efe:	88 e8       	ldi	r24, 0x88	; 136
    2f00:	89 83       	std	Y+1, r24	; 0x01
            MemoryReadBlock(&UidCL1[1], UID_CL1_ADDRESS, UID_CL1_SIZE);
    2f02:	43 e0       	ldi	r20, 0x03	; 3
    2f04:	50 e0       	ldi	r21, 0x00	; 0
    2f06:	70 e0       	ldi	r23, 0x00	; 0
    2f08:	60 e0       	ldi	r22, 0x00	; 0
    2f0a:	ce 01       	movw	r24, r28
    2f0c:	02 96       	adiw	r24, 0x02	; 2
    2f0e:	0e 94 3f 09 	call	0x127e	; 0x127e <MemoryReadBlock>
    uint8_t NVB = DataPtr[1];
    2f12:	f8 01       	movw	r30, r16
    2f14:	81 81       	ldd	r24, Z+1	; 0x01
    switch (NVB) {
    2f16:	80 32       	cpi	r24, 0x20	; 32
    2f18:	09 f4       	brne	.+2      	; 0x2f1c <MifareUltralightAppProcess+0xc2>
    2f1a:	47 c0       	rjmp	.+142    	; 0x2faa <MifareUltralightAppProcess+0x150>
    2f1c:	80 37       	cpi	r24, 0x70	; 112
    2f1e:	09 f4       	brne	.+2      	; 0x2f22 <MifareUltralightAppProcess+0xc8>
    2f20:	54 c0       	rjmp	.+168    	; 0x2fca <MifareUltralightAppProcess+0x170>
        uint8_t CollisionByteCount = ((NVB >> 4) & 0x0f) - 2;
    2f22:	c8 2e       	mov	r12, r24
    2f24:	c2 94       	swap	r12
    2f26:	ff e0       	ldi	r31, 0x0F	; 15
    2f28:	cf 22       	and	r12, r31
    2f2a:	ca 94       	dec	r12
    2f2c:	ca 94       	dec	r12
        uint8_t CollisionBitCount  = (NVB >> 0) & 0x0f;
    2f2e:	8f 70       	andi	r24, 0x0F	; 15
    2f30:	d8 2e       	mov	r13, r24
        uint8_t mask = 0xFF >> (8 - CollisionBitCount);
    2f32:	88 e0       	ldi	r24, 0x08	; 8
    2f34:	90 e0       	ldi	r25, 0x00	; 0
    2f36:	8d 19       	sub	r24, r13
    2f38:	91 09       	sbc	r25, r1
    2f3a:	2f ef       	ldi	r18, 0xFF	; 255
    2f3c:	30 e0       	ldi	r19, 0x00	; 0
    2f3e:	79 01       	movw	r14, r18
    2f40:	02 c0       	rjmp	.+4      	; 0x2f46 <MifareUltralightAppProcess+0xec>
    2f42:	f5 94       	asr	r15
    2f44:	e7 94       	ror	r14
    2f46:	8a 95       	dec	r24
    2f48:	e2 f7       	brpl	.-8      	; 0x2f42 <MifareUltralightAppProcess+0xe8>
        if (
    2f4a:	f5 e0       	ldi	r31, 0x05	; 5
    2f4c:	cf 16       	cp	r12, r31
    2f4e:	29 f0       	breq	.+10     	; 0x2f5a <MifareUltralightAppProcess+0x100>
                ((CollisionByteCount == 5 || (CollisionByteCount == 4 && CollisionBitCount > 0)) && memcmp(UidCL, &DataPtr[2], 4) == 0 && (ISO14443A_CALC_BCC(UidCL) & mask) == (DataPtr[6] & mask))
    2f50:	24 e0       	ldi	r18, 0x04	; 4
    2f52:	c2 12       	cpse	r12, r18
    2f54:	8c c0       	rjmp	.+280    	; 0x306e <__stack+0x6f>
    2f56:	dd 20       	and	r13, r13
    2f58:	e1 f0       	breq	.+56     	; 0x2f92 <MifareUltralightAppProcess+0x138>
    2f5a:	44 e0       	ldi	r20, 0x04	; 4
    2f5c:	50 e0       	ldi	r21, 0x00	; 0
    2f5e:	b8 01       	movw	r22, r16
    2f60:	6e 5f       	subi	r22, 0xFE	; 254
    2f62:	7f 4f       	sbci	r23, 0xFF	; 255
    2f64:	ce 01       	movw	r24, r28
    2f66:	01 96       	adiw	r24, 0x01	; 1
    2f68:	0e 94 38 2e 	call	0x5c70	; 0x5c70 <memcmp>
    2f6c:	89 2b       	or	r24, r25
    2f6e:	61 f4       	brne	.+24     	; 0x2f88 <MifareUltralightAppProcess+0x12e>
    2f70:	89 81       	ldd	r24, Y+1	; 0x01
    2f72:	9a 81       	ldd	r25, Y+2	; 0x02
    2f74:	89 27       	eor	r24, r25
    2f76:	9b 81       	ldd	r25, Y+3	; 0x03
    2f78:	89 27       	eor	r24, r25
    2f7a:	9c 81       	ldd	r25, Y+4	; 0x04
    2f7c:	89 27       	eor	r24, r25
    2f7e:	f8 01       	movw	r30, r16
    2f80:	96 81       	ldd	r25, Z+6	; 0x06
    2f82:	89 27       	eor	r24, r25
    2f84:	8e 21       	and	r24, r14
    2f86:	89 f0       	breq	.+34     	; 0x2faa <MifareUltralightAppProcess+0x150>
                ||
    2f88:	f4 e0       	ldi	r31, 0x04	; 4
    2f8a:	cf 12       	cpse	r12, r31
    2f8c:	70 c0       	rjmp	.+224    	; 0x306e <__stack+0x6f>
                (CollisionByteCount == 4 && CollisionBitCount == 0 && memcmp(UidCL, &DataPtr[2], 4) == 0)
    2f8e:	d1 10       	cpse	r13, r1
    2f90:	80 cf       	rjmp	.-256    	; 0x2e92 <MifareUltralightAppProcess+0x38>
    2f92:	44 e0       	ldi	r20, 0x04	; 4
    2f94:	50 e0       	ldi	r21, 0x00	; 0
    2f96:	b8 01       	movw	r22, r16
    2f98:	6e 5f       	subi	r22, 0xFE	; 254
    2f9a:	7f 4f       	sbci	r23, 0xFF	; 255
    2f9c:	ce 01       	movw	r24, r28
    2f9e:	01 96       	adiw	r24, 0x01	; 1
    2fa0:	0e 94 38 2e 	call	0x5c70	; 0x5c70 <memcmp>
    2fa4:	89 2b       	or	r24, r25
    2fa6:	09 f0       	breq	.+2      	; 0x2faa <MifareUltralightAppProcess+0x150>
    2fa8:	74 cf       	rjmp	.-280    	; 0x2e92 <MifareUltralightAppProcess+0x38>
            DataPtr[0] = UidCL[0];
    2faa:	89 81       	ldd	r24, Y+1	; 0x01
    2fac:	f8 01       	movw	r30, r16
    2fae:	80 83       	st	Z, r24
            DataPtr[1] = UidCL[1];
    2fb0:	3a 81       	ldd	r19, Y+2	; 0x02
    2fb2:	31 83       	std	Z+1, r19	; 0x01
            DataPtr[2] = UidCL[2];
    2fb4:	2b 81       	ldd	r18, Y+3	; 0x03
    2fb6:	22 83       	std	Z+2, r18	; 0x02
            DataPtr[3] = UidCL[3];
    2fb8:	9c 81       	ldd	r25, Y+4	; 0x04
    2fba:	93 83       	std	Z+3, r25	; 0x03
            DataPtr[4] = ISO14443A_CALC_BCC(DataPtr);
    2fbc:	83 27       	eor	r24, r19
    2fbe:	82 27       	eor	r24, r18
    2fc0:	89 27       	eor	r24, r25
    2fc2:	84 83       	std	Z+4, r24	; 0x04
                return (3 + ISO14443A_CRCA_SIZE) * 8;
    2fc4:	88 e2       	ldi	r24, 0x28	; 40
    2fc6:	90 e0       	ldi	r25, 0x00	; 0
    2fc8:	7b cf       	rjmp	.-266    	; 0x2ec0 <MifareUltralightAppProcess+0x66>
        if (    (DataPtr[2] == UidCL[0]) &&
    2fca:	92 81       	ldd	r25, Z+2	; 0x02
    2fcc:	89 81       	ldd	r24, Y+1	; 0x01
    2fce:	98 13       	cpse	r25, r24
    2fd0:	60 cf       	rjmp	.-320    	; 0x2e92 <MifareUltralightAppProcess+0x38>
    2fd2:	93 81       	ldd	r25, Z+3	; 0x03
    2fd4:	8a 81       	ldd	r24, Y+2	; 0x02
    2fd6:	98 13       	cpse	r25, r24
    2fd8:	5c cf       	rjmp	.-328    	; 0x2e92 <MifareUltralightAppProcess+0x38>
                (DataPtr[3] == UidCL[1]) &&
    2fda:	94 81       	ldd	r25, Z+4	; 0x04
    2fdc:	8b 81       	ldd	r24, Y+3	; 0x03
    2fde:	98 13       	cpse	r25, r24
    2fe0:	58 cf       	rjmp	.-336    	; 0x2e92 <MifareUltralightAppProcess+0x38>
                (DataPtr[4] == UidCL[2]) &&
    2fe2:	95 81       	ldd	r25, Z+5	; 0x05
    2fe4:	8c 81       	ldd	r24, Y+4	; 0x04
    2fe6:	98 13       	cpse	r25, r24
    2fe8:	54 cf       	rjmp	.-344    	; 0x2e92 <MifareUltralightAppProcess+0x38>
            DataPtr[0] = SAKValue;
    2fea:	84 e0       	ldi	r24, 0x04	; 4
    2fec:	80 83       	st	Z, r24
            ISO14443AAppendCRCA(Buffer, 1);
    2fee:	61 e0       	ldi	r22, 0x01	; 1
    2ff0:	70 e0       	ldi	r23, 0x00	; 0
    2ff2:	c8 01       	movw	r24, r16
    2ff4:	0e 94 4d 23 	call	0x469a	; 0x469a <ISO14443AAppendCRCA>
                State = STATE_READY2;
    2ff8:	83 e0       	ldi	r24, 0x03	; 3
                State = STATE_ACTIVE;
    2ffa:	80 93 12 21 	sts	0x2112, r24	; 0x802112 <State>
                return (1 + ISO14443A_CRCA_SIZE) * 8;
    2ffe:	88 e1       	ldi	r24, 0x18	; 24
    3000:	90 e0       	ldi	r25, 0x00	; 0
    3002:	5e cf       	rjmp	.-324    	; 0x2ec0 <MifareUltralightAppProcess+0x66>
        if (ISO14443AWakeUp(Buffer, &BitCount, ATQA_VALUE, FromHalt)) {
    3004:	90 91 11 21 	lds	r25, 0x2111	; 0x802111 <FromHalt>
    if ( ((! FromHalt) && (DataPtr[0] == ISO14443A_CMD_REQA)) ||
    3008:	91 11       	cpse	r25, r1
    300a:	03 c0       	rjmp	.+6      	; 0x3012 <__stack+0x13>
    300c:	86 32       	cpi	r24, 0x26	; 38
    300e:	09 f4       	brne	.+2      	; 0x3012 <__stack+0x13>
    3010:	6d c0       	rjmp	.+218    	; 0x30ec <__stack+0xed>
    3012:	82 35       	cpi	r24, 0x52	; 82
    3014:	09 f4       	brne	.+2      	; 0x3018 <__stack+0x19>
    3016:	6a c0       	rjmp	.+212    	; 0x30ec <__stack+0xed>
        } else if (Cmd == ISO14443A_CMD_SELECT_CL2) {
    3018:	85 39       	cpi	r24, 0x95	; 149
    301a:	09 f0       	breq	.+2      	; 0x301e <__stack+0x1f>
    301c:	58 c1       	rjmp	.+688    	; 0x32ce <__stack+0x2cf>
            MemoryReadBlock(UidCL2, UID_CL2_ADDRESS, UID_CL2_SIZE);
    301e:	44 e0       	ldi	r20, 0x04	; 4
    3020:	50 e0       	ldi	r21, 0x00	; 0
    3022:	64 e0       	ldi	r22, 0x04	; 4
    3024:	70 e0       	ldi	r23, 0x00	; 0
    3026:	ce 01       	movw	r24, r28
    3028:	01 96       	adiw	r24, 0x01	; 1
    302a:	0e 94 3f 09 	call	0x127e	; 0x127e <MemoryReadBlock>
    uint8_t NVB = DataPtr[1];
    302e:	f8 01       	movw	r30, r16
    3030:	81 81       	ldd	r24, Z+1	; 0x01
    switch (NVB) {
    3032:	80 32       	cpi	r24, 0x20	; 32
    3034:	09 f4       	brne	.+2      	; 0x3038 <__stack+0x39>
    3036:	b9 cf       	rjmp	.-142    	; 0x2faa <MifareUltralightAppProcess+0x150>
    3038:	80 37       	cpi	r24, 0x70	; 112
    303a:	09 f0       	breq	.+2      	; 0x303e <__stack+0x3f>
    303c:	72 cf       	rjmp	.-284    	; 0x2f22 <MifareUltralightAppProcess+0xc8>
        if (    (DataPtr[2] == UidCL[0]) &&
    303e:	92 81       	ldd	r25, Z+2	; 0x02
    3040:	89 81       	ldd	r24, Y+1	; 0x01
    3042:	98 13       	cpse	r25, r24
    3044:	26 cf       	rjmp	.-436    	; 0x2e92 <MifareUltralightAppProcess+0x38>
    3046:	93 81       	ldd	r25, Z+3	; 0x03
    3048:	8a 81       	ldd	r24, Y+2	; 0x02
    304a:	98 13       	cpse	r25, r24
    304c:	22 cf       	rjmp	.-444    	; 0x2e92 <MifareUltralightAppProcess+0x38>
                (DataPtr[3] == UidCL[1]) &&
    304e:	94 81       	ldd	r25, Z+4	; 0x04
    3050:	8b 81       	ldd	r24, Y+3	; 0x03
    3052:	98 13       	cpse	r25, r24
    3054:	1e cf       	rjmp	.-452    	; 0x2e92 <MifareUltralightAppProcess+0x38>
                (DataPtr[4] == UidCL[2]) &&
    3056:	95 81       	ldd	r25, Z+5	; 0x05
    3058:	8c 81       	ldd	r24, Y+4	; 0x04
    305a:	98 13       	cpse	r25, r24
    305c:	1a cf       	rjmp	.-460    	; 0x2e92 <MifareUltralightAppProcess+0x38>
            DataPtr[0] = SAKValue;
    305e:	10 82       	st	Z, r1
            ISO14443AAppendCRCA(Buffer, 1);
    3060:	61 e0       	ldi	r22, 0x01	; 1
    3062:	70 e0       	ldi	r23, 0x00	; 0
    3064:	c8 01       	movw	r24, r16
    3066:	0e 94 4d 23 	call	0x469a	; 0x469a <ISO14443AAppendCRCA>
                State = STATE_ACTIVE;
    306a:	84 e0       	ldi	r24, 0x04	; 4
    306c:	c6 cf       	rjmp	.-116    	; 0x2ffa <MifareUltralightAppProcess+0x1a0>
                ||
    306e:	23 e0       	ldi	r18, 0x03	; 3
    3070:	2c 15       	cp	r18, r12
    3072:	08 f4       	brcc	.+2      	; 0x3076 <__stack+0x77>
    3074:	0e cf       	rjmp	.-484    	; 0x2e92 <MifareUltralightAppProcess+0x38>
                (CollisionByteCount < 4 && memcmp(UidCL, &DataPtr[2], CollisionByteCount) == 0 && (UidCL[CollisionByteCount] & mask) == (DataPtr[CollisionByteCount + 2] & mask))
    3076:	d1 2c       	mov	r13, r1
    3078:	a6 01       	movw	r20, r12
    307a:	b8 01       	movw	r22, r16
    307c:	6e 5f       	subi	r22, 0xFE	; 254
    307e:	7f 4f       	sbci	r23, 0xFF	; 255
    3080:	ce 01       	movw	r24, r28
    3082:	01 96       	adiw	r24, 0x01	; 1
    3084:	0e 94 38 2e 	call	0x5c70	; 0x5c70 <memcmp>
    3088:	89 2b       	or	r24, r25
    308a:	09 f0       	breq	.+2      	; 0x308e <__stack+0x8f>
    308c:	02 cf       	rjmp	.-508    	; 0x2e92 <MifareUltralightAppProcess+0x38>
    308e:	d8 01       	movw	r26, r16
    3090:	ac 0d       	add	r26, r12
    3092:	bd 1d       	adc	r27, r13
    3094:	e1 e0       	ldi	r30, 0x01	; 1
    3096:	f0 e0       	ldi	r31, 0x00	; 0
    3098:	ec 0f       	add	r30, r28
    309a:	fd 1f       	adc	r31, r29
    309c:	ec 0d       	add	r30, r12
    309e:	fd 1d       	adc	r31, r13
    30a0:	12 96       	adiw	r26, 0x02	; 2
    30a2:	8c 91       	ld	r24, X
    30a4:	90 81       	ld	r25, Z
    30a6:	89 27       	eor	r24, r25
    30a8:	e8 22       	and	r14, r24
    30aa:	09 f4       	brne	.+2      	; 0x30ae <__stack+0xaf>
    30ac:	7e cf       	rjmp	.-260    	; 0x2faa <MifareUltralightAppProcess+0x150>
    30ae:	f1 ce       	rjmp	.-542    	; 0x2e92 <MifareUltralightAppProcess+0x38>
        if (ISO14443AWakeUp(Buffer, &BitCount, ATQA_VALUE, FromHalt)) {
    30b0:	90 91 11 21 	lds	r25, 0x2111	; 0x802111 <FromHalt>
    if ( ((! FromHalt) && (DataPtr[0] == ISO14443A_CMD_REQA)) ||
    30b4:	91 11       	cpse	r25, r1
    30b6:	02 c0       	rjmp	.+4      	; 0x30bc <__stack+0xbd>
    30b8:	86 32       	cpi	r24, 0x26	; 38
    30ba:	c1 f0       	breq	.+48     	; 0x30ec <__stack+0xed>
    30bc:	82 35       	cpi	r24, 0x52	; 82
    30be:	b1 f0       	breq	.+44     	; 0x30ec <__stack+0xed>
        ByteCount = (BitCount + 7) >> 3;
    30c0:	69 5f       	subi	r22, 0xF9	; 249
    30c2:	7f 4f       	sbci	r23, 0xFF	; 255
    30c4:	e3 e0       	ldi	r30, 0x03	; 3
    30c6:	76 95       	lsr	r23
    30c8:	67 95       	ror	r22
    30ca:	ea 95       	dec	r30
    30cc:	e1 f7       	brne	.-8      	; 0x30c6 <__stack+0xc7>
        if (ByteCount < (1 + ISO14443A_CRCA_SIZE)) {
    30ce:	63 30       	cpi	r22, 0x03	; 3
    30d0:	71 05       	cpc	r23, r1
    30d2:	08 f4       	brcc	.+2      	; 0x30d6 <__stack+0xd7>
    30d4:	fc c0       	rjmp	.+504    	; 0x32ce <__stack+0x2cf>
        ByteCount -= 2;
    30d6:	62 50       	subi	r22, 0x02	; 2
    30d8:	71 09       	sbc	r23, r1
        if (!ISO14443ACheckCRCA(Buffer, ByteCount)) {
    30da:	c8 01       	movw	r24, r16
    30dc:	0e 94 78 23 	call	0x46f0	; 0x46f0 <ISO14443ACheckCRCA>
    30e0:	81 11       	cpse	r24, r1
    30e2:	0d c0       	rjmp	.+26     	; 0x30fe <__stack+0xff>
            Buffer[0] = NAK_CRC_ERROR;
    30e4:	81 e0       	ldi	r24, 0x01	; 1
                Buffer[0] = ACK_VALUE;
    30e6:	f8 01       	movw	r30, r16
    30e8:	80 83       	st	Z, r24
    30ea:	a0 c0       	rjmp	.+320    	; 0x322c <__stack+0x22d>
        DataPtr[0] = (ATQAValue >> 0) & 0x00FF;
    30ec:	84 e4       	ldi	r24, 0x44	; 68
    30ee:	f8 01       	movw	r30, r16
    30f0:	80 83       	st	Z, r24
        DataPtr[1] = (ATQAValue >> 8) & 0x00FF;
    30f2:	11 82       	std	Z+1, r1	; 0x01
            State = FromHalt ? STATE_HALT : STATE_IDLE;
    30f4:	81 e0       	ldi	r24, 0x01	; 1
    30f6:	98 27       	eor	r25, r24
    30f8:	90 93 12 21 	sts	0x2112, r25	; 0x802112 <State>
    30fc:	ca ce       	rjmp	.-620    	; 0x2e92 <MifareUltralightAppProcess+0x38>
    if (ArmedForCompatWrite) {
    30fe:	80 91 0f 21 	lds	r24, 0x210F	; 0x80210f <ArmedForCompatWrite>
    3102:	88 23       	and	r24, r24
    3104:	91 f0       	breq	.+36     	; 0x312a <__stack+0x12b>
        ArmedForCompatWrite = false;
    3106:	10 92 0f 21 	sts	0x210F, r1	; 0x80210f <ArmedForCompatWrite>
    if (!ActiveConfiguration.ReadOnly) {
    310a:	80 91 61 21 	lds	r24, 0x2161	; 0x802161 <ActiveConfiguration+0x17>
    310e:	81 11       	cpse	r24, r1
    3110:	cf c0       	rjmp	.+414    	; 0x32b0 <__stack+0x2b1>
        MemoryWriteBlock(Buffer, PageAddress * MIFARE_ULTRALIGHT_PAGE_SIZE, MIFARE_ULTRALIGHT_PAGE_SIZE);
    3112:	60 91 0e 21 	lds	r22, 0x210E	; 0x80210e <CompatWritePageAddress>
    3116:	f4 e0       	ldi	r31, 0x04	; 4
    3118:	6f 9f       	mul	r22, r31
    311a:	b0 01       	movw	r22, r0
    311c:	11 24       	eor	r1, r1
    311e:	44 e0       	ldi	r20, 0x04	; 4
    3120:	50 e0       	ldi	r21, 0x00	; 0
    3122:	c8 01       	movw	r24, r16
                MemoryWriteBlock(&Counter, (PageCount + CounterId) * MIFARE_ULTRALIGHT_PAGE_SIZE, MIFARE_ULTRALIGHT_PAGE_SIZE);
    3124:	0e 94 c8 09 	call	0x1390	; 0x1390 <MemoryWriteBlock>
    3128:	c3 c0       	rjmp	.+390    	; 0x32b0 <__stack+0x2b1>
    uint8_t Cmd = Buffer[0];
    312a:	f8 01       	movw	r30, r16
    312c:	80 81       	ld	r24, Z
    switch (Cmd) {
    312e:	80 35       	cpi	r24, 0x50	; 80
    3130:	09 f4       	brne	.+2      	; 0x3134 <__stack+0x135>
    3132:	c0 c0       	rjmp	.+384    	; 0x32b4 <__stack+0x2b5>
    3134:	08 f0       	brcs	.+2      	; 0x3138 <__stack+0x139>
    3136:	52 c0       	rjmp	.+164    	; 0x31dc <__stack+0x1dd>
    3138:	80 33       	cpi	r24, 0x30	; 48
    313a:	09 f4       	brne	.+2      	; 0x313e <__stack+0x13f>
    313c:	63 c0       	rjmp	.+198    	; 0x3204 <__stack+0x205>
    if (Flavor >= UL_EV1) {
    313e:	90 91 13 21 	lds	r25, 0x2113	; 0x802113 <Flavor>
    3142:	99 23       	and	r25, r25
    3144:	09 f4       	brne	.+2      	; 0x3148 <__stack+0x149>
    3146:	c3 c0       	rjmp	.+390    	; 0x32ce <__stack+0x2cf>
        switch (Cmd) {
    3148:	8c 33       	cpi	r24, 0x3C	; 60
    314a:	09 f4       	brne	.+2      	; 0x314e <__stack+0x14f>
    314c:	7a c1       	rjmp	.+756    	; 0x3442 <__stack+0x443>
    314e:	08 f0       	brcs	.+2      	; 0x3152 <__stack+0x153>
    3150:	b7 c0       	rjmp	.+366    	; 0x32c0 <__stack+0x2c1>
    3152:	89 33       	cpi	r24, 0x39	; 57
    3154:	09 f4       	brne	.+2      	; 0x3158 <__stack+0x159>
    3156:	4e c1       	rjmp	.+668    	; 0x33f4 <__stack+0x3f5>
    3158:	8a 33       	cpi	r24, 0x3A	; 58
    315a:	09 f4       	brne	.+2      	; 0x315e <__stack+0x15f>
    315c:	0f c1       	rjmp	.+542    	; 0x337c <__stack+0x37d>
    315e:	8b 31       	cpi	r24, 0x1B	; 27
    3160:	09 f0       	breq	.+2      	; 0x3164 <__stack+0x165>
    3162:	b5 c0       	rjmp	.+362    	; 0x32ce <__stack+0x2cf>
                uint8_t ConfigAreaAddress = PageCount * MIFARE_ULTRALIGHT_PAGE_SIZE - CONFIG_AREA_SIZE;
    3164:	e0 90 10 21 	lds	r14, 0x2110	; 0x802110 <PageCount>
    3168:	2c e3       	ldi	r18, 0x3C	; 60
    316a:	e2 0e       	add	r14, r18
    316c:	ee 0c       	add	r14, r14
    316e:	ee 0c       	add	r14, r14
				MemoryWriteBlock(Buffer+1, MIFARE_ULTRALIGHT_PWD_ADDRESS, 4);
    3170:	44 e0       	ldi	r20, 0x04	; 4
    3172:	50 e0       	ldi	r21, 0x00	; 0
    3174:	68 e0       	ldi	r22, 0x08	; 8
    3176:	71 e0       	ldi	r23, 0x01	; 1
    3178:	c8 01       	movw	r24, r16
    317a:	01 96       	adiw	r24, 0x01	; 1
    317c:	0e 94 c8 09 	call	0x1390	; 0x1390 <MemoryWriteBlock>
                MemoryReadBlock(Password, ConfigAreaAddress + CONF_PASSWORD_OFFSET, 4);
    3180:	f1 2c       	mov	r15, r1
    3182:	b7 01       	movw	r22, r14
    3184:	68 5f       	subi	r22, 0xF8	; 248
    3186:	7f 4f       	sbci	r23, 0xFF	; 255
    3188:	44 e0       	ldi	r20, 0x04	; 4
    318a:	50 e0       	ldi	r21, 0x00	; 0
    318c:	ce 01       	movw	r24, r28
    318e:	01 96       	adiw	r24, 0x01	; 1
    3190:	0e 94 3f 09 	call	0x127e	; 0x127e <MemoryReadBlock>
                if (Password[0] != Buffer[1] || Password[1] != Buffer[2] || Password[2] != Buffer[3] || Password[3] != Buffer[4]) {
    3194:	99 81       	ldd	r25, Y+1	; 0x01
    3196:	f8 01       	movw	r30, r16
    3198:	81 81       	ldd	r24, Z+1	; 0x01
    319a:	98 13       	cpse	r25, r24
    319c:	31 c0       	rjmp	.+98     	; 0x3200 <__stack+0x201>
    319e:	9a 81       	ldd	r25, Y+2	; 0x02
    31a0:	82 81       	ldd	r24, Z+2	; 0x02
    31a2:	98 13       	cpse	r25, r24
    31a4:	2d c0       	rjmp	.+90     	; 0x3200 <__stack+0x201>
    31a6:	9b 81       	ldd	r25, Y+3	; 0x03
    31a8:	83 81       	ldd	r24, Z+3	; 0x03
    31aa:	98 13       	cpse	r25, r24
    31ac:	29 c0       	rjmp	.+82     	; 0x3200 <__stack+0x201>
    31ae:	9c 81       	ldd	r25, Y+4	; 0x04
    31b0:	84 81       	ldd	r24, Z+4	; 0x04
    31b2:	98 13       	cpse	r25, r24
    31b4:	25 c0       	rjmp	.+74     	; 0x3200 <__stack+0x201>
                Authenticated = 1;
    31b6:	81 e0       	ldi	r24, 0x01	; 1
    31b8:	80 93 0d 21 	sts	0x210D, r24	; 0x80210d <Authenticated>
                MemoryReadBlock(Buffer, ConfigAreaAddress + CONF_PACK_OFFSET, 2);
    31bc:	b7 01       	movw	r22, r14
    31be:	64 5f       	subi	r22, 0xF4	; 244
    31c0:	7f 4f       	sbci	r23, 0xFF	; 255
    31c2:	42 e0       	ldi	r20, 0x02	; 2
    31c4:	50 e0       	ldi	r21, 0x00	; 0
    31c6:	c8 01       	movw	r24, r16
    31c8:	0e 94 3f 09 	call	0x127e	; 0x127e <MemoryReadBlock>
                ISO14443AAppendCRCA(Buffer, 2);
    31cc:	62 e0       	ldi	r22, 0x02	; 2
    31ce:	70 e0       	ldi	r23, 0x00	; 0
    31d0:	c8 01       	movw	r24, r16
    31d2:	0e 94 4d 23 	call	0x469a	; 0x469a <ISO14443AAppendCRCA>
                return (2 + ISO14443A_CRCA_SIZE) * 8;
    31d6:	80 e2       	ldi	r24, 0x20	; 32
    31d8:	90 e0       	ldi	r25, 0x00	; 0
    31da:	72 ce       	rjmp	.-796    	; 0x2ec0 <MifareUltralightAppProcess+0x66>
    switch (Cmd) {
    31dc:	80 3a       	cpi	r24, 0xA0	; 160
    31de:	09 f4       	brne	.+2      	; 0x31e2 <__stack+0x1e3>
    31e0:	55 c0       	rjmp	.+170    	; 0x328c <__stack+0x28d>
    31e2:	82 3a       	cpi	r24, 0xA2	; 162
    31e4:	09 f0       	breq	.+2      	; 0x31e8 <__stack+0x1e9>
    31e6:	ab cf       	rjmp	.-170    	; 0x313e <__stack+0x13f>
            uint8_t PageAddress = Buffer[1];
    31e8:	f1 80       	ldd	r15, Z+1	; 0x01
            if ((PageAddress < PAGE_WRITE_MIN) || (PageAddress >= PageCount)) {
    31ea:	f1 e0       	ldi	r31, 0x01	; 1
    31ec:	ff 15       	cp	r31, r15
    31ee:	e0 f4       	brcc	.+56     	; 0x3228 <__stack+0x229>
    31f0:	80 91 10 21 	lds	r24, 0x2110	; 0x802110 <PageCount>
    31f4:	f8 16       	cp	r15, r24
    31f6:	c0 f4       	brcc	.+48     	; 0x3228 <__stack+0x229>
            if (!VerifyAuthentication(PageAddress)) {
    31f8:	8f 2d       	mov	r24, r15
    31fa:	c3 dd       	rcall	.-1146   	; 0x2d82 <VerifyAuthentication>
    31fc:	81 11       	cpse	r24, r1
    31fe:	39 c0       	rjmp	.+114    	; 0x3272 <__stack+0x273>
                    Buffer[0] = NAK_AUTH_FAILED;
    3200:	86 e0       	ldi	r24, 0x06	; 6
    3202:	71 cf       	rjmp	.-286    	; 0x30e6 <__stack+0xe7>
            uint8_t PageAddress = Buffer[1];
    3204:	f1 80       	ldd	r15, Z+1	; 0x01
            if (Flavor >= UL_EV1 && ReadAccessProtected && !Authenticated) {
    3206:	80 91 13 21 	lds	r24, 0x2113	; 0x802113 <Flavor>
    320a:	88 23       	and	r24, r24
    320c:	49 f0       	breq	.+18     	; 0x3220 <__stack+0x221>
    320e:	80 91 0b 21 	lds	r24, 0x210B	; 0x80210b <ReadAccessProtected>
    3212:	88 23       	and	r24, r24
    3214:	29 f0       	breq	.+10     	; 0x3220 <__stack+0x221>
    3216:	80 91 0d 21 	lds	r24, 0x210D	; 0x80210d <Authenticated>
                PageLimit = FirstAuthenticatedPage;
    321a:	e0 90 0c 21 	lds	r14, 0x210C	; 0x80210c <FirstAuthenticatedPage>
            if (Flavor >= UL_EV1 && ReadAccessProtected && !Authenticated) {
    321e:	81 11       	cpse	r24, r1
                PageLimit = PageCount;
    3220:	e0 90 10 21 	lds	r14, 0x2110	; 0x802110 <PageCount>
            if (PageAddress >= PageLimit) {
    3224:	fe 14       	cp	r15, r14
    3226:	28 f0       	brcs	.+10     	; 0x3232 <__stack+0x233>
                Buffer[0] = NAK_INVALID_ARG;
    3228:	f8 01       	movw	r30, r16
                    Buffer[0] = NAK_INVALID_ARG;
    322a:	10 82       	st	Z, r1
    322c:	84 e0       	ldi	r24, 0x04	; 4
    322e:	90 e0       	ldi	r25, 0x00	; 0
    3230:	47 ce       	rjmp	.-882    	; 0x2ec0 <MifareUltralightAppProcess+0x66>
    3232:	68 01       	movw	r12, r16
    3234:	58 01       	movw	r10, r16
    3236:	f0 e1       	ldi	r31, 0x10	; 16
    3238:	af 0e       	add	r10, r31
    323a:	b1 1c       	adc	r11, r1
                MemoryReadBlock(&Buffer[Offset], PageAddress * MIFARE_ULTRALIGHT_PAGE_SIZE, MIFARE_ULTRALIGHT_PAGE_SIZE);
    323c:	24 e0       	ldi	r18, 0x04	; 4
    323e:	f2 9e       	mul	r15, r18
    3240:	b0 01       	movw	r22, r0
    3242:	11 24       	eor	r1, r1
    3244:	44 e0       	ldi	r20, 0x04	; 4
    3246:	50 e0       	ldi	r21, 0x00	; 0
    3248:	c6 01       	movw	r24, r12
    324a:	0e 94 3f 09 	call	0x127e	; 0x127e <MemoryReadBlock>
                PageAddress++;
    324e:	f3 94       	inc	r15
                if (PageAddress == PageLimit) {
    3250:	ef 10       	cpse	r14, r15
    3252:	01 c0       	rjmp	.+2      	; 0x3256 <__stack+0x257>
                    PageAddress = 0;
    3254:	f1 2c       	mov	r15, r1
    3256:	84 e0       	ldi	r24, 0x04	; 4
    3258:	c8 0e       	add	r12, r24
    325a:	d1 1c       	adc	r13, r1
            for (Offset = 0; Offset < BYTES_PER_READ; Offset += 4) {
    325c:	ca 14       	cp	r12, r10
    325e:	db 04       	cpc	r13, r11
    3260:	69 f7       	brne	.-38     	; 0x323c <__stack+0x23d>
            ISO14443AAppendCRCA(Buffer, BYTES_PER_READ);
    3262:	60 e1       	ldi	r22, 0x10	; 16
    3264:	70 e0       	ldi	r23, 0x00	; 0
    3266:	c8 01       	movw	r24, r16
    3268:	0e 94 4d 23 	call	0x469a	; 0x469a <ISO14443AAppendCRCA>
            return (BYTES_PER_READ + ISO14443A_CRCA_SIZE) * 8;
    326c:	80 e9       	ldi	r24, 0x90	; 144
    326e:	90 e0       	ldi	r25, 0x00	; 0
    3270:	27 ce       	rjmp	.-946    	; 0x2ec0 <MifareUltralightAppProcess+0x66>
    if (!ActiveConfiguration.ReadOnly) {
    3272:	80 91 61 21 	lds	r24, 0x2161	; 0x802161 <ActiveConfiguration+0x17>
    3276:	81 11       	cpse	r24, r1
    3278:	1b c0       	rjmp	.+54     	; 0x32b0 <__stack+0x2b1>
        MemoryWriteBlock(Buffer, PageAddress * MIFARE_ULTRALIGHT_PAGE_SIZE, MIFARE_ULTRALIGHT_PAGE_SIZE);
    327a:	f4 e0       	ldi	r31, 0x04	; 4
    327c:	ff 9e       	mul	r15, r31
    327e:	b0 01       	movw	r22, r0
    3280:	11 24       	eor	r1, r1
    3282:	44 e0       	ldi	r20, 0x04	; 4
    3284:	50 e0       	ldi	r21, 0x00	; 0
    3286:	c8 01       	movw	r24, r16
    3288:	02 96       	adiw	r24, 0x02	; 2
    328a:	4c cf       	rjmp	.-360    	; 0x3124 <__stack+0x125>
            uint8_t PageAddress = Buffer[1];
    328c:	f1 80       	ldd	r15, Z+1	; 0x01
            if ((PageAddress < PAGE_WRITE_MIN) || (PageAddress >= PageCount)) {
    328e:	f1 e0       	ldi	r31, 0x01	; 1
    3290:	ff 15       	cp	r31, r15
    3292:	50 f6       	brcc	.-108    	; 0x3228 <__stack+0x229>
    3294:	80 91 10 21 	lds	r24, 0x2110	; 0x802110 <PageCount>
    3298:	f8 16       	cp	r15, r24
    329a:	30 f6       	brcc	.-116    	; 0x3228 <__stack+0x229>
            if (!VerifyAuthentication(PageAddress)) {
    329c:	8f 2d       	mov	r24, r15
    329e:	71 dd       	rcall	.-1310   	; 0x2d82 <VerifyAuthentication>
    32a0:	88 23       	and	r24, r24
    32a2:	09 f4       	brne	.+2      	; 0x32a6 <__stack+0x2a7>
    32a4:	ad cf       	rjmp	.-166    	; 0x3200 <__stack+0x201>
            CompatWritePageAddress = PageAddress;
    32a6:	f0 92 0e 21 	sts	0x210E, r15	; 0x80210e <CompatWritePageAddress>
            ArmedForCompatWrite = true;
    32aa:	81 e0       	ldi	r24, 0x01	; 1
    32ac:	80 93 0f 21 	sts	0x210F, r24	; 0x80210f <ArmedForCompatWrite>
                Buffer[0] = ACK_VALUE;
    32b0:	8a e0       	ldi	r24, 0x0A	; 10
    32b2:	19 cf       	rjmp	.-462    	; 0x30e6 <__stack+0xe7>
            if (Buffer[1] == 0) {
    32b4:	81 81       	ldd	r24, Z+1	; 0x01
    32b6:	81 11       	cpse	r24, r1
    32b8:	b7 cf       	rjmp	.-146    	; 0x3228 <__stack+0x229>
                State = STATE_HALT;
    32ba:	10 92 12 21 	sts	0x2112, r1	; 0x802112 <State>
    32be:	e9 cd       	rjmp	.-1070   	; 0x2e92 <MifareUltralightAppProcess+0x38>
        switch (Cmd) {
    32c0:	8b 34       	cpi	r24, 0x4B	; 75
    32c2:	09 f4       	brne	.+2      	; 0x32c6 <__stack+0x2c7>
    32c4:	d6 c0       	rjmp	.+428    	; 0x3472 <__stack+0x473>
    32c6:	38 f4       	brcc	.+14     	; 0x32d6 <__stack+0x2d7>
    32c8:	8e 33       	cpi	r24, 0x3E	; 62
    32ca:	09 f4       	brne	.+2      	; 0x32ce <__stack+0x2cf>
    32cc:	c9 c0       	rjmp	.+402    	; 0x3460 <__stack+0x461>
    State = STATE_IDLE;
    32ce:	81 e0       	ldi	r24, 0x01	; 1
    32d0:	80 93 12 21 	sts	0x2112, r24	; 0x802112 <State>
    32d4:	de cd       	rjmp	.-1092   	; 0x2e92 <MifareUltralightAppProcess+0x38>
        switch (Cmd) {
    32d6:	80 36       	cpi	r24, 0x60	; 96
    32d8:	a1 f1       	breq	.+104    	; 0x3342 <__stack+0x343>
    32da:	85 3a       	cpi	r24, 0xA5	; 165
    32dc:	c1 f7       	brne	.-16     	; 0x32ce <__stack+0x2cf>
                uint8_t CounterId = Buffer[1];
    32de:	f8 01       	movw	r30, r16
    32e0:	61 81       	ldd	r22, Z+1	; 0x01
                if (CounterId > CNT_MAX) {
    32e2:	63 30       	cpi	r22, 0x03	; 3
    32e4:	08 f0       	brcs	.+2      	; 0x32e8 <__stack+0x2e9>
    32e6:	a1 cf       	rjmp	.-190    	; 0x322a <__stack+0x22b>
                uint32_t Addend = (Buffer[0]) | (Buffer[1] << 8) | ((uint32_t)Buffer[2] << 16);
    32e8:	e6 2e       	mov	r14, r22
    32ea:	f1 2c       	mov	r15, r1
    32ec:	d2 80       	ldd	r13, Z+2	; 0x02
                MemoryReadBlock(&Counter, (PageCount + CounterId) * MIFARE_ULTRALIGHT_PAGE_SIZE, MIFARE_ULTRALIGHT_PAGE_SIZE);
    32ee:	60 91 10 21 	lds	r22, 0x2110	; 0x802110 <PageCount>
    32f2:	6e 0d       	add	r22, r14
    32f4:	7f 2d       	mov	r23, r15
    32f6:	71 1d       	adc	r23, r1
    32f8:	66 0f       	add	r22, r22
    32fa:	77 1f       	adc	r23, r23
    32fc:	66 0f       	add	r22, r22
    32fe:	77 1f       	adc	r23, r23
    3300:	44 e0       	ldi	r20, 0x04	; 4
    3302:	50 e0       	ldi	r21, 0x00	; 0
    3304:	ce 01       	movw	r24, r28
    3306:	01 96       	adiw	r24, 0x01	; 1
    3308:	0e 94 3f 09 	call	0x127e	; 0x127e <MemoryReadBlock>
                uint32_t Addend = (Buffer[0]) | (Buffer[1] << 8) | ((uint32_t)Buffer[2] << 16);
    330c:	9e 2d       	mov	r25, r14
    330e:	88 27       	eor	r24, r24
    3310:	85 6a       	ori	r24, 0xA5	; 165
    3312:	09 2e       	mov	r0, r25
    3314:	00 0c       	add	r0, r0
    3316:	aa 0b       	sbc	r26, r26
    3318:	bb 0b       	sbc	r27, r27
    331a:	ad 29       	or	r26, r13
                Counter += Addend;
    331c:	49 81       	ldd	r20, Y+1	; 0x01
    331e:	5a 81       	ldd	r21, Y+2	; 0x02
    3320:	6b 81       	ldd	r22, Y+3	; 0x03
    3322:	7c 81       	ldd	r23, Y+4	; 0x04
    3324:	84 0f       	add	r24, r20
    3326:	95 1f       	adc	r25, r21
    3328:	a6 1f       	adc	r26, r22
    332a:	b7 1f       	adc	r27, r23
    332c:	89 83       	std	Y+1, r24	; 0x01
    332e:	9a 83       	std	Y+2, r25	; 0x02
    3330:	ab 83       	std	Y+3, r26	; 0x03
    3332:	bc 83       	std	Y+4, r27	; 0x04
                if (Counter > CNT_MAX_VALUE) {
    3334:	00 97       	sbiw	r24, 0x00	; 0
    3336:	a1 05       	cpc	r26, r1
    3338:	b1 40       	sbci	r27, 0x01	; 1
    333a:	08 f4       	brcc	.+2      	; 0x333e <__stack+0x33f>
    333c:	74 c0       	rjmp	.+232    	; 0x3426 <__stack+0x427>
                    Buffer[0] = NAK_CTR_ERROR;
    333e:	84 e0       	ldi	r24, 0x04	; 4
    3340:	d2 ce       	rjmp	.-604    	; 0x30e6 <__stack+0xe7>
                Buffer[0] = 0x00;
    3342:	f8 01       	movw	r30, r16
    3344:	10 82       	st	Z, r1
                Buffer[1] = 0x04;
    3346:	84 e0       	ldi	r24, 0x04	; 4
    3348:	81 83       	std	Z+1, r24	; 0x01
                Buffer[2] = 0x03;
    334a:	83 e0       	ldi	r24, 0x03	; 3
    334c:	82 83       	std	Z+2, r24	; 0x02
                Buffer[3] = 0x01; /**/
    334e:	81 e0       	ldi	r24, 0x01	; 1
    3350:	83 83       	std	Z+3, r24	; 0x03
                Buffer[4] = 0x01;
    3352:	84 83       	std	Z+4, r24	; 0x04
                Buffer[5] = 0x00;
    3354:	15 82       	std	Z+5, r1	; 0x05
                Buffer[6] = PageCount == MIFARE_ULTRALIGHT_EV11_PAGES ? 0x0B : 0x0E;
    3356:	80 91 10 21 	lds	r24, 0x2110	; 0x802110 <PageCount>
    335a:	84 31       	cpi	r24, 0x14	; 20
    335c:	69 f0       	breq	.+26     	; 0x3378 <__stack+0x379>
    335e:	8e e0       	ldi	r24, 0x0E	; 14
    3360:	f8 01       	movw	r30, r16
    3362:	86 83       	std	Z+6, r24	; 0x06
                Buffer[7] = 0x03;
    3364:	83 e0       	ldi	r24, 0x03	; 3
    3366:	87 83       	std	Z+7, r24	; 0x07
                ISO14443AAppendCRCA(Buffer, VERSION_INFO_LENGTH);
    3368:	68 e0       	ldi	r22, 0x08	; 8
    336a:	70 e0       	ldi	r23, 0x00	; 0
    336c:	c8 01       	movw	r24, r16
    336e:	0e 94 4d 23 	call	0x469a	; 0x469a <ISO14443AAppendCRCA>
                return (VERSION_INFO_LENGTH + ISO14443A_CRCA_SIZE) * 8;
    3372:	80 e5       	ldi	r24, 0x50	; 80
    3374:	90 e0       	ldi	r25, 0x00	; 0
    3376:	a4 cd       	rjmp	.-1208   	; 0x2ec0 <MifareUltralightAppProcess+0x66>
                Buffer[6] = PageCount == MIFARE_ULTRALIGHT_EV11_PAGES ? 0x0B : 0x0E;
    3378:	8b e0       	ldi	r24, 0x0B	; 11
    337a:	f2 cf       	rjmp	.-28     	; 0x3360 <__stack+0x361>
                uint8_t StartPageAddress = Buffer[1];
    337c:	f8 01       	movw	r30, r16
    337e:	d1 80       	ldd	r13, Z+1	; 0x01
                uint8_t EndPageAddress = Buffer[2];
    3380:	e2 80       	ldd	r14, Z+2	; 0x02
                if ((StartPageAddress > EndPageAddress) || (StartPageAddress >= PageCount) || (EndPageAddress >= PageCount)) {
    3382:	ed 14       	cp	r14, r13
    3384:	08 f4       	brcc	.+2      	; 0x3388 <__stack+0x389>
    3386:	50 cf       	rjmp	.-352    	; 0x3228 <__stack+0x229>
    3388:	80 91 10 21 	lds	r24, 0x2110	; 0x802110 <PageCount>
    338c:	d8 16       	cp	r13, r24
    338e:	08 f0       	brcs	.+2      	; 0x3392 <__stack+0x393>
    3390:	4b cf       	rjmp	.-362    	; 0x3228 <__stack+0x229>
    3392:	e8 16       	cp	r14, r24
    3394:	08 f0       	brcs	.+2      	; 0x3398 <__stack+0x399>
    3396:	48 cf       	rjmp	.-368    	; 0x3228 <__stack+0x229>
                if (ReadAccessProtected) {
    3398:	80 91 0b 21 	lds	r24, 0x210B	; 0x80210b <ReadAccessProtected>
    339c:	88 23       	and	r24, r24
                    if (!VerifyAuthentication(StartPageAddress) || !VerifyAuthentication(EndPageAddress)) {
    339e:	51 f0       	breq	.+20     	; 0x33b4 <__stack+0x3b5>
    33a0:	8d 2d       	mov	r24, r13
    33a2:	ef dc       	rcall	.-1570   	; 0x2d82 <VerifyAuthentication>
    33a4:	88 23       	and	r24, r24
    33a6:	09 f4       	brne	.+2      	; 0x33aa <__stack+0x3ab>
    33a8:	2b cf       	rjmp	.-426    	; 0x3200 <__stack+0x201>
    33aa:	8e 2d       	mov	r24, r14
    33ac:	ea dc       	rcall	.-1580   	; 0x2d82 <VerifyAuthentication>
    33ae:	88 23       	and	r24, r24
    33b0:	09 f4       	brne	.+2      	; 0x33b4 <__stack+0x3b5>
    33b2:	26 cf       	rjmp	.-436    	; 0x3200 <__stack+0x201>
                ByteCount = (EndPageAddress - StartPageAddress + 1) * MIFARE_ULTRALIGHT_PAGE_SIZE;
    33b4:	f1 2c       	mov	r15, r1
    33b6:	6d 2d       	mov	r22, r13
    33b8:	70 e0       	ldi	r23, 0x00	; 0
    33ba:	e6 1a       	sub	r14, r22
    33bc:	f7 0a       	sbc	r15, r23
    33be:	ff ef       	ldi	r31, 0xFF	; 255
    33c0:	ef 1a       	sub	r14, r31
    33c2:	ff 0a       	sbc	r15, r31
    33c4:	ee 0c       	add	r14, r14
    33c6:	ff 1c       	adc	r15, r15
    33c8:	ee 0c       	add	r14, r14
    33ca:	ff 1c       	adc	r15, r15
                MemoryReadBlock(Buffer, StartPageAddress * MIFARE_ULTRALIGHT_PAGE_SIZE, ByteCount);
    33cc:	66 0f       	add	r22, r22
    33ce:	77 1f       	adc	r23, r23
    33d0:	66 0f       	add	r22, r22
    33d2:	77 1f       	adc	r23, r23
    33d4:	a7 01       	movw	r20, r14
    33d6:	c8 01       	movw	r24, r16
    33d8:	0e 94 3f 09 	call	0x127e	; 0x127e <MemoryReadBlock>
                ISO14443AAppendCRCA(Buffer, ByteCount);
    33dc:	b7 01       	movw	r22, r14
    33de:	c8 01       	movw	r24, r16
    33e0:	0e 94 4d 23 	call	0x469a	; 0x469a <ISO14443AAppendCRCA>
                return (ByteCount + ISO14443A_CRCA_SIZE) * 8;
    33e4:	c7 01       	movw	r24, r14
    33e6:	02 96       	adiw	r24, 0x02	; 2
    33e8:	63 e0       	ldi	r22, 0x03	; 3
    33ea:	88 0f       	add	r24, r24
    33ec:	99 1f       	adc	r25, r25
    33ee:	6a 95       	dec	r22
    33f0:	e1 f7       	brne	.-8      	; 0x33ea <__stack+0x3eb>
    33f2:	66 cd       	rjmp	.-1332   	; 0x2ec0 <MifareUltralightAppProcess+0x66>
                uint8_t CounterId = Buffer[1];
    33f4:	f8 01       	movw	r30, r16
    33f6:	81 81       	ldd	r24, Z+1	; 0x01
                if (CounterId > CNT_MAX) {
    33f8:	83 30       	cpi	r24, 0x03	; 3
    33fa:	08 f0       	brcs	.+2      	; 0x33fe <__stack+0x3ff>
    33fc:	15 cf       	rjmp	.-470    	; 0x3228 <__stack+0x229>
                MemoryReadBlock(Buffer, (PageCount + CounterId) * MIFARE_ULTRALIGHT_PAGE_SIZE, 3);
    33fe:	60 91 10 21 	lds	r22, 0x2110	; 0x802110 <PageCount>
    3402:	68 0f       	add	r22, r24
    3404:	77 27       	eor	r23, r23
    3406:	77 1f       	adc	r23, r23
    3408:	66 0f       	add	r22, r22
    340a:	77 1f       	adc	r23, r23
    340c:	66 0f       	add	r22, r22
    340e:	77 1f       	adc	r23, r23
    3410:	43 e0       	ldi	r20, 0x03	; 3
    3412:	50 e0       	ldi	r21, 0x00	; 0
    3414:	c8 01       	movw	r24, r16
    3416:	0e 94 3f 09 	call	0x127e	; 0x127e <MemoryReadBlock>
                ISO14443AAppendCRCA(Buffer, 3);
    341a:	63 e0       	ldi	r22, 0x03	; 3
    341c:	70 e0       	ldi	r23, 0x00	; 0
    341e:	c8 01       	movw	r24, r16
    3420:	0e 94 4d 23 	call	0x469a	; 0x469a <ISO14443AAppendCRCA>
    3424:	cf cd       	rjmp	.-1122   	; 0x2fc4 <MifareUltralightAppProcess+0x16a>
                MemoryWriteBlock(&Counter, (PageCount + CounterId) * MIFARE_ULTRALIGHT_PAGE_SIZE, MIFARE_ULTRALIGHT_PAGE_SIZE);
    3426:	60 91 10 21 	lds	r22, 0x2110	; 0x802110 <PageCount>
    342a:	6e 0d       	add	r22, r14
    342c:	7f 2d       	mov	r23, r15
    342e:	71 1d       	adc	r23, r1
    3430:	66 0f       	add	r22, r22
    3432:	77 1f       	adc	r23, r23
    3434:	66 0f       	add	r22, r22
    3436:	77 1f       	adc	r23, r23
    3438:	44 e0       	ldi	r20, 0x04	; 4
    343a:	50 e0       	ldi	r21, 0x00	; 0
    343c:	ce 01       	movw	r24, r28
    343e:	01 96       	adiw	r24, 0x01	; 1
    3440:	71 ce       	rjmp	.-798    	; 0x3124 <__stack+0x125>
                memset(Buffer, 0xCA, SIGNATURE_LENGTH);
    3442:	40 e2       	ldi	r20, 0x20	; 32
    3444:	50 e0       	ldi	r21, 0x00	; 0
    3446:	6a ec       	ldi	r22, 0xCA	; 202
    3448:	70 e0       	ldi	r23, 0x00	; 0
    344a:	c8 01       	movw	r24, r16
    344c:	0e 94 4e 2e 	call	0x5c9c	; 0x5c9c <memset>
                ISO14443AAppendCRCA(Buffer, SIGNATURE_LENGTH);
    3450:	60 e2       	ldi	r22, 0x20	; 32
    3452:	70 e0       	ldi	r23, 0x00	; 0
    3454:	c8 01       	movw	r24, r16
    3456:	0e 94 4d 23 	call	0x469a	; 0x469a <ISO14443AAppendCRCA>
                return (SIGNATURE_LENGTH + ISO14443A_CRCA_SIZE) * 8;
    345a:	80 e1       	ldi	r24, 0x10	; 16
    345c:	91 e0       	ldi	r25, 0x01	; 1
    345e:	30 cd       	rjmp	.-1440   	; 0x2ec0 <MifareUltralightAppProcess+0x66>
                Buffer[0] = 0xBD;
    3460:	8d eb       	ldi	r24, 0xBD	; 189
    3462:	f8 01       	movw	r30, r16
    3464:	80 83       	st	Z, r24
                ISO14443AAppendCRCA(Buffer, 1);
    3466:	61 e0       	ldi	r22, 0x01	; 1
    3468:	70 e0       	ldi	r23, 0x00	; 0
    346a:	c8 01       	movw	r24, r16
    346c:	0e 94 4d 23 	call	0x469a	; 0x469a <ISO14443AAppendCRCA>
    3470:	c6 cd       	rjmp	.-1140   	; 0x2ffe <MifareUltralightAppProcess+0x1a4>
                uint8_t ConfigAreaAddress = PageCount * MIFARE_ULTRALIGHT_PAGE_SIZE - CONFIG_AREA_SIZE;
    3472:	60 91 10 21 	lds	r22, 0x2110	; 0x802110 <PageCount>
    3476:	64 5c       	subi	r22, 0xC4	; 196
    3478:	66 0f       	add	r22, r22
    347a:	66 0f       	add	r22, r22
                MemoryReadBlock(Buffer, ConfigAreaAddress + CONF_VCTID_OFFSET, 1);
    347c:	70 e0       	ldi	r23, 0x00	; 0
    347e:	6b 5f       	subi	r22, 0xFB	; 251
    3480:	7f 4f       	sbci	r23, 0xFF	; 255
    3482:	41 e0       	ldi	r20, 0x01	; 1
    3484:	50 e0       	ldi	r21, 0x00	; 0
    3486:	c8 01       	movw	r24, r16
    3488:	0e 94 3f 09 	call	0x127e	; 0x127e <MemoryReadBlock>
    348c:	ec cf       	rjmp	.-40     	; 0x3466 <__stack+0x467>

0000348e <MifareUltralightGetUid>:

void MifareUltralightGetUid(ConfigurationUidType Uid)
{
    348e:	cf 93       	push	r28
    3490:	df 93       	push	r29
    3492:	ec 01       	movw	r28, r24
    /* Read UID from memory */
    MemoryReadBlock(&Uid[0], UID_CL1_ADDRESS, UID_CL1_SIZE);
    3494:	43 e0       	ldi	r20, 0x03	; 3
    3496:	50 e0       	ldi	r21, 0x00	; 0
    3498:	70 e0       	ldi	r23, 0x00	; 0
    349a:	60 e0       	ldi	r22, 0x00	; 0
    349c:	0e 94 3f 09 	call	0x127e	; 0x127e <MemoryReadBlock>
    MemoryReadBlock(&Uid[UID_CL1_SIZE], UID_CL2_ADDRESS, UID_CL2_SIZE);
    34a0:	44 e0       	ldi	r20, 0x04	; 4
    34a2:	50 e0       	ldi	r21, 0x00	; 0
    34a4:	64 e0       	ldi	r22, 0x04	; 4
    34a6:	70 e0       	ldi	r23, 0x00	; 0
    34a8:	ce 01       	movw	r24, r28
    34aa:	03 96       	adiw	r24, 0x03	; 3
}
    34ac:	df 91       	pop	r29
    34ae:	cf 91       	pop	r28
    MemoryReadBlock(&Uid[UID_CL1_SIZE], UID_CL2_ADDRESS, UID_CL2_SIZE);
    34b0:	0c 94 3f 09 	jmp	0x127e	; 0x127e <MemoryReadBlock>

000034b4 <MifareUltralightSetUid>:

void MifareUltralightSetUid(ConfigurationUidType Uid)
{
    34b4:	0f 93       	push	r16
    34b6:	1f 93       	push	r17
    34b8:	cf 93       	push	r28
    34ba:	df 93       	push	r29
    34bc:	00 d0       	rcall	.+0      	; 0x34be <MifareUltralightSetUid+0xa>
    34be:	cd b7       	in	r28, 0x3d	; 61
    34c0:	de b7       	in	r29, 0x3e	; 62
    34c2:	8c 01       	movw	r16, r24
    /* Calculate check bytes and write everything into memory */
    uint8_t BCC1 = ISO14443A_UID0_CT ^ Uid[0] ^ Uid[1] ^ Uid[2];
    34c4:	fc 01       	movw	r30, r24
    34c6:	80 81       	ld	r24, Z
    34c8:	91 81       	ldd	r25, Z+1	; 0x01
    34ca:	89 27       	eor	r24, r25
    34cc:	98 e8       	ldi	r25, 0x88	; 136
    34ce:	89 27       	eor	r24, r25
    34d0:	92 81       	ldd	r25, Z+2	; 0x02
    34d2:	89 27       	eor	r24, r25
    34d4:	8a 83       	std	Y+2, r24	; 0x02
    uint8_t BCC2 = Uid[3] ^ Uid[4] ^ Uid[5] ^ Uid[6];
    34d6:	83 81       	ldd	r24, Z+3	; 0x03
    34d8:	94 81       	ldd	r25, Z+4	; 0x04
    34da:	89 27       	eor	r24, r25
    34dc:	95 81       	ldd	r25, Z+5	; 0x05
    34de:	89 27       	eor	r24, r25
    34e0:	96 81       	ldd	r25, Z+6	; 0x06
    34e2:	89 27       	eor	r24, r25
    34e4:	89 83       	std	Y+1, r24	; 0x01

    MemoryWriteBlock(&Uid[0], UID_CL1_ADDRESS, UID_CL1_SIZE);
    34e6:	43 e0       	ldi	r20, 0x03	; 3
    34e8:	50 e0       	ldi	r21, 0x00	; 0
    34ea:	70 e0       	ldi	r23, 0x00	; 0
    34ec:	60 e0       	ldi	r22, 0x00	; 0
    34ee:	c8 01       	movw	r24, r16
    34f0:	0e 94 c8 09 	call	0x1390	; 0x1390 <MemoryWriteBlock>
    MemoryWriteBlock(&BCC1, UID_BCC1_ADDRESS, ISO14443A_CL_BCC_SIZE);
    34f4:	41 e0       	ldi	r20, 0x01	; 1
    34f6:	50 e0       	ldi	r21, 0x00	; 0
    34f8:	63 e0       	ldi	r22, 0x03	; 3
    34fa:	70 e0       	ldi	r23, 0x00	; 0
    34fc:	ce 01       	movw	r24, r28
    34fe:	02 96       	adiw	r24, 0x02	; 2
    3500:	0e 94 c8 09 	call	0x1390	; 0x1390 <MemoryWriteBlock>
    MemoryWriteBlock(&Uid[UID_CL1_SIZE], UID_CL2_ADDRESS, UID_CL2_SIZE);
    3504:	44 e0       	ldi	r20, 0x04	; 4
    3506:	50 e0       	ldi	r21, 0x00	; 0
    3508:	64 e0       	ldi	r22, 0x04	; 4
    350a:	70 e0       	ldi	r23, 0x00	; 0
    350c:	c8 01       	movw	r24, r16
    350e:	03 96       	adiw	r24, 0x03	; 3
    3510:	0e 94 c8 09 	call	0x1390	; 0x1390 <MemoryWriteBlock>
    MemoryWriteBlock(&BCC2, UID_BCC2_ADDRESS, ISO14443A_CL_BCC_SIZE);
    3514:	41 e0       	ldi	r20, 0x01	; 1
    3516:	50 e0       	ldi	r21, 0x00	; 0
    3518:	68 e0       	ldi	r22, 0x08	; 8
    351a:	70 e0       	ldi	r23, 0x00	; 0
    351c:	ce 01       	movw	r24, r28
    351e:	01 96       	adiw	r24, 0x01	; 1
    3520:	0e 94 c8 09 	call	0x1390	; 0x1390 <MemoryWriteBlock>
}
    3524:	0f 90       	pop	r0
    3526:	0f 90       	pop	r0
    3528:	df 91       	pop	r29
    352a:	cf 91       	pop	r28
    352c:	1f 91       	pop	r17
    352e:	0f 91       	pop	r16
    3530:	08 95       	ret

00003532 <FM11RF005SHAppInit>:
    Block[10] = Block[2];
    Block[11] = Block[3];
}
void FM11RF005SHAppInit(void)
{
    State = STATE_IDLE;
    3532:	81 e0       	ldi	r24, 0x01	; 1
    3534:	80 93 32 21 	sts	0x2132, r24	; 0x802132 <State>
    CardATQAValue = 0x0003;//rf005sh
    3538:	83 e0       	ldi	r24, 0x03	; 3
    353a:	90 e0       	ldi	r25, 0x00	; 0
    353c:	80 93 17 21 	sts	0x2117, r24	; 0x802117 <CardATQAValue>
    3540:	90 93 18 21 	sts	0x2118, r25	; 0x802118 <CardATQAValue+0x1>
    CardSAKValue = 0x0a;//rf005sh
    3544:	8a e0       	ldi	r24, 0x0A	; 10
    3546:	80 93 16 21 	sts	0x2116, r24	; 0x802116 <CardSAKValue>
    FromHalt = false;
    354a:	10 92 14 21 	sts	0x2114, r1	; 0x802114 <FromHalt>
}
    354e:	08 95       	ret

00003550 <JCOPAppInit>:

void JCOPAppInit(void)
{
    State = STATE_IDLE;
    3550:	81 e0       	ldi	r24, 0x01	; 1
    3552:	80 93 32 21 	sts	0x2132, r24	; 0x802132 <State>
    CardATQAValue = 0x0004;//JCOP
    3556:	84 e0       	ldi	r24, 0x04	; 4
    3558:	90 e0       	ldi	r25, 0x00	; 0
    355a:	80 93 17 21 	sts	0x2117, r24	; 0x802117 <CardATQAValue>
    355e:	90 93 18 21 	sts	0x2118, r25	; 0x802118 <CardATQAValue+0x1>
    CardSAKValue = 0x28;//JCOP
    3562:	88 e2       	ldi	r24, 0x28	; 40
    3564:	80 93 16 21 	sts	0x2116, r24	; 0x802116 <CardSAKValue>
    FromHalt = false;
    3568:	10 92 14 21 	sts	0x2114, r1	; 0x802114 <FromHalt>
}
    356c:	08 95       	ret

0000356e <MifareClassicAppInit1K>:

void MifareClassicAppInit1K(void)
{
    State = STATE_IDLE;
    356e:	81 e0       	ldi	r24, 0x01	; 1
    3570:	80 93 32 21 	sts	0x2132, r24	; 0x802132 <State>
    CardATQAValue = MFCLASSIC_1K_ATQA_VALUE;
    3574:	84 e0       	ldi	r24, 0x04	; 4
    3576:	90 e0       	ldi	r25, 0x00	; 0
    3578:	80 93 17 21 	sts	0x2117, r24	; 0x802117 <CardATQAValue>
    357c:	90 93 18 21 	sts	0x2118, r25	; 0x802118 <CardATQAValue+0x1>
    CardSAKValue = MFCLASSIC_1K_SAK_CL1_VALUE;
    3580:	88 e0       	ldi	r24, 0x08	; 8
    3582:	80 93 16 21 	sts	0x2116, r24	; 0x802116 <CardSAKValue>
	_7BUID = 0x00;
    3586:	10 92 15 21 	sts	0x2115, r1	; 0x802115 <_7BUID>
}
    358a:	08 95       	ret

0000358c <MifareClassicAppInit4K>:
	_7BUID = (UidSize == 7);
}

void MifareClassicAppInit4K(void)
{
    State = STATE_IDLE;
    358c:	81 e0       	ldi	r24, 0x01	; 1
    358e:	80 93 32 21 	sts	0x2132, r24	; 0x802132 <State>
    CardATQAValue = MFCLASSIC_4K_ATQA_VALUE;
    3592:	82 e0       	ldi	r24, 0x02	; 2
    3594:	90 e0       	ldi	r25, 0x00	; 0
    3596:	80 93 17 21 	sts	0x2117, r24	; 0x802117 <CardATQAValue>
    359a:	90 93 18 21 	sts	0x2118, r25	; 0x802118 <CardATQAValue+0x1>
    CardSAKValue = MFCLASSIC_4K_SAK_CL1_VALUE;
    359e:	88 e1       	ldi	r24, 0x18	; 24
    35a0:	80 93 16 21 	sts	0x2116, r24	; 0x802116 <CardSAKValue>
	_7BUID = 0x00;
    35a4:	10 92 15 21 	sts	0x2115, r1	; 0x802115 <_7BUID>
}
    35a8:	08 95       	ret

000035aa <MifareClassicAppReset>:

void MifareClassicAppReset(void)
{
    State = STATE_IDLE;
    35aa:	81 e0       	ldi	r24, 0x01	; 1
    35ac:	80 93 32 21 	sts	0x2132, r24	; 0x802132 <State>
}
    35b0:	08 95       	ret

000035b2 <MifareClassicAppTask>:

void MifareClassicAppTask(void)
{

}
    35b2:	08 95       	ret

000035b4 <MifareClassicAppProcess>:


uint16_t MifareClassicAppProcess(uint8_t* Buffer, uint16_t BitCount)
{
    35b4:	4f 92       	push	r4
    35b6:	5f 92       	push	r5
    35b8:	6f 92       	push	r6
    35ba:	7f 92       	push	r7
    35bc:	8f 92       	push	r8
    35be:	9f 92       	push	r9
    35c0:	af 92       	push	r10
    35c2:	bf 92       	push	r11
    35c4:	cf 92       	push	r12
    35c6:	df 92       	push	r13
    35c8:	ef 92       	push	r14
    35ca:	ff 92       	push	r15
    35cc:	0f 93       	push	r16
    35ce:	1f 93       	push	r17
    35d0:	cf 93       	push	r28
    35d2:	df 93       	push	r29
    35d4:	cd b7       	in	r28, 0x3d	; 61
    35d6:	de b7       	in	r29, 0x3e	; 62
    35d8:	2e 97       	sbiw	r28, 0x0e	; 14
    35da:	cd bf       	out	0x3d, r28	; 61
    35dc:	de bf       	out	0x3e, r29	; 62
    35de:	8c 01       	movw	r16, r24
    35e0:	80 91 32 21 	lds	r24, 0x2132	; 0x802132 <State>
    /* Wakeup and Request may occure in all states */
    if ( (BitCount == 7) &&
    35e4:	67 30       	cpi	r22, 0x07	; 7
    35e6:	71 05       	cpc	r23, r1
    35e8:	91 f5       	brne	.+100    	; 0x364e <MifareClassicAppProcess+0x9a>
    35ea:	d8 01       	movw	r26, r16
    35ec:	9c 91       	ld	r25, X
    35ee:	88 23       	and	r24, r24
    35f0:	11 f0       	breq	.+4      	; 0x35f6 <MifareClassicAppProcess+0x42>
         /* precheck of WUP/REQ because ISO14443AWakeUp destroys BitCount */
         (((State != STATE_HALT) && (Buffer[0] == ISO14443A_CMD_REQA)) ||
    35f2:	96 32       	cpi	r25, 0x26	; 38
    35f4:	19 f0       	breq	.+6      	; 0x35fc <MifareClassicAppProcess+0x48>
    35f6:	92 35       	cpi	r25, 0x52	; 82
    35f8:	09 f0       	breq	.+2      	; 0x35fc <MifareClassicAppProcess+0x48>
    35fa:	d3 c3       	rjmp	.+1958   	; 0x3da2 <MifareClassicAppProcess+0x7ee>
    if ( ((! FromHalt) && (DataPtr[0] == ISO14443A_CMD_REQA)) ||
    35fc:	20 91 14 21 	lds	r18, 0x2114	; 0x802114 <FromHalt>
    3600:	21 11       	cpse	r18, r1
    3602:	02 c0       	rjmp	.+4      	; 0x3608 <MifareClassicAppProcess+0x54>
    3604:	96 32       	cpi	r25, 0x26	; 38
    3606:	19 f0       	breq	.+6      	; 0x360e <MifareClassicAppProcess+0x5a>
    3608:	92 35       	cpi	r25, 0x52	; 82
    360a:	09 f0       	breq	.+2      	; 0x360e <MifareClassicAppProcess+0x5a>
    360c:	ca c3       	rjmp	.+1940   	; 0x3da2 <MifareClassicAppProcess+0x7ee>
         (Buffer[0] == ISO14443A_CMD_WUPA) )){

        if (ISO14443AWakeUp(Buffer, &BitCount, CardATQAValue, FromHalt)) {
    360e:	90 91 17 21 	lds	r25, 0x2117	; 0x802117 <CardATQAValue>
    3612:	80 91 18 21 	lds	r24, 0x2118	; 0x802118 <CardATQAValue+0x1>
        DataPtr[0] = (ATQAValue >> 0) & 0x00FF;
    3616:	f8 01       	movw	r30, r16
    3618:	90 83       	st	Z, r25
        DataPtr[1] = (ATQAValue >> 8) & 0x00FF;
    361a:	81 83       	std	Z+1, r24	; 0x01
    switch(State) {
    case STATE_IDLE:
    case STATE_HALT:

        if (ISO14443AWakeUp(Buffer, &BitCount, CardATQAValue, true)) {
            State = STATE_READY1;
    361c:	84 e0       	ldi	r24, 0x04	; 4
    361e:	80 93 32 21 	sts	0x2132, r24	; 0x802132 <State>
        *BitCount = ISO14443A_ATQA_FRAME_SIZE;
    3622:	80 e1       	ldi	r24, 0x10	; 16
    3624:	90 e0       	ldi	r25, 0x00	; 0
        break;
    }

    /* No response has been sent, when we reach here */
    return ISO14443A_APP_NO_RESPONSE;
}
    3626:	2e 96       	adiw	r28, 0x0e	; 14
    3628:	cd bf       	out	0x3d, r28	; 61
    362a:	de bf       	out	0x3e, r29	; 62
    362c:	df 91       	pop	r29
    362e:	cf 91       	pop	r28
    3630:	1f 91       	pop	r17
    3632:	0f 91       	pop	r16
    3634:	ff 90       	pop	r15
    3636:	ef 90       	pop	r14
    3638:	df 90       	pop	r13
    363a:	cf 90       	pop	r12
    363c:	bf 90       	pop	r11
    363e:	af 90       	pop	r10
    3640:	9f 90       	pop	r9
    3642:	8f 90       	pop	r8
    3644:	7f 90       	pop	r7
    3646:	6f 90       	pop	r6
    3648:	5f 90       	pop	r5
    364a:	4f 90       	pop	r4
    364c:	08 95       	ret
    switch(State) {
    364e:	86 30       	cpi	r24, 0x06	; 6
    3650:	09 f4       	brne	.+2      	; 0x3654 <MifareClassicAppProcess+0xa0>
    3652:	5b c1       	rjmp	.+694    	; 0x390a <MifareClassicAppProcess+0x356>
    3654:	58 f4       	brcc	.+22     	; 0x366c <MifareClassicAppProcess+0xb8>
    3656:	84 30       	cpi	r24, 0x04	; 4
    3658:	09 f4       	brne	.+2      	; 0x365c <MifareClassicAppProcess+0xa8>
    365a:	b0 c3       	rjmp	.+1888   	; 0x3dbc <MifareClassicAppProcess+0x808>
    365c:	08 f0       	brcs	.+2      	; 0x3660 <MifareClassicAppProcess+0xac>
    365e:	0c c1       	rjmp	.+536    	; 0x3878 <MifareClassicAppProcess+0x2c4>
    3660:	82 30       	cpi	r24, 0x02	; 2
    3662:	08 f4       	brcc	.+2      	; 0x3666 <MifareClassicAppProcess+0xb2>
    3664:	5b c0       	rjmp	.+182    	; 0x371c <MifareClassicAppProcess+0x168>
    return ISO14443A_APP_NO_RESPONSE;
    3666:	90 e0       	ldi	r25, 0x00	; 0
    3668:	80 e0       	ldi	r24, 0x00	; 0
    366a:	dd cf       	rjmp	.-70     	; 0x3626 <MifareClassicAppProcess+0x72>
    switch(State) {
    366c:	89 30       	cpi	r24, 0x09	; 9
    366e:	09 f4       	brne	.+2      	; 0x3672 <MifareClassicAppProcess+0xbe>
    3670:	1b c3       	rjmp	.+1590   	; 0x3ca8 <MifareClassicAppProcess+0x6f4>
    3672:	08 f0       	brcs	.+2      	; 0x3676 <MifareClassicAppProcess+0xc2>
    3674:	26 c4       	rjmp	.+2124   	; 0x3ec2 <MifareClassicAppProcess+0x90e>
    3676:	87 30       	cpi	r24, 0x07	; 7
    3678:	09 f4       	brne	.+2      	; 0x367c <MifareClassicAppProcess+0xc8>
    367a:	ed c1       	rjmp	.+986    	; 0x3a56 <MifareClassicAppProcess+0x4a2>
    367c:	88 30       	cpi	r24, 0x08	; 8
    367e:	99 f7       	brne	.-26     	; 0x3666 <MifareClassicAppProcess+0xb2>
    3680:	78 01       	movw	r14, r16
    3682:	58 01       	movw	r10, r16
    3684:	f4 e0       	ldi	r31, 0x04	; 4
    3686:	af 0e       	add	r10, r31
    3688:	b1 1c       	adc	r11, r1
        Crypto1Auth(&Buffer[0]);
    368a:	68 01       	movw	r12, r16
            Buffer[i] ^= Crypto1Byte();
    368c:	0e 94 71 24 	call	0x48e2	; 0x48e2 <Crypto1Byte>
    3690:	d6 01       	movw	r26, r12
    3692:	9d 91       	ld	r25, X+
    3694:	6d 01       	movw	r12, r26
    3696:	fd 01       	movw	r30, r26
    3698:	31 97       	sbiw	r30, 0x01	; 1
    369a:	89 27       	eor	r24, r25
    369c:	80 83       	st	Z, r24
        for (uint8_t i=0; i<4; i++)
    369e:	aa 15       	cp	r26, r10
    36a0:	bb 05       	cpc	r27, r11
    36a2:	a1 f7       	brne	.-24     	; 0x368c <MifareClassicAppProcess+0xd8>
        if (Buffer[0] == CMD_READ) {
    36a4:	f8 01       	movw	r30, r16
    36a6:	80 81       	ld	r24, Z
    36a8:	80 33       	cpi	r24, 0x30	; 48
    36aa:	09 f0       	breq	.+2      	; 0x36ae <MifareClassicAppProcess+0xfa>
    36ac:	20 c2       	rjmp	.+1088   	; 0x3aee <MifareClassicAppProcess+0x53a>
            if (ISO14443ACheckCRCA(Buffer, CMD_READ_FRAME_SIZE)) {
    36ae:	62 e0       	ldi	r22, 0x02	; 2
    36b0:	70 e0       	ldi	r23, 0x00	; 0
    36b2:	c8 01       	movw	r24, r16
    36b4:	0e 94 78 23 	call	0x46f0	; 0x46f0 <ISO14443ACheckCRCA>
    36b8:	88 23       	and	r24, r24
    36ba:	09 f4       	brne	.+2      	; 0x36be <MifareClassicAppProcess+0x10a>
    36bc:	f2 c2       	rjmp	.+1508   	; 0x3ca2 <MifareClassicAppProcess+0x6ee>
                MemoryReadBlock(Buffer, (uint16_t) Buffer[1] * MEM_BYTES_PER_BLOCK, MEM_BYTES_PER_BLOCK);
    36be:	d8 01       	movw	r26, r16
    36c0:	11 96       	adiw	r26, 0x01	; 1
    36c2:	6c 91       	ld	r22, X
    36c4:	b0 e1       	ldi	r27, 0x10	; 16
    36c6:	6b 9f       	mul	r22, r27
    36c8:	b0 01       	movw	r22, r0
    36ca:	11 24       	eor	r1, r1
    36cc:	40 e1       	ldi	r20, 0x10	; 16
    36ce:	50 e0       	ldi	r21, 0x00	; 0
    36d0:	c8 01       	movw	r24, r16
    36d2:	0e 94 3f 09 	call	0x127e	; 0x127e <MemoryReadBlock>
                ISO14443AAppendCRCA(Buffer, MEM_BYTES_PER_BLOCK);
    36d6:	60 e1       	ldi	r22, 0x10	; 16
    36d8:	70 e0       	ldi	r23, 0x00	; 0
    36da:	c8 01       	movw	r24, r16
    36dc:	de d7       	rcall	.+4028   	; 0x469a <ISO14443AAppendCRCA>
    36de:	68 01       	movw	r12, r16
    36e0:	e2 e1       	ldi	r30, 0x12	; 18
    36e2:	ce 0e       	add	r12, r30
    36e4:	d1 1c       	adc	r13, r1
                    uint8_t Plain = Buffer[i];
    36e6:	d7 01       	movw	r26, r14
    36e8:	1d 91       	ld	r17, X+
    36ea:	7d 01       	movw	r14, r26
                    Buffer[i] = Plain ^ Crypto1Byte();
    36ec:	0e 94 71 24 	call	0x48e2	; 0x48e2 <Crypto1Byte>
    36f0:	f7 01       	movw	r30, r14
    36f2:	31 97       	sbiw	r30, 0x01	; 1
    36f4:	81 27       	eor	r24, r17
    36f6:	80 83       	st	Z, r24

INLINE uint8_t OddParityBit(uint8_t Byte)
{
    extern const uint8_t PROGMEM OddParityByteTable[];

    return pgm_read_byte(&OddParityByteTable[Byte]);
    36f8:	e1 2f       	mov	r30, r17
    36fa:	f0 e0       	ldi	r31, 0x00	; 0
    36fc:	ef 56       	subi	r30, 0x6F	; 111
    36fe:	fb 4f       	sbci	r31, 0xFB	; 251
    3700:	14 91       	lpm	r17, Z
                    Buffer[ISO14443A_BUFFER_PARITY_OFFSET + i] = ODD_PARITY(Plain) ^ Crypto1FilterOutput();
    3702:	0e 94 b9 05 	call	0xb72	; 0xb72 <Crypto1FilterOutput>
    3706:	d7 01       	movw	r26, r14
    3708:	a1 58       	subi	r26, 0x81	; 129
    370a:	bf 4f       	sbci	r27, 0xFF	; 255
    370c:	81 27       	eor	r24, r17
    370e:	8c 93       	st	X, r24
                for (uint8_t i=0; i<(ISO14443A_CRCA_SIZE + MEM_BYTES_PER_BLOCK); i++) {
    3710:	ce 14       	cp	r12, r14
    3712:	df 04       	cpc	r13, r15
    3714:	41 f7       	brne	.-48     	; 0x36e6 <MifareClassicAppProcess+0x132>
                return ( (CMD_READ_RESPONSE_FRAME_SIZE + ISO14443A_CRCA_SIZE ) * BITS_PER_BYTE) | ISO14443A_APP_CUSTOM_PARITY;
    3716:	80 e9       	ldi	r24, 0x90	; 144
    3718:	90 e1       	ldi	r25, 0x10	; 16
    371a:	85 cf       	rjmp	.-246    	; 0x3626 <MifareClassicAppProcess+0x72>
    if ( ((! FromHalt) && (DataPtr[0] == ISO14443A_CMD_REQA)) ||
    371c:	d8 01       	movw	r26, r16
    371e:	8c 91       	ld	r24, X
    3720:	82 35       	cpi	r24, 0x52	; 82
    3722:	09 f0       	breq	.+2      	; 0x3726 <MifareClassicAppProcess+0x172>
    3724:	a0 cf       	rjmp	.-192    	; 0x3666 <MifareClassicAppProcess+0xb2>
        if (ISO14443AWakeUp(Buffer, &BitCount, CardATQAValue, true)) {
    3726:	90 91 17 21 	lds	r25, 0x2117	; 0x802117 <CardATQAValue>
    372a:	80 91 18 21 	lds	r24, 0x2118	; 0x802118 <CardATQAValue+0x1>
        DataPtr[0] = (ATQAValue >> 0) & 0x00FF;
    372e:	9c 93       	st	X, r25
        DataPtr[1] = (ATQAValue >> 8) & 0x00FF;
    3730:	11 96       	adiw	r26, 0x01	; 1
    3732:	8c 93       	st	X, r24
    3734:	73 cf       	rjmp	.-282    	; 0x361c <MifareClassicAppProcess+0x68>
        if (    (DataPtr[2] == UidCL[0]) &&
    3736:	82 81       	ldd	r24, Z+2	; 0x02
    3738:	88 38       	cpi	r24, 0x88	; 136
    373a:	09 f0       	breq	.+2      	; 0x373e <MifareClassicAppProcess+0x18a>
    373c:	94 cf       	rjmp	.-216    	; 0x3666 <MifareClassicAppProcess+0xb2>
    373e:	93 81       	ldd	r25, Z+3	; 0x03
    3740:	8a 81       	ldd	r24, Y+2	; 0x02
    3742:	98 13       	cpse	r25, r24
    3744:	90 cf       	rjmp	.-224    	; 0x3666 <MifareClassicAppProcess+0xb2>
                (DataPtr[3] == UidCL[1]) &&
    3746:	94 81       	ldd	r25, Z+4	; 0x04
    3748:	8b 81       	ldd	r24, Y+3	; 0x03
    374a:	98 13       	cpse	r25, r24
    374c:	8c cf       	rjmp	.-232    	; 0x3666 <MifareClassicAppProcess+0xb2>
                (DataPtr[4] == UidCL[2]) &&
    374e:	95 81       	ldd	r25, Z+5	; 0x05
    3750:	8c 81       	ldd	r24, Y+4	; 0x04
    3752:	98 13       	cpse	r25, r24
    3754:	88 cf       	rjmp	.-240    	; 0x3666 <MifareClassicAppProcess+0xb2>
            DataPtr[0] = SAKValue;
    3756:	84 e0       	ldi	r24, 0x04	; 4
    3758:	80 83       	st	Z, r24
            ISO14443AAppendCRCA(Buffer, 1);
    375a:	61 e0       	ldi	r22, 0x01	; 1
    375c:	70 e0       	ldi	r23, 0x00	; 0
    375e:	c8 01       	movw	r24, r16
    3760:	9c d7       	rcall	.+3896   	; 0x469a <ISO14443AAppendCRCA>
				    State = STATE_READY2;
    3762:	85 e0       	ldi	r24, 0x05	; 5
		       State = STATE_ACTIVE;
    3764:	80 93 32 21 	sts	0x2132, r24	; 0x802132 <State>
            *BitCount = ISO14443A_SAK_FRAME_SIZE;
    3768:	88 e1       	ldi	r24, 0x18	; 24
    376a:	90 e0       	ldi	r25, 0x00	; 0
    376c:	5c cf       	rjmp	.-328    	; 0x3626 <MifareClassicAppProcess+0x72>
                ||
    376e:	e3 e0       	ldi	r30, 0x03	; 3
    3770:	ec 15       	cp	r30, r12
    3772:	08 f4       	brcc	.+2      	; 0x3776 <MifareClassicAppProcess+0x1c2>
    3774:	78 cf       	rjmp	.-272    	; 0x3666 <MifareClassicAppProcess+0xb2>
                (CollisionByteCount < 4 && memcmp(UidCL, &DataPtr[2], CollisionByteCount) == 0 && (UidCL[CollisionByteCount] & mask) == (DataPtr[CollisionByteCount + 2] & mask))
    3776:	d1 2c       	mov	r13, r1
    3778:	a6 01       	movw	r20, r12
    377a:	b8 01       	movw	r22, r16
    377c:	6e 5f       	subi	r22, 0xFE	; 254
    377e:	7f 4f       	sbci	r23, 0xFF	; 255
    3780:	ce 01       	movw	r24, r28
    3782:	01 96       	adiw	r24, 0x01	; 1
    3784:	0e 94 38 2e 	call	0x5c70	; 0x5c70 <memcmp>
    3788:	89 2b       	or	r24, r25
    378a:	09 f0       	breq	.+2      	; 0x378e <MifareClassicAppProcess+0x1da>
    378c:	6c cf       	rjmp	.-296    	; 0x3666 <MifareClassicAppProcess+0xb2>
    378e:	d8 01       	movw	r26, r16
    3790:	ac 0d       	add	r26, r12
    3792:	bd 1d       	adc	r27, r13
    3794:	e1 e0       	ldi	r30, 0x01	; 1
    3796:	f0 e0       	ldi	r31, 0x00	; 0
    3798:	ec 0f       	add	r30, r28
    379a:	fd 1f       	adc	r31, r29
    379c:	ec 0d       	add	r30, r12
    379e:	fd 1d       	adc	r31, r13
    37a0:	12 96       	adiw	r26, 0x02	; 2
    37a2:	8c 91       	ld	r24, X
    37a4:	90 81       	ld	r25, Z
    37a6:	89 27       	eor	r24, r25
    37a8:	e8 22       	and	r14, r24
    37aa:	09 f4       	brne	.+2      	; 0x37ae <MifareClassicAppProcess+0x1fa>
    37ac:	6e c3       	rjmp	.+1756   	; 0x3e8a <MifareClassicAppProcess+0x8d6>
    37ae:	5b cf       	rjmp	.-330    	; 0x3666 <MifareClassicAppProcess+0xb2>
                MemoryReadBlock(UidCL1, MEM_UID_CL1_ADDRESS, MEM_UID_CL1_SIZE);
    37b0:	44 e0       	ldi	r20, 0x04	; 4
    37b2:	50 e0       	ldi	r21, 0x00	; 0
    37b4:	70 e0       	ldi	r23, 0x00	; 0
    37b6:	60 e0       	ldi	r22, 0x00	; 0
	       MemoryReadBlock(UidCL2, MEM_UID_CL2_ADDRESS, MEM_UID_CL2_SIZE);
    37b8:	ce 01       	movw	r24, r28
    37ba:	01 96       	adiw	r24, 0x01	; 1
    37bc:	0e 94 3f 09 	call	0x127e	; 0x127e <MemoryReadBlock>
    uint8_t NVB = DataPtr[1];
    37c0:	f8 01       	movw	r30, r16
    37c2:	81 81       	ldd	r24, Z+1	; 0x01
    switch (NVB) {
    37c4:	80 32       	cpi	r24, 0x20	; 32
    37c6:	09 f4       	brne	.+2      	; 0x37ca <MifareClassicAppProcess+0x216>
    37c8:	48 c0       	rjmp	.+144    	; 0x385a <MifareClassicAppProcess+0x2a6>
    37ca:	80 37       	cpi	r24, 0x70	; 112
    37cc:	09 f4       	brne	.+2      	; 0x37d0 <MifareClassicAppProcess+0x21c>
    37ce:	63 c0       	rjmp	.+198    	; 0x3896 <MifareClassicAppProcess+0x2e2>
        uint8_t CollisionByteCount = ((NVB >> 4) & 0x0f) - 2;
    37d0:	c8 2e       	mov	r12, r24
    37d2:	c2 94       	swap	r12
    37d4:	6f e0       	ldi	r22, 0x0F	; 15
    37d6:	c6 22       	and	r12, r22
    37d8:	ca 94       	dec	r12
    37da:	ca 94       	dec	r12
        uint8_t CollisionBitCount  = (NVB >> 0) & 0x0f;
    37dc:	8f 70       	andi	r24, 0x0F	; 15
    37de:	d8 2e       	mov	r13, r24
        uint8_t mask = 0xFF >> (8 - CollisionBitCount);
    37e0:	88 e0       	ldi	r24, 0x08	; 8
    37e2:	90 e0       	ldi	r25, 0x00	; 0
    37e4:	8d 19       	sub	r24, r13
    37e6:	91 09       	sbc	r25, r1
    37e8:	2f ef       	ldi	r18, 0xFF	; 255
    37ea:	30 e0       	ldi	r19, 0x00	; 0
    37ec:	79 01       	movw	r14, r18
    37ee:	02 c0       	rjmp	.+4      	; 0x37f4 <MifareClassicAppProcess+0x240>
    37f0:	f5 94       	asr	r15
    37f2:	e7 94       	ror	r14
    37f4:	8a 95       	dec	r24
    37f6:	e2 f7       	brpl	.-8      	; 0x37f0 <MifareClassicAppProcess+0x23c>
        if (
    37f8:	f5 e0       	ldi	r31, 0x05	; 5
    37fa:	cf 16       	cp	r12, r31
    37fc:	29 f0       	breq	.+10     	; 0x3808 <MifareClassicAppProcess+0x254>
                ((CollisionByteCount == 5 || (CollisionByteCount == 4 && CollisionBitCount > 0)) && memcmp(UidCL, &DataPtr[2], 4) == 0 && (ISO14443A_CALC_BCC(UidCL) & mask) == (DataPtr[6] & mask))
    37fe:	24 e0       	ldi	r18, 0x04	; 4
    3800:	c2 12       	cpse	r12, r18
    3802:	62 c0       	rjmp	.+196    	; 0x38c8 <MifareClassicAppProcess+0x314>
    3804:	dd 20       	and	r13, r13
    3806:	e9 f0       	breq	.+58     	; 0x3842 <MifareClassicAppProcess+0x28e>
    3808:	44 e0       	ldi	r20, 0x04	; 4
    380a:	50 e0       	ldi	r21, 0x00	; 0
    380c:	b8 01       	movw	r22, r16
    380e:	6e 5f       	subi	r22, 0xFE	; 254
    3810:	7f 4f       	sbci	r23, 0xFF	; 255
    3812:	ce 01       	movw	r24, r28
    3814:	01 96       	adiw	r24, 0x01	; 1
    3816:	0e 94 38 2e 	call	0x5c70	; 0x5c70 <memcmp>
    381a:	89 2b       	or	r24, r25
    381c:	69 f4       	brne	.+26     	; 0x3838 <MifareClassicAppProcess+0x284>
    381e:	89 81       	ldd	r24, Y+1	; 0x01
    3820:	9a 81       	ldd	r25, Y+2	; 0x02
    3822:	89 27       	eor	r24, r25
    3824:	9b 81       	ldd	r25, Y+3	; 0x03
    3826:	89 27       	eor	r24, r25
    3828:	9c 81       	ldd	r25, Y+4	; 0x04
    382a:	89 27       	eor	r24, r25
    382c:	d8 01       	movw	r26, r16
    382e:	16 96       	adiw	r26, 0x06	; 6
    3830:	9c 91       	ld	r25, X
    3832:	89 27       	eor	r24, r25
    3834:	8e 21       	and	r24, r14
    3836:	89 f0       	breq	.+34     	; 0x385a <MifareClassicAppProcess+0x2a6>
                ||
    3838:	b4 e0       	ldi	r27, 0x04	; 4
    383a:	cb 12       	cpse	r12, r27
    383c:	45 c0       	rjmp	.+138    	; 0x38c8 <MifareClassicAppProcess+0x314>
                (CollisionByteCount == 4 && CollisionBitCount == 0 && memcmp(UidCL, &DataPtr[2], 4) == 0)
    383e:	d1 10       	cpse	r13, r1
    3840:	12 cf       	rjmp	.-476    	; 0x3666 <MifareClassicAppProcess+0xb2>
    3842:	44 e0       	ldi	r20, 0x04	; 4
    3844:	50 e0       	ldi	r21, 0x00	; 0
    3846:	b8 01       	movw	r22, r16
    3848:	6e 5f       	subi	r22, 0xFE	; 254
    384a:	7f 4f       	sbci	r23, 0xFF	; 255
    384c:	ce 01       	movw	r24, r28
    384e:	01 96       	adiw	r24, 0x01	; 1
    3850:	0e 94 38 2e 	call	0x5c70	; 0x5c70 <memcmp>
    3854:	89 2b       	or	r24, r25
    3856:	09 f0       	breq	.+2      	; 0x385a <MifareClassicAppProcess+0x2a6>
    3858:	06 cf       	rjmp	.-500    	; 0x3666 <MifareClassicAppProcess+0xb2>
            DataPtr[0] = UidCL[0];
    385a:	89 81       	ldd	r24, Y+1	; 0x01
    385c:	d8 01       	movw	r26, r16
    385e:	8c 93       	st	X, r24
            DataPtr[1] = UidCL[1];
    3860:	3a 81       	ldd	r19, Y+2	; 0x02
    3862:	11 96       	adiw	r26, 0x01	; 1
    3864:	3c 93       	st	X, r19
    3866:	11 97       	sbiw	r26, 0x01	; 1
            DataPtr[2] = UidCL[2];
    3868:	2b 81       	ldd	r18, Y+3	; 0x03
    386a:	12 96       	adiw	r26, 0x02	; 2
    386c:	2c 93       	st	X, r18
    386e:	12 97       	sbiw	r26, 0x02	; 2
    3870:	17 c3       	rjmp	.+1582   	; 0x3ea0 <MifareClassicAppProcess+0x8ec>
            State = STATE_HALT;
    3872:	10 92 32 21 	sts	0x2132, r1	; 0x802132 <State>
    3876:	f7 ce       	rjmp	.-530    	; 0x3666 <MifareClassicAppProcess+0xb2>
    if ( ((! FromHalt) && (DataPtr[0] == ISO14443A_CMD_REQA)) ||
    3878:	f8 01       	movw	r30, r16
    387a:	80 81       	ld	r24, Z
    387c:	86 32       	cpi	r24, 0x26	; 38
    387e:	09 f4       	brne	.+2      	; 0x3882 <MifareClassicAppProcess+0x2ce>
    3880:	59 c0       	rjmp	.+178    	; 0x3934 <MifareClassicAppProcess+0x380>
    3882:	82 35       	cpi	r24, 0x52	; 82
    3884:	09 f4       	brne	.+2      	; 0x3888 <MifareClassicAppProcess+0x2d4>
    3886:	56 c0       	rjmp	.+172    	; 0x3934 <MifareClassicAppProcess+0x380>
	    } else if (Buffer[0] == ISO14443A_CMD_SELECT_CL2) {
    3888:	85 39       	cpi	r24, 0x95	; 149
    388a:	99 f7       	brne	.-26     	; 0x3872 <MifareClassicAppProcess+0x2be>
	       MemoryReadBlock(UidCL2, MEM_UID_CL2_ADDRESS, MEM_UID_CL2_SIZE);
    388c:	44 e0       	ldi	r20, 0x04	; 4
    388e:	50 e0       	ldi	r21, 0x00	; 0
    3890:	63 e0       	ldi	r22, 0x03	; 3
    3892:	70 e0       	ldi	r23, 0x00	; 0
    3894:	91 cf       	rjmp	.-222    	; 0x37b8 <MifareClassicAppProcess+0x204>
        if (    (DataPtr[2] == UidCL[0]) &&
    3896:	92 81       	ldd	r25, Z+2	; 0x02
    3898:	89 81       	ldd	r24, Y+1	; 0x01
    389a:	98 13       	cpse	r25, r24
    389c:	e4 ce       	rjmp	.-568    	; 0x3666 <MifareClassicAppProcess+0xb2>
    389e:	93 81       	ldd	r25, Z+3	; 0x03
    38a0:	8a 81       	ldd	r24, Y+2	; 0x02
    38a2:	98 13       	cpse	r25, r24
    38a4:	e0 ce       	rjmp	.-576    	; 0x3666 <MifareClassicAppProcess+0xb2>
                (DataPtr[3] == UidCL[1]) &&
    38a6:	94 81       	ldd	r25, Z+4	; 0x04
    38a8:	8b 81       	ldd	r24, Y+3	; 0x03
    38aa:	98 13       	cpse	r25, r24
    38ac:	dc ce       	rjmp	.-584    	; 0x3666 <MifareClassicAppProcess+0xb2>
                (DataPtr[4] == UidCL[2]) &&
    38ae:	95 81       	ldd	r25, Z+5	; 0x05
    38b0:	8c 81       	ldd	r24, Y+4	; 0x04
    38b2:	98 13       	cpse	r25, r24
    38b4:	d8 ce       	rjmp	.-592    	; 0x3666 <MifareClassicAppProcess+0xb2>
            DataPtr[0] = SAKValue;
    38b6:	80 91 16 21 	lds	r24, 0x2116	; 0x802116 <CardSAKValue>
    38ba:	80 83       	st	Z, r24
            ISO14443AAppendCRCA(Buffer, 1);
    38bc:	61 e0       	ldi	r22, 0x01	; 1
    38be:	70 e0       	ldi	r23, 0x00	; 0
    38c0:	c8 01       	movw	r24, r16
    38c2:	eb d6       	rcall	.+3542   	; 0x469a <ISO14443AAppendCRCA>
		       State = STATE_ACTIVE;
    38c4:	86 e0       	ldi	r24, 0x06	; 6
    38c6:	4e cf       	rjmp	.-356    	; 0x3764 <MifareClassicAppProcess+0x1b0>
                ||
    38c8:	e3 e0       	ldi	r30, 0x03	; 3
    38ca:	ec 15       	cp	r30, r12
    38cc:	08 f4       	brcc	.+2      	; 0x38d0 <MifareClassicAppProcess+0x31c>
    38ce:	cb ce       	rjmp	.-618    	; 0x3666 <MifareClassicAppProcess+0xb2>
                (CollisionByteCount < 4 && memcmp(UidCL, &DataPtr[2], CollisionByteCount) == 0 && (UidCL[CollisionByteCount] & mask) == (DataPtr[CollisionByteCount + 2] & mask))
    38d0:	d1 2c       	mov	r13, r1
    38d2:	a6 01       	movw	r20, r12
    38d4:	b8 01       	movw	r22, r16
    38d6:	6e 5f       	subi	r22, 0xFE	; 254
    38d8:	7f 4f       	sbci	r23, 0xFF	; 255
    38da:	ce 01       	movw	r24, r28
    38dc:	01 96       	adiw	r24, 0x01	; 1
    38de:	0e 94 38 2e 	call	0x5c70	; 0x5c70 <memcmp>
    38e2:	89 2b       	or	r24, r25
    38e4:	09 f0       	breq	.+2      	; 0x38e8 <MifareClassicAppProcess+0x334>
    38e6:	bf ce       	rjmp	.-642    	; 0x3666 <MifareClassicAppProcess+0xb2>
    38e8:	d8 01       	movw	r26, r16
    38ea:	ac 0d       	add	r26, r12
    38ec:	bd 1d       	adc	r27, r13
    38ee:	e1 e0       	ldi	r30, 0x01	; 1
    38f0:	f0 e0       	ldi	r31, 0x00	; 0
    38f2:	ec 0f       	add	r30, r28
    38f4:	fd 1f       	adc	r31, r29
    38f6:	ec 0d       	add	r30, r12
    38f8:	fd 1d       	adc	r31, r13
    38fa:	12 96       	adiw	r26, 0x02	; 2
    38fc:	8c 91       	ld	r24, X
    38fe:	90 81       	ld	r25, Z
    3900:	89 27       	eor	r24, r25
    3902:	e8 22       	and	r14, r24
    3904:	09 f4       	brne	.+2      	; 0x3908 <MifareClassicAppProcess+0x354>
    3906:	a9 cf       	rjmp	.-174    	; 0x385a <MifareClassicAppProcess+0x2a6>
    3908:	ae ce       	rjmp	.-676    	; 0x3666 <MifareClassicAppProcess+0xb2>
    if ( ((! FromHalt) && (DataPtr[0] == ISO14443A_CMD_REQA)) ||
    390a:	f8 01       	movw	r30, r16
    390c:	80 81       	ld	r24, Z
    390e:	86 32       	cpi	r24, 0x26	; 38
    3910:	89 f0       	breq	.+34     	; 0x3934 <MifareClassicAppProcess+0x380>
    3912:	82 35       	cpi	r24, 0x52	; 82
    3914:	79 f0       	breq	.+30     	; 0x3934 <MifareClassicAppProcess+0x380>
        } else if (Buffer[0] == CMD_HALT) {
    3916:	80 35       	cpi	r24, 0x50	; 80
    3918:	b9 f4       	brne	.+46     	; 0x3948 <MifareClassicAppProcess+0x394>
            if (Buffer[1] == 0) {
    391a:	81 81       	ldd	r24, Z+1	; 0x01
    391c:	81 11       	cpse	r24, r1
    391e:	10 c0       	rjmp	.+32     	; 0x3940 <MifareClassicAppProcess+0x38c>
                if (ISO14443ACheckCRCA(Buffer, CMD_HALT_FRAME_SIZE)) {
    3920:	62 e0       	ldi	r22, 0x02	; 2
    3922:	70 e0       	ldi	r23, 0x00	; 0
    3924:	c8 01       	movw	r24, r16
    3926:	e4 d6       	rcall	.+3528   	; 0x46f0 <ISO14443ACheckCRCA>
    3928:	81 11       	cpse	r24, r1
    392a:	a3 cf       	rjmp	.-186    	; 0x3872 <MifareClassicAppProcess+0x2be>
                    Buffer[0] = NAK_CRC_ERROR;
    392c:	81 e0       	ldi	r24, 0x01	; 1
                Buffer[0] = NAK_CRC_ERROR ^ Crypto1Nibble();
    392e:	d8 01       	movw	r26, r16
    3930:	8c 93       	st	X, r24
    3932:	07 c0       	rjmp	.+14     	; 0x3942 <MifareClassicAppProcess+0x38e>
        if (ISO14443AWakeUp(Buffer, &BitCount, CardATQAValue, false)) {
    3934:	90 91 17 21 	lds	r25, 0x2117	; 0x802117 <CardATQAValue>
    3938:	80 91 18 21 	lds	r24, 0x2118	; 0x802118 <CardATQAValue+0x1>
        DataPtr[0] = (ATQAValue >> 0) & 0x00FF;
    393c:	d8 01       	movw	r26, r16
    393e:	f7 ce       	rjmp	.-530    	; 0x372e <MifareClassicAppProcess+0x17a>
                Buffer[0] = NAK_INVALID_ARG;
    3940:	10 82       	st	Z, r1
        return ACK_NAK_FRAME_SIZE;
    3942:	84 e0       	ldi	r24, 0x04	; 4
    3944:	90 e0       	ldi	r25, 0x00	; 0
    3946:	6f ce       	rjmp	.-802    	; 0x3626 <MifareClassicAppProcess+0x72>
        } else if ( (Buffer[0] == CMD_AUTH_A) || (Buffer[0] == CMD_AUTH_B)) {
    3948:	90 ea       	ldi	r25, 0xA0	; 160
    394a:	98 0f       	add	r25, r24
    394c:	92 30       	cpi	r25, 0x02	; 2
    394e:	08 f0       	brcs	.+2      	; 0x3952 <MifareClassicAppProcess+0x39e>
    3950:	6e c0       	rjmp	.+220    	; 0x3a2e <MifareClassicAppProcess+0x47a>
            if (ISO14443ACheckCRCA(Buffer, CMD_AUTH_FRAME_SIZE)) {
    3952:	62 e0       	ldi	r22, 0x02	; 2
    3954:	70 e0       	ldi	r23, 0x00	; 0
    3956:	c8 01       	movw	r24, r16
    3958:	cb d6       	rcall	.+3478   	; 0x46f0 <ISO14443ACheckCRCA>
    395a:	88 23       	and	r24, r24
    395c:	39 f3       	breq	.-50     	; 0x392c <MifareClassicAppProcess+0x378>
                uint8_t SectorAddress = Buffer[1] & MEM_SECTOR_ADDR_MASK;
    395e:	d8 01       	movw	r26, r16
    3960:	11 96       	adiw	r26, 0x01	; 1
    3962:	9c 91       	ld	r25, X
    3964:	11 97       	sbiw	r26, 0x01	; 1
    3966:	9c 7f       	andi	r25, 0xFC	; 252
                uint8_t KeyOffset = (Buffer[0] == CMD_AUTH_A ? MEM_KEY_A_OFFSET : MEM_KEY_B_OFFSET);
    3968:	8c 91       	ld	r24, X
    396a:	20 e3       	ldi	r18, 0x30	; 48
    396c:	80 36       	cpi	r24, 0x60	; 96
    396e:	09 f0       	breq	.+2      	; 0x3972 <MifareClassicAppProcess+0x3be>
    3970:	2a e3       	ldi	r18, 0x3A	; 58
                uint16_t KeyAddress = (uint16_t) SectorAddress * MEM_BYTES_PER_BLOCK + KeyOffset;
    3972:	b0 e1       	ldi	r27, 0x10	; 16
    3974:	9b 9f       	mul	r25, r27
    3976:	70 01       	movw	r14, r0
    3978:	11 24       	eor	r1, r1
    397a:	e2 0e       	add	r14, r18
    397c:	f1 1c       	adc	r15, r1
			    uint8_t CardNonce[4] = {0x01,0x20,0x01,0x45};
    397e:	80 91 4f 20 	lds	r24, 0x204F	; 0x80204f <next+0x8>
    3982:	90 91 50 20 	lds	r25, 0x2050	; 0x802050 <next+0x9>
    3986:	a0 91 51 20 	lds	r26, 0x2051	; 0x802051 <next+0xa>
    398a:	b0 91 52 20 	lds	r27, 0x2052	; 0x802052 <next+0xb>
    398e:	8f 83       	std	Y+7, r24	; 0x07
    3990:	98 87       	std	Y+8, r25	; 0x08
    3992:	a9 87       	std	Y+9, r26	; 0x09
    3994:	ba 87       	std	Y+10, r27	; 0x0a
                uint8_t CardNonceSuccessor1[4] = {0x63, 0xe5, 0xbc, 0xa7};
    3996:	40 90 53 20 	lds	r4, 0x2053	; 0x802053 <next+0xc>
    399a:	50 90 54 20 	lds	r5, 0x2054	; 0x802054 <next+0xd>
    399e:	60 90 55 20 	lds	r6, 0x2055	; 0x802055 <next+0xe>
    39a2:	70 90 56 20 	lds	r7, 0x2056	; 0x802056 <next+0xf>
                uint8_t CardNonceSuccessor2[4] = {0x99, 0x37, 0x30, 0xbd};
    39a6:	80 90 57 20 	lds	r8, 0x2057	; 0x802057 <next+0x10>
    39aa:	90 90 58 20 	lds	r9, 0x2058	; 0x802058 <next+0x11>
    39ae:	a0 90 59 20 	lds	r10, 0x2059	; 0x802059 <next+0x12>
    39b2:	b0 90 5a 20 	lds	r11, 0x205A	; 0x80205a <next+0x13>
                if (_7BUID)
    39b6:	80 91 15 21 	lds	r24, 0x2115	; 0x802115 <_7BUID>
					MemoryReadBlock(Uid, MEM_UID_CL2_ADDRESS, MEM_UID_CL2_SIZE);
    39ba:	44 e0       	ldi	r20, 0x04	; 4
    39bc:	50 e0       	ldi	r21, 0x00	; 0
    39be:	63 e0       	ldi	r22, 0x03	; 3
    39c0:	70 e0       	ldi	r23, 0x00	; 0
                if (_7BUID)
    39c2:	81 11       	cpse	r24, r1
    39c4:	02 c0       	rjmp	.+4      	; 0x39ca <MifareClassicAppProcess+0x416>
                    MemoryReadBlock(Uid, MEM_UID_CL1_ADDRESS, MEM_UID_CL1_SIZE);
    39c6:	70 e0       	ldi	r23, 0x00	; 0
    39c8:	60 e0       	ldi	r22, 0x00	; 0
    39ca:	ce 01       	movw	r24, r28
    39cc:	0b 96       	adiw	r24, 0x0b	; 11
    39ce:	0e 94 3f 09 	call	0x127e	; 0x127e <MemoryReadBlock>
                MemoryReadBlock(Key, KeyAddress, MEM_KEY_SIZE);
    39d2:	46 e0       	ldi	r20, 0x06	; 6
    39d4:	50 e0       	ldi	r21, 0x00	; 0
    39d6:	b7 01       	movw	r22, r14
    39d8:	ce 01       	movw	r24, r28
    39da:	01 96       	adiw	r24, 0x01	; 1
    39dc:	0e 94 3f 09 	call	0x127e	; 0x127e <MemoryReadBlock>
                memcpy(ReaderResponse, CardNonceSuccessor1, 4);
    39e0:	40 92 2a 21 	sts	0x212A, r4	; 0x80212a <ReaderResponse>
    39e4:	50 92 2b 21 	sts	0x212B, r5	; 0x80212b <ReaderResponse+0x1>
    39e8:	60 92 2c 21 	sts	0x212C, r6	; 0x80212c <ReaderResponse+0x2>
    39ec:	70 92 2d 21 	sts	0x212D, r7	; 0x80212d <ReaderResponse+0x3>
                memcpy(CardResponse, CardNonceSuccessor2, 4);
    39f0:	80 92 2e 21 	sts	0x212E, r8	; 0x80212e <CardResponse>
    39f4:	90 92 2f 21 	sts	0x212F, r9	; 0x80212f <CardResponse+0x1>
    39f8:	a0 92 30 21 	sts	0x2130, r10	; 0x802130 <CardResponse+0x2>
    39fc:	b0 92 31 21 	sts	0x2131, r11	; 0x802131 <CardResponse+0x3>
                State = STATE_AUTHING;
    3a00:	87 e0       	ldi	r24, 0x07	; 7
    3a02:	80 93 32 21 	sts	0x2132, r24	; 0x802132 <State>
    3a06:	de 01       	movw	r26, r28
    3a08:	17 96       	adiw	r26, 0x07	; 7
    3a0a:	f8 01       	movw	r30, r16
    3a0c:	c8 01       	movw	r24, r16
    3a0e:	04 96       	adiw	r24, 0x04	; 4
    3a10:	ad 01       	movw	r20, r26
                    Buffer[i] = CardNonce[i];
    3a12:	2d 91       	ld	r18, X+
    3a14:	21 93       	st	Z+, r18
                for (uint8_t i=0; i<sizeof(CardNonce); i++)
    3a16:	e8 17       	cp	r30, r24
    3a18:	f9 07       	cpc	r31, r25
    3a1a:	d9 f7       	brne	.-10     	; 0x3a12 <MifareClassicAppProcess+0x45e>
                Crypto1Setup(Key, Uid, CardNonce);
    3a1c:	be 01       	movw	r22, r28
    3a1e:	65 5f       	subi	r22, 0xF5	; 245
    3a20:	7f 4f       	sbci	r23, 0xFF	; 255
    3a22:	ce 01       	movw	r24, r28
    3a24:	01 96       	adiw	r24, 0x01	; 1
    3a26:	b3 d6       	rcall	.+3430   	; 0x478e <Crypto1Setup>
                return CMD_AUTH_RB_FRAME_SIZE * BITS_PER_BYTE;
    3a28:	80 e2       	ldi	r24, 0x20	; 32
    3a2a:	90 e0       	ldi	r25, 0x00	; 0
    3a2c:	fc cd       	rjmp	.-1032   	; 0x3626 <MifareClassicAppProcess+0x72>
        } else if ( (Buffer[0] == CMD_READ) || 
    3a2e:	98 2f       	mov	r25, r24
    3a30:	9f 77       	andi	r25, 0x7F	; 127
    3a32:	90 33       	cpi	r25, 0x30	; 48
    3a34:	29 f0       	breq	.+10     	; 0x3a40 <MifareClassicAppProcess+0x48c>
    3a36:	80 3a       	cpi	r24, 0xA0	; 160
    3a38:	19 f0       	breq	.+6      	; 0x3a40 <MifareClassicAppProcess+0x48c>
		            (Buffer[0] == CMD_WRITE) ||
    3a3a:	80 5c       	subi	r24, 0xC0	; 192
    3a3c:	83 30       	cpi	r24, 0x03	; 3
    3a3e:	38 f4       	brcc	.+14     	; 0x3a4e <MifareClassicAppProcess+0x49a>
            State = STATE_IDLE;
    3a40:	81 e0       	ldi	r24, 0x01	; 1
    3a42:	80 93 32 21 	sts	0x2132, r24	; 0x802132 <State>
            Buffer[0] = NAK_NOT_AUTHED;
    3a46:	84 e0       	ldi	r24, 0x04	; 4
                Buffer[0] = NAK_CRC_ERROR ^ Crypto1Nibble();
    3a48:	f8 01       	movw	r30, r16
    3a4a:	80 83       	st	Z, r24
    3a4c:	7a cf       	rjmp	.-268    	; 0x3942 <MifareClassicAppProcess+0x38e>
                State = STATE_AUTHED_IDLE;
    3a4e:	81 e0       	ldi	r24, 0x01	; 1
    3a50:	80 93 32 21 	sts	0x2132, r24	; 0x802132 <State>
        Crypto1Auth(&Buffer[0]);
    3a54:	08 ce       	rjmp	.-1008   	; 0x3666 <MifareClassicAppProcess+0xb2>
    3a56:	c8 01       	movw	r24, r16
    3a58:	31 d7       	rcall	.+3682   	; 0x48bc <Crypto1Auth>
    3a5a:	68 01       	movw	r12, r16
    3a5c:	58 01       	movw	r10, r16
    3a5e:	f4 e0       	ldi	r31, 0x04	; 4
    3a60:	af 0e       	add	r10, r31
    3a62:	b1 1c       	adc	r11, r1
            Buffer[i+4] ^= Crypto1Byte();
    3a64:	78 01       	movw	r14, r16
    3a66:	3d d7       	rcall	.+3706   	; 0x48e2 <Crypto1Byte>
    3a68:	d7 01       	movw	r26, r14
    3a6a:	14 96       	adiw	r26, 0x04	; 4
    3a6c:	9c 91       	ld	r25, X
    3a6e:	14 97       	sbiw	r26, 0x04	; 4
    3a70:	89 27       	eor	r24, r25
    3a72:	14 96       	adiw	r26, 0x04	; 4
    3a74:	8c 93       	st	X, r24
    3a76:	bf ef       	ldi	r27, 0xFF	; 255
    3a78:	eb 1a       	sub	r14, r27
    3a7a:	fb 0a       	sbc	r15, r27
        for (uint8_t i=0; i<4; i++)
    3a7c:	ae 14       	cp	r10, r14
    3a7e:	bf 04       	cpc	r11, r15
    3a80:	91 f7       	brne	.-28     	; 0x3a66 <MifareClassicAppProcess+0x4b2>
        if ((Buffer[4] == ReaderResponse[0]) &&
    3a82:	f8 01       	movw	r30, r16
    3a84:	94 81       	ldd	r25, Z+4	; 0x04
    3a86:	80 91 2a 21 	lds	r24, 0x212A	; 0x80212a <ReaderResponse>
    3a8a:	98 13       	cpse	r25, r24
    3a8c:	e0 cf       	rjmp	.-64     	; 0x3a4e <MifareClassicAppProcess+0x49a>
    3a8e:	95 81       	ldd	r25, Z+5	; 0x05
    3a90:	80 91 2b 21 	lds	r24, 0x212B	; 0x80212b <ReaderResponse+0x1>
    3a94:	98 13       	cpse	r25, r24
    3a96:	db cf       	rjmp	.-74     	; 0x3a4e <MifareClassicAppProcess+0x49a>
            (Buffer[5] == ReaderResponse[1]) &&
    3a98:	96 81       	ldd	r25, Z+6	; 0x06
    3a9a:	80 91 2c 21 	lds	r24, 0x212C	; 0x80212c <ReaderResponse+0x2>
    3a9e:	98 13       	cpse	r25, r24
    3aa0:	d6 cf       	rjmp	.-84     	; 0x3a4e <MifareClassicAppProcess+0x49a>
            (Buffer[6] == ReaderResponse[2]) &&
    3aa2:	97 81       	ldd	r25, Z+7	; 0x07
    3aa4:	80 91 2d 21 	lds	r24, 0x212D	; 0x80212d <ReaderResponse+0x3>
    3aa8:	98 13       	cpse	r25, r24
    3aaa:	d1 cf       	rjmp	.-94     	; 0x3a4e <MifareClassicAppProcess+0x49a>
    3aac:	0e e2       	ldi	r16, 0x2E	; 46
                Buffer[i] = CardResponse[i] ^ Crypto1Byte();
    3aae:	11 e2       	ldi	r17, 0x21	; 33
    3ab0:	d8 01       	movw	r26, r16
    3ab2:	bd 90       	ld	r11, X+
    3ab4:	8d 01       	movw	r16, r26
    3ab6:	15 d7       	rcall	.+3626   	; 0x48e2 <Crypto1Byte>
    3ab8:	8b 25       	eor	r24, r11
    3aba:	f6 01       	movw	r30, r12
    3abc:	81 93       	st	Z+, r24
    3abe:	6f 01       	movw	r12, r30
                Buffer[ISO14443A_BUFFER_PARITY_OFFSET + i] = ODD_PARITY(CardResponse[i]) ^ Crypto1FilterOutput();
    3ac0:	f8 01       	movw	r30, r16
    3ac2:	31 97       	sbiw	r30, 0x01	; 1
    3ac4:	e0 81       	ld	r30, Z
    3ac6:	f0 e0       	ldi	r31, 0x00	; 0
    3ac8:	ef 56       	subi	r30, 0x6F	; 111
    3aca:	fb 4f       	sbci	r31, 0xFB	; 251
    3acc:	b4 90       	lpm	r11, Z
    3ace:	0e 94 b9 05 	call	0xb72	; 0xb72 <Crypto1FilterOutput>
    3ad2:	d6 01       	movw	r26, r12
    3ad4:	a1 58       	subi	r26, 0x81	; 129
    3ad6:	bf 4f       	sbci	r27, 0xFF	; 255
    3ad8:	8b 25       	eor	r24, r11
    3ada:	8c 93       	st	X, r24
            for (uint8_t i=0; i<sizeof(CardResponse); i++) {
    3adc:	ec 14       	cp	r14, r12
    3ade:	fd 04       	cpc	r15, r13
    3ae0:	39 f7       	brne	.-50     	; 0x3ab0 <MifareClassicAppProcess+0x4fc>
            State = STATE_AUTHED_IDLE;
    3ae2:	88 e0       	ldi	r24, 0x08	; 8
    3ae4:	80 93 32 21 	sts	0x2132, r24	; 0x802132 <State>
            return (CMD_AUTH_BA_FRAME_SIZE * BITS_PER_BYTE) | ISO14443A_APP_CUSTOM_PARITY;
    3ae8:	80 e2       	ldi	r24, 0x20	; 32
    3aea:	90 e1       	ldi	r25, 0x10	; 16
        } else if (Buffer[0] == CMD_WRITE) {
    3aec:	9c cd       	rjmp	.-1224   	; 0x3626 <MifareClassicAppProcess+0x72>
    3aee:	80 3a       	cpi	r24, 0xA0	; 160
            if (ISO14443ACheckCRCA(Buffer, CMD_WRITE_FRAME_SIZE)) {
    3af0:	99 f4       	brne	.+38     	; 0x3b18 <MifareClassicAppProcess+0x564>
    3af2:	62 e0       	ldi	r22, 0x02	; 2
    3af4:	70 e0       	ldi	r23, 0x00	; 0
    3af6:	c8 01       	movw	r24, r16
    3af8:	fb d5       	rcall	.+3062   	; 0x46f0 <ISO14443ACheckCRCA>
    3afa:	88 23       	and	r24, r24
    3afc:	09 f4       	brne	.+2      	; 0x3b00 <MifareClassicAppProcess+0x54c>
                CurrentAddress = Buffer[1];
    3afe:	5d c0       	rjmp	.+186    	; 0x3bba <MifareClassicAppProcess+0x606>
    3b00:	d8 01       	movw	r26, r16
    3b02:	11 96       	adiw	r26, 0x01	; 1
    3b04:	8c 91       	ld	r24, X
    3b06:	80 93 29 21 	sts	0x2129, r24	; 0x802129 <CurrentAddress>
                State = STATE_WRITE;
    3b0a:	89 e0       	ldi	r24, 0x09	; 9
    3b0c:	80 93 32 21 	sts	0x2132, r24	; 0x802132 <State>
                Buffer[0] = ACK_VALUE ^ Crypto1Nibble();
    3b10:	f9 d6       	rcall	.+3570   	; 0x4904 <Crypto1Nibble>
                Buffer[0] = NAK_CRC_ERROR ^ Crypto1Nibble();
    3b12:	9a e0       	ldi	r25, 0x0A	; 10
    3b14:	89 27       	eor	r24, r25
        } else if (Buffer[0] == CMD_DECREMENT) {
    3b16:	98 cf       	rjmp	.-208    	; 0x3a48 <MifareClassicAppProcess+0x494>
    3b18:	80 3c       	cpi	r24, 0xC0	; 192
            if (ISO14443ACheckCRCA(Buffer, CMD_DECREMENT_FRAME_SIZE)) {
    3b1a:	91 f4       	brne	.+36     	; 0x3b40 <MifareClassicAppProcess+0x58c>
    3b1c:	62 e0       	ldi	r22, 0x02	; 2
    3b1e:	70 e0       	ldi	r23, 0x00	; 0
    3b20:	c8 01       	movw	r24, r16
    3b22:	e6 d5       	rcall	.+3020   	; 0x46f0 <ISO14443ACheckCRCA>
    3b24:	88 23       	and	r24, r24
    3b26:	09 f4       	brne	.+2      	; 0x3b2a <MifareClassicAppProcess+0x576>
                CurrentAddress = Buffer[1];
    3b28:	bc c0       	rjmp	.+376    	; 0x3ca2 <MifareClassicAppProcess+0x6ee>
    3b2a:	f8 01       	movw	r30, r16
    3b2c:	81 81       	ldd	r24, Z+1	; 0x01
    3b2e:	80 93 29 21 	sts	0x2129, r24	; 0x802129 <CurrentAddress>
                State = STATE_RESTORE;
    3b32:	8b e0       	ldi	r24, 0x0B	; 11
                Buffer[0] = ACK_VALUE ^ Crypto1Nibble();
    3b34:	80 93 32 21 	sts	0x2132, r24	; 0x802132 <State>
    3b38:	e5 d6       	rcall	.+3530   	; 0x4904 <Crypto1Nibble>
                Buffer[0] = NAK_CRC_ERROR ^ Crypto1Nibble();
    3b3a:	9a e0       	ldi	r25, 0x0A	; 10
    3b3c:	89 27       	eor	r24, r25
        } else if (Buffer[0] == CMD_INCREMENT) {
    3b3e:	f7 ce       	rjmp	.-530    	; 0x392e <MifareClassicAppProcess+0x37a>
    3b40:	81 3c       	cpi	r24, 0xC1	; 193
            if (ISO14443ACheckCRCA(Buffer, CMD_DECREMENT_FRAME_SIZE)) {
    3b42:	91 f4       	brne	.+36     	; 0x3b68 <MifareClassicAppProcess+0x5b4>
    3b44:	62 e0       	ldi	r22, 0x02	; 2
    3b46:	70 e0       	ldi	r23, 0x00	; 0
    3b48:	c8 01       	movw	r24, r16
    3b4a:	d2 d5       	rcall	.+2980   	; 0x46f0 <ISO14443ACheckCRCA>
    3b4c:	88 23       	and	r24, r24
                CurrentAddress = Buffer[1];
    3b4e:	a9 f1       	breq	.+106    	; 0x3bba <MifareClassicAppProcess+0x606>
    3b50:	d8 01       	movw	r26, r16
    3b52:	11 96       	adiw	r26, 0x01	; 1
    3b54:	8c 91       	ld	r24, X
                State = STATE_INCREMENT;
    3b56:	80 93 29 21 	sts	0x2129, r24	; 0x802129 <CurrentAddress>
    3b5a:	5a e0       	ldi	r21, 0x0A	; 10
    3b5c:	f5 2e       	mov	r15, r21
                Buffer[0] = ACK_VALUE ^ Crypto1Nibble();
    3b5e:	f0 92 32 21 	sts	0x2132, r15	; 0x802132 <State>
    3b62:	d0 d6       	rcall	.+3488   	; 0x4904 <Crypto1Nibble>
    3b64:	8f 25       	eor	r24, r15
        } else if (Buffer[0] == CMD_RESTORE) {
    3b66:	70 cf       	rjmp	.-288    	; 0x3a48 <MifareClassicAppProcess+0x494>
    3b68:	82 3c       	cpi	r24, 0xC2	; 194
            if (ISO14443ACheckCRCA(Buffer, CMD_DECREMENT_FRAME_SIZE)) {
    3b6a:	69 f4       	brne	.+26     	; 0x3b86 <MifareClassicAppProcess+0x5d2>
    3b6c:	62 e0       	ldi	r22, 0x02	; 2
    3b6e:	70 e0       	ldi	r23, 0x00	; 0
    3b70:	c8 01       	movw	r24, r16
    3b72:	be d5       	rcall	.+2940   	; 0x46f0 <ISO14443ACheckCRCA>
    3b74:	88 23       	and	r24, r24
    3b76:	09 f4       	brne	.+2      	; 0x3b7a <MifareClassicAppProcess+0x5c6>
                CurrentAddress = Buffer[1];
    3b78:	94 c0       	rjmp	.+296    	; 0x3ca2 <MifareClassicAppProcess+0x6ee>
    3b7a:	f8 01       	movw	r30, r16
    3b7c:	81 81       	ldd	r24, Z+1	; 0x01
    3b7e:	80 93 29 21 	sts	0x2129, r24	; 0x802129 <CurrentAddress>
                State = STATE_RESTORE;
    3b82:	8c e0       	ldi	r24, 0x0C	; 12
        }else if (Buffer[0] == CMD_TRANSFER) {
    3b84:	d7 cf       	rjmp	.-82     	; 0x3b34 <MifareClassicAppProcess+0x580>
    3b86:	80 3b       	cpi	r24, 0xB0	; 176
            if (ISO14443ACheckCRCA(Buffer, CMD_TRANSFER_FRAME_SIZE)) {
    3b88:	d9 f4       	brne	.+54     	; 0x3bc0 <MifareClassicAppProcess+0x60c>
    3b8a:	62 e0       	ldi	r22, 0x02	; 2
    3b8c:	70 e0       	ldi	r23, 0x00	; 0
    3b8e:	c8 01       	movw	r24, r16
    3b90:	af d5       	rcall	.+2910   	; 0x46f0 <ISO14443ACheckCRCA>
    3b92:	88 23       	and	r24, r24
    3b94:	91 f0       	breq	.+36     	; 0x3bba <MifareClassicAppProcess+0x606>
                if (!ActiveConfiguration.ReadOnly) {
    3b96:	80 91 61 21 	lds	r24, 0x2161	; 0x802161 <ActiveConfiguration+0x17>
    3b9a:	81 11       	cpse	r24, r1
                    MemoryWriteBlock(BlockBuffer, (uint16_t) Buffer[1] * MEM_BYTES_PER_BLOCK, MEM_BYTES_PER_BLOCK );
    3b9c:	b9 cf       	rjmp	.-142    	; 0x3b10 <MifareClassicAppProcess+0x55c>
    3b9e:	d8 01       	movw	r26, r16
    3ba0:	11 96       	adiw	r26, 0x01	; 1
    3ba2:	6c 91       	ld	r22, X
    3ba4:	b0 e1       	ldi	r27, 0x10	; 16
    3ba6:	6b 9f       	mul	r22, r27
    3ba8:	b0 01       	movw	r22, r0
    3baa:	11 24       	eor	r1, r1
    3bac:	40 e1       	ldi	r20, 0x10	; 16
    3bae:	50 e0       	ldi	r21, 0x00	; 0
    3bb0:	89 e1       	ldi	r24, 0x19	; 25
    3bb2:	91 e2       	ldi	r25, 0x21	; 33
    3bb4:	0e 94 c8 09 	call	0x1390	; 0x1390 <MemoryWriteBlock>
                Buffer[0] = NAK_CRC_ERROR ^ Crypto1Nibble();
    3bb8:	ab cf       	rjmp	.-170    	; 0x3b10 <MifareClassicAppProcess+0x55c>
    3bba:	a4 d6       	rcall	.+3400   	; 0x4904 <Crypto1Nibble>
    3bbc:	91 e0       	ldi	r25, 0x01	; 1
        } else if ( (Buffer[0] == CMD_AUTH_A) || (Buffer[0] == CMD_AUTH_B) ) {
    3bbe:	be cf       	rjmp	.-132    	; 0x3b3c <MifareClassicAppProcess+0x588>
    3bc0:	80 56       	subi	r24, 0x60	; 96
    3bc2:	82 30       	cpi	r24, 0x02	; 2
    3bc4:	08 f0       	brcs	.+2      	; 0x3bc8 <MifareClassicAppProcess+0x614>
            if (ISO14443ACheckCRCA(Buffer, CMD_AUTH_FRAME_SIZE)) {
    3bc6:	43 cf       	rjmp	.-378    	; 0x3a4e <MifareClassicAppProcess+0x49a>
    3bc8:	62 e0       	ldi	r22, 0x02	; 2
    3bca:	70 e0       	ldi	r23, 0x00	; 0
    3bcc:	c8 01       	movw	r24, r16
    3bce:	90 d5       	rcall	.+2848   	; 0x46f0 <ISO14443ACheckCRCA>
    3bd0:	88 23       	and	r24, r24
    3bd2:	09 f4       	brne	.+2      	; 0x3bd6 <MifareClassicAppProcess+0x622>
    3bd4:	66 c0       	rjmp	.+204    	; 0x3ca2 <MifareClassicAppProcess+0x6ee>
                uint8_t SectorAddress = Buffer[1] & MEM_SECTOR_ADDR_MASK;
    3bd6:	f8 01       	movw	r30, r16
    3bd8:	91 81       	ldd	r25, Z+1	; 0x01
    3bda:	9c 7f       	andi	r25, 0xFC	; 252
                uint8_t KeyOffset = (Buffer[0] == CMD_AUTH_A ? MEM_KEY_A_OFFSET : MEM_KEY_B_OFFSET);
    3bdc:	80 81       	ld	r24, Z
    3bde:	00 e3       	ldi	r16, 0x30	; 48
    3be0:	80 36       	cpi	r24, 0x60	; 96
    3be2:	09 f0       	breq	.+2      	; 0x3be6 <MifareClassicAppProcess+0x632>
    3be4:	0a e3       	ldi	r16, 0x3A	; 58
                uint16_t KeyAddress = (uint16_t) SectorAddress * MEM_BYTES_PER_BLOCK + KeyOffset;
    3be6:	f0 e1       	ldi	r31, 0x10	; 16
    3be8:	9f 9f       	mul	r25, r31
    3bea:	c0 01       	movw	r24, r0
    3bec:	11 24       	eor	r1, r1
    3bee:	08 0f       	add	r16, r24
    3bf0:	19 2f       	mov	r17, r25
    3bf2:	11 1d       	adc	r17, r1
				uint8_t CardNonce[4] = {0x01};
    3bf4:	1f 82       	std	Y+7, r1	; 0x07
    3bf6:	18 86       	std	Y+8, r1	; 0x08
    3bf8:	19 86       	std	Y+9, r1	; 0x09
    3bfa:	1a 86       	std	Y+10, r1	; 0x0a
    3bfc:	81 e0       	ldi	r24, 0x01	; 1
    3bfe:	8f 83       	std	Y+7, r24	; 0x07
                if (_7BUID)
    3c00:	80 91 15 21 	lds	r24, 0x2115	; 0x802115 <_7BUID>
					MemoryReadBlock(Uid, MEM_UID_CL2_ADDRESS, MEM_UID_CL2_SIZE);
    3c04:	44 e0       	ldi	r20, 0x04	; 4
    3c06:	50 e0       	ldi	r21, 0x00	; 0
    3c08:	63 e0       	ldi	r22, 0x03	; 3
    3c0a:	70 e0       	ldi	r23, 0x00	; 0
                if (_7BUID)
    3c0c:	81 11       	cpse	r24, r1
    3c0e:	02 c0       	rjmp	.+4      	; 0x3c14 <MifareClassicAppProcess+0x660>
                    MemoryReadBlock(Uid, MEM_UID_CL1_ADDRESS, MEM_UID_CL1_SIZE);
    3c10:	70 e0       	ldi	r23, 0x00	; 0
    3c12:	60 e0       	ldi	r22, 0x00	; 0
    3c14:	ce 01       	movw	r24, r28
    3c16:	0b 96       	adiw	r24, 0x0b	; 11
    3c18:	0e 94 3f 09 	call	0x127e	; 0x127e <MemoryReadBlock>
                MemoryReadBlock(Key, KeyAddress, MEM_KEY_SIZE);
    3c1c:	46 e0       	ldi	r20, 0x06	; 6
    3c1e:	50 e0       	ldi	r21, 0x00	; 0
    3c20:	b8 01       	movw	r22, r16
    3c22:	ce 01       	movw	r24, r28
    3c24:	01 96       	adiw	r24, 0x01	; 1
    3c26:	0e 94 3f 09 	call	0x127e	; 0x127e <MemoryReadBlock>
                    ReaderResponse[i] = CardNonce[i];
    3c2a:	8f 81       	ldd	r24, Y+7	; 0x07
    3c2c:	80 93 2a 21 	sts	0x212A, r24	; 0x80212a <ReaderResponse>
    3c30:	88 85       	ldd	r24, Y+8	; 0x08
    3c32:	80 93 2b 21 	sts	0x212B, r24	; 0x80212b <ReaderResponse+0x1>
    3c36:	89 85       	ldd	r24, Y+9	; 0x09
    3c38:	80 93 2c 21 	sts	0x212C, r24	; 0x80212c <ReaderResponse+0x2>
    3c3c:	8a 85       	ldd	r24, Y+10	; 0x0a
    3c3e:	80 93 2d 21 	sts	0x212D, r24	; 0x80212d <ReaderResponse+0x3>
                Crypto1PRNG(ReaderResponse, 64);
    3c42:	60 e4       	ldi	r22, 0x40	; 64
    3c44:	70 e0       	ldi	r23, 0x00	; 0
    3c46:	8a e2       	ldi	r24, 0x2A	; 42
    3c48:	91 e2       	ldi	r25, 0x21	; 33
    3c4a:	6d d6       	rcall	.+3290   	; 0x4926 <Crypto1PRNG>
                    CardResponse[i] = ReaderResponse[i];
    3c4c:	80 91 2a 21 	lds	r24, 0x212A	; 0x80212a <ReaderResponse>
    3c50:	80 93 2e 21 	sts	0x212E, r24	; 0x80212e <CardResponse>
    3c54:	80 91 2b 21 	lds	r24, 0x212B	; 0x80212b <ReaderResponse+0x1>
    3c58:	80 93 2f 21 	sts	0x212F, r24	; 0x80212f <CardResponse+0x1>
    3c5c:	80 91 2c 21 	lds	r24, 0x212C	; 0x80212c <ReaderResponse+0x2>
    3c60:	80 93 30 21 	sts	0x2130, r24	; 0x802130 <CardResponse+0x2>
    3c64:	80 91 2d 21 	lds	r24, 0x212D	; 0x80212d <ReaderResponse+0x3>
                Crypto1PRNG(CardResponse, 32);
    3c68:	80 93 31 21 	sts	0x2131, r24	; 0x802131 <CardResponse+0x3>
    3c6c:	60 e2       	ldi	r22, 0x20	; 32
    3c6e:	70 e0       	ldi	r23, 0x00	; 0
    3c70:	8e e2       	ldi	r24, 0x2E	; 46
    3c72:	91 e2       	ldi	r25, 0x21	; 33
                Crypto1Setup(Key, Uid, CardNonce);
    3c74:	58 d6       	rcall	.+3248   	; 0x4926 <Crypto1PRNG>
    3c76:	ae 01       	movw	r20, r28
    3c78:	49 5f       	subi	r20, 0xF9	; 249
    3c7a:	5f 4f       	sbci	r21, 0xFF	; 255
    3c7c:	be 01       	movw	r22, r28
    3c7e:	65 5f       	subi	r22, 0xF5	; 245
    3c80:	7f 4f       	sbci	r23, 0xFF	; 255
    3c82:	ce 01       	movw	r24, r28
    3c84:	01 96       	adiw	r24, 0x01	; 1
    3c86:	83 d5       	rcall	.+2822   	; 0x478e <Crypto1Setup>
                    Buffer[i] = CardNonce[i];
    3c88:	fe 01       	movw	r30, r28
    3c8a:	37 96       	adiw	r30, 0x07	; 7
    3c8c:	81 91       	ld	r24, Z+
    3c8e:	d7 01       	movw	r26, r14
                for (uint8_t i=0; i<sizeof(CardNonce); i++)
    3c90:	8d 93       	st	X+, r24
    3c92:	7d 01       	movw	r14, r26
    3c94:	ca 16       	cp	r12, r26
                State = STATE_AUTHING;
    3c96:	db 06       	cpc	r13, r27
    3c98:	c9 f7       	brne	.-14     	; 0x3c8c <MifareClassicAppProcess+0x6d8>
    3c9a:	87 e0       	ldi	r24, 0x07	; 7
    3c9c:	80 93 32 21 	sts	0x2132, r24	; 0x802132 <State>
                Buffer[0] = NAK_CRC_ERROR ^ Crypto1Nibble();
    3ca0:	c3 ce       	rjmp	.-634    	; 0x3a28 <MifareClassicAppProcess+0x474>
    3ca2:	30 d6       	rcall	.+3168   	; 0x4904 <Crypto1Nibble>
    3ca4:	91 e0       	ldi	r25, 0x01	; 1
    3ca6:	36 cf       	rjmp	.-404    	; 0x3b14 <MifareClassicAppProcess+0x560>
    3ca8:	78 01       	movw	r14, r16
    3caa:	68 01       	movw	r12, r16
    3cac:	f2 e1       	ldi	r31, 0x12	; 18
            Buffer[i] ^= Crypto1Byte();
    3cae:	cf 0e       	add	r12, r31
    3cb0:	d1 1c       	adc	r13, r1
    3cb2:	17 d6       	rcall	.+3118   	; 0x48e2 <Crypto1Byte>
    3cb4:	d7 01       	movw	r26, r14
    3cb6:	9d 91       	ld	r25, X+
    3cb8:	7d 01       	movw	r14, r26
    3cba:	fd 01       	movw	r30, r26
    3cbc:	31 97       	sbiw	r30, 0x01	; 1
    3cbe:	89 27       	eor	r24, r25
        for (uint8_t i=0; i<(MEM_BYTES_PER_BLOCK + ISO14443A_CRCA_SIZE); i++)
    3cc0:	80 83       	st	Z, r24
    3cc2:	ac 15       	cp	r26, r12
        if (ISO14443ACheckCRCA(Buffer, MEM_BYTES_PER_BLOCK)) {
    3cc4:	bd 05       	cpc	r27, r13
    3cc6:	a9 f7       	brne	.-22     	; 0x3cb2 <MifareClassicAppProcess+0x6fe>
    3cc8:	60 e1       	ldi	r22, 0x10	; 16
    3cca:	70 e0       	ldi	r23, 0x00	; 0
    3ccc:	c8 01       	movw	r24, r16
    3cce:	10 d5       	rcall	.+2592   	; 0x46f0 <ISO14443ACheckCRCA>
    3cd0:	88 23       	and	r24, r24
            if (!ActiveConfiguration.ReadOnly) {
    3cd2:	c1 f0       	breq	.+48     	; 0x3d04 <MifareClassicAppProcess+0x750>
    3cd4:	80 91 61 21 	lds	r24, 0x2161	; 0x802161 <ActiveConfiguration+0x17>
                MemoryWriteBlock(Buffer, CurrentAddress * MEM_BYTES_PER_BLOCK, MEM_BYTES_PER_BLOCK);
    3cd8:	81 11       	cpse	r24, r1
    3cda:	0b c0       	rjmp	.+22     	; 0x3cf2 <MifareClassicAppProcess+0x73e>
    3cdc:	60 91 29 21 	lds	r22, 0x2129	; 0x802129 <CurrentAddress>
    3ce0:	b0 e1       	ldi	r27, 0x10	; 16
    3ce2:	6b 9f       	mul	r22, r27
    3ce4:	b0 01       	movw	r22, r0
    3ce6:	11 24       	eor	r1, r1
    3ce8:	40 e1       	ldi	r20, 0x10	; 16
    3cea:	50 e0       	ldi	r21, 0x00	; 0
    3cec:	c8 01       	movw	r24, r16
            Buffer[0] = ACK_VALUE ^ Crypto1Nibble();
    3cee:	0e 94 c8 09 	call	0x1390	; 0x1390 <MemoryWriteBlock>
    3cf2:	08 d6       	rcall	.+3088   	; 0x4904 <Crypto1Nibble>
    3cf4:	9a e0       	ldi	r25, 0x0A	; 10
    3cf6:	89 27       	eor	r24, r25
    3cf8:	f8 01       	movw	r30, r16
        State = STATE_AUTHED_IDLE;
    3cfa:	80 83       	st	Z, r24
    3cfc:	88 e0       	ldi	r24, 0x08	; 8
    3cfe:	80 93 32 21 	sts	0x2132, r24	; 0x802132 <State>
            Buffer[0] = NAK_CRC_ERROR ^ Crypto1Nibble();
    3d02:	1f ce       	rjmp	.-962    	; 0x3942 <MifareClassicAppProcess+0x38e>
    3d04:	ff d5       	rcall	.+3070   	; 0x4904 <Crypto1Nibble>
    3d06:	91 e0       	ldi	r25, 0x01	; 1
    3d08:	89 27       	eor	r24, r25
    3d0a:	d8 01       	movw	r26, r16
    3d0c:	8c 93       	st	X, r24
    3d0e:	f6 cf       	rjmp	.-20     	; 0x3cfc <MifareClassicAppProcess+0x748>
    *Value |= ((uint32_t) Block[3] << 24);
    3d10:	80 91 19 21 	lds	r24, 0x2119	; 0x802119 <BlockBuffer>
    3d14:	90 91 1a 21 	lds	r25, 0x211A	; 0x80211a <BlockBuffer+0x1>
    3d18:	a0 91 1b 21 	lds	r26, 0x211B	; 0x80211b <BlockBuffer+0x2>
    3d1c:	b0 91 1c 21 	lds	r27, 0x211C	; 0x80211c <BlockBuffer+0x3>
    3d20:	f8 01       	movw	r30, r16
    3d22:	40 81       	ld	r20, Z
    3d24:	51 81       	ldd	r21, Z+1	; 0x01
    3d26:	62 81       	ldd	r22, Z+2	; 0x02
    3d28:	73 81       	ldd	r23, Z+3	; 0x03
                if (State == STATE_DECREMENT) {
    3d2a:	20 91 32 21 	lds	r18, 0x2132	; 0x802132 <State>
    3d2e:	2b 30       	cpi	r18, 0x0B	; 11
    3d30:	89 f5       	brne	.+98     	; 0x3d94 <MifareClassicAppProcess+0x7e0>
                    BlockValue -= ParamValue;
    3d32:	84 1b       	sub	r24, r20
    3d34:	95 0b       	sbc	r25, r21
    3d36:	a6 0b       	sbc	r26, r22
    3d38:	b7 0b       	sbc	r27, r23
    Block[0] = (uint8_t) (Value >> 0);
    3d3a:	80 93 19 21 	sts	0x2119, r24	; 0x802119 <BlockBuffer>
    Block[1] = (uint8_t) (Value >> 8);
    3d3e:	c9 2e       	mov	r12, r25
    3d40:	da 2e       	mov	r13, r26
    3d42:	eb 2e       	mov	r14, r27
    3d44:	ff 24       	eor	r15, r15
    3d46:	c0 92 1a 21 	sts	0x211A, r12	; 0x80211a <BlockBuffer+0x1>
    Block[2] = (uint8_t) (Value >> 16);
    3d4a:	8d 01       	movw	r16, r26
    3d4c:	22 27       	eor	r18, r18
    3d4e:	33 27       	eor	r19, r19
    3d50:	00 93 1b 21 	sts	0x211B, r16	; 0x80211b <BlockBuffer+0x2>
    Block[3] = (uint8_t) (Value >> 24);
    3d54:	4b 2f       	mov	r20, r27
    3d56:	55 27       	eor	r21, r21
    3d58:	66 27       	eor	r22, r22
    3d5a:	77 27       	eor	r23, r23
    3d5c:	40 93 1c 21 	sts	0x211C, r20	; 0x80211c <BlockBuffer+0x3>
    Block[4] = ~Block[0];
    3d60:	e8 2f       	mov	r30, r24
    3d62:	e0 95       	com	r30
    3d64:	e0 93 1d 21 	sts	0x211D, r30	; 0x80211d <BlockBuffer+0x4>
    Block[5] = ~Block[1];
    3d68:	ec 2d       	mov	r30, r12
    3d6a:	e0 95       	com	r30
    3d6c:	e0 93 1e 21 	sts	0x211E, r30	; 0x80211e <BlockBuffer+0x5>
    Block[6] = ~Block[2];
    3d70:	e0 2f       	mov	r30, r16
    3d72:	e0 95       	com	r30
    3d74:	e0 93 1f 21 	sts	0x211F, r30	; 0x80211f <BlockBuffer+0x6>
    Block[7] = ~Block[3];
    3d78:	e4 2f       	mov	r30, r20
    3d7a:	e0 95       	com	r30
    3d7c:	e0 93 20 21 	sts	0x2120, r30	; 0x802120 <BlockBuffer+0x7>
    Block[8] = Block[0];
    3d80:	80 93 21 21 	sts	0x2121, r24	; 0x802121 <BlockBuffer+0x8>
    Block[9] = Block[1];
    3d84:	c0 92 22 21 	sts	0x2122, r12	; 0x802122 <BlockBuffer+0x9>
    Block[10] = Block[2];
    3d88:	00 93 23 21 	sts	0x2123, r16	; 0x802123 <BlockBuffer+0xa>
    Block[11] = Block[3];
    3d8c:	40 93 24 21 	sts	0x2124, r20	; 0x802124 <BlockBuffer+0xb>
                State = STATE_AUTHED_IDLE;
    3d90:	88 e0       	ldi	r24, 0x08	; 8
    3d92:	5e ce       	rjmp	.-836    	; 0x3a50 <MifareClassicAppProcess+0x49c>
                } else if (State == STATE_INCREMENT) {
    3d94:	2a 30       	cpi	r18, 0x0A	; 10
    3d96:	89 f6       	brne	.-94     	; 0x3d3a <MifareClassicAppProcess+0x786>
                    BlockValue += ParamValue;
    3d98:	84 0f       	add	r24, r20
    3d9a:	95 1f       	adc	r25, r21
    3d9c:	a6 1f       	adc	r26, r22
    3d9e:	b7 1f       	adc	r27, r23
    3da0:	cc cf       	rjmp	.-104    	; 0x3d3a <MifareClassicAppProcess+0x786>
    switch(State) {
    3da2:	87 30       	cpi	r24, 0x07	; 7
    3da4:	09 f4       	brne	.+2      	; 0x3da8 <MifareClassicAppProcess+0x7f4>
    3da6:	57 ce       	rjmp	.-850    	; 0x3a56 <MifareClassicAppProcess+0x4a2>
    3da8:	08 f0       	brcs	.+2      	; 0x3dac <MifareClassicAppProcess+0x7f8>
    3daa:	86 c0       	rjmp	.+268    	; 0x3eb8 <MifareClassicAppProcess+0x904>
    3dac:	85 30       	cpi	r24, 0x05	; 5
    3dae:	09 f4       	brne	.+2      	; 0x3db2 <MifareClassicAppProcess+0x7fe>
    3db0:	63 cd       	rjmp	.-1338   	; 0x3878 <MifareClassicAppProcess+0x2c4>
    3db2:	08 f0       	brcs	.+2      	; 0x3db6 <MifareClassicAppProcess+0x802>
    3db4:	aa cd       	rjmp	.-1196   	; 0x390a <MifareClassicAppProcess+0x356>
    3db6:	84 30       	cpi	r24, 0x04	; 4
    3db8:	09 f0       	breq	.+2      	; 0x3dbc <MifareClassicAppProcess+0x808>
    3dba:	55 cc       	rjmp	.-1878   	; 0x3666 <MifareClassicAppProcess+0xb2>
    if ( ((! FromHalt) && (DataPtr[0] == ISO14443A_CMD_REQA)) ||
    3dbc:	f8 01       	movw	r30, r16
    3dbe:	80 81       	ld	r24, Z
    3dc0:	86 32       	cpi	r24, 0x26	; 38
    3dc2:	09 f4       	brne	.+2      	; 0x3dc6 <MifareClassicAppProcess+0x812>
    3dc4:	b7 cd       	rjmp	.-1170   	; 0x3934 <MifareClassicAppProcess+0x380>
    3dc6:	82 35       	cpi	r24, 0x52	; 82
    3dc8:	09 f4       	brne	.+2      	; 0x3dcc <MifareClassicAppProcess+0x818>
    3dca:	b4 cd       	rjmp	.-1176   	; 0x3934 <MifareClassicAppProcess+0x380>
        } else if (Buffer[0] == ISO14443A_CMD_SELECT_CL1) {
    3dcc:	83 39       	cpi	r24, 0x93	; 147
    3dce:	09 f0       	breq	.+2      	; 0x3dd2 <MifareClassicAppProcess+0x81e>
    3dd0:	50 cd       	rjmp	.-1376   	; 0x3872 <MifareClassicAppProcess+0x2be>
            if (_7BUID) {
    3dd2:	80 91 15 21 	lds	r24, 0x2115	; 0x802115 <_7BUID>
    3dd6:	88 23       	and	r24, r24
    3dd8:	09 f4       	brne	.+2      	; 0x3ddc <MifareClassicAppProcess+0x828>
    3dda:	ea cc       	rjmp	.-1580   	; 0x37b0 <MifareClassicAppProcess+0x1fc>
	            MemoryReadBlock(&UidCL1[1], MEM_UID_CL1_ADDRESS, MEM_UID_CL1_SIZE-1);
    3ddc:	43 e0       	ldi	r20, 0x03	; 3
    3dde:	50 e0       	ldi	r21, 0x00	; 0
    3de0:	70 e0       	ldi	r23, 0x00	; 0
    3de2:	60 e0       	ldi	r22, 0x00	; 0
    3de4:	ce 01       	movw	r24, r28
    3de6:	02 96       	adiw	r24, 0x02	; 2
    3de8:	0e 94 3f 09 	call	0x127e	; 0x127e <MemoryReadBlock>
	            UidCL1[0] = ISO14443A_UID0_CT;
    3dec:	28 e8       	ldi	r18, 0x88	; 136
    3dee:	29 83       	std	Y+1, r18	; 0x01
    uint8_t NVB = DataPtr[1];
    3df0:	f8 01       	movw	r30, r16
    3df2:	91 81       	ldd	r25, Z+1	; 0x01
    switch (NVB) {
    3df4:	90 32       	cpi	r25, 0x20	; 32
    3df6:	09 f4       	brne	.+2      	; 0x3dfa <MifareClassicAppProcess+0x846>
    3df8:	49 c0       	rjmp	.+146    	; 0x3e8c <MifareClassicAppProcess+0x8d8>
    3dfa:	90 37       	cpi	r25, 0x70	; 112
    3dfc:	09 f4       	brne	.+2      	; 0x3e00 <MifareClassicAppProcess+0x84c>
    3dfe:	9b cc       	rjmp	.-1738   	; 0x3736 <MifareClassicAppProcess+0x182>
        uint8_t CollisionByteCount = ((NVB >> 4) & 0x0f) - 2;
    3e00:	c9 2e       	mov	r12, r25
    3e02:	c2 94       	swap	r12
    3e04:	7f e0       	ldi	r23, 0x0F	; 15
    3e06:	c7 22       	and	r12, r23
    3e08:	ca 94       	dec	r12
    3e0a:	ca 94       	dec	r12
        uint8_t CollisionBitCount  = (NVB >> 0) & 0x0f;
    3e0c:	9f 70       	andi	r25, 0x0F	; 15
    3e0e:	d9 2e       	mov	r13, r25
        uint8_t mask = 0xFF >> (8 - CollisionBitCount);
    3e10:	88 e0       	ldi	r24, 0x08	; 8
    3e12:	90 e0       	ldi	r25, 0x00	; 0
    3e14:	8d 19       	sub	r24, r13
    3e16:	91 09       	sbc	r25, r1
    3e18:	2f ef       	ldi	r18, 0xFF	; 255
    3e1a:	30 e0       	ldi	r19, 0x00	; 0
    3e1c:	79 01       	movw	r14, r18
    3e1e:	02 c0       	rjmp	.+4      	; 0x3e24 <MifareClassicAppProcess+0x870>
    3e20:	f5 94       	asr	r15
    3e22:	e7 94       	ror	r14
    3e24:	8a 95       	dec	r24
    3e26:	e2 f7       	brpl	.-8      	; 0x3e20 <MifareClassicAppProcess+0x86c>
        if (
    3e28:	b5 e0       	ldi	r27, 0x05	; 5
    3e2a:	cb 16       	cp	r12, r27
    3e2c:	29 f0       	breq	.+10     	; 0x3e38 <MifareClassicAppProcess+0x884>
                ((CollisionByteCount == 5 || (CollisionByteCount == 4 && CollisionBitCount > 0)) && memcmp(UidCL, &DataPtr[2], 4) == 0 && (ISO14443A_CALC_BCC(UidCL) & mask) == (DataPtr[6] & mask))
    3e2e:	e4 e0       	ldi	r30, 0x04	; 4
    3e30:	ce 12       	cpse	r12, r30
    3e32:	9d cc       	rjmp	.-1734   	; 0x376e <MifareClassicAppProcess+0x1ba>
    3e34:	dd 20       	and	r13, r13
    3e36:	e9 f0       	breq	.+58     	; 0x3e72 <MifareClassicAppProcess+0x8be>
    3e38:	44 e0       	ldi	r20, 0x04	; 4
    3e3a:	50 e0       	ldi	r21, 0x00	; 0
    3e3c:	b8 01       	movw	r22, r16
    3e3e:	6e 5f       	subi	r22, 0xFE	; 254
    3e40:	7f 4f       	sbci	r23, 0xFF	; 255
    3e42:	ce 01       	movw	r24, r28
    3e44:	01 96       	adiw	r24, 0x01	; 1
    3e46:	0e 94 38 2e 	call	0x5c70	; 0x5c70 <memcmp>
    3e4a:	89 2b       	or	r24, r25
    3e4c:	69 f4       	brne	.+26     	; 0x3e68 <MifareClassicAppProcess+0x8b4>
    3e4e:	8a 81       	ldd	r24, Y+2	; 0x02
    3e50:	9b 81       	ldd	r25, Y+3	; 0x03
    3e52:	89 27       	eor	r24, r25
    3e54:	98 e8       	ldi	r25, 0x88	; 136
    3e56:	89 27       	eor	r24, r25
    3e58:	9c 81       	ldd	r25, Y+4	; 0x04
    3e5a:	89 27       	eor	r24, r25
    3e5c:	d8 01       	movw	r26, r16
    3e5e:	16 96       	adiw	r26, 0x06	; 6
    3e60:	9c 91       	ld	r25, X
    3e62:	89 27       	eor	r24, r25
    3e64:	8e 21       	and	r24, r14
    3e66:	89 f0       	breq	.+34     	; 0x3e8a <MifareClassicAppProcess+0x8d6>
                ||
    3e68:	b4 e0       	ldi	r27, 0x04	; 4
    3e6a:	cb 12       	cpse	r12, r27
    3e6c:	80 cc       	rjmp	.-1792   	; 0x376e <MifareClassicAppProcess+0x1ba>
                (CollisionByteCount == 4 && CollisionBitCount == 0 && memcmp(UidCL, &DataPtr[2], 4) == 0)
    3e6e:	d1 10       	cpse	r13, r1
    3e70:	fa cb       	rjmp	.-2060   	; 0x3666 <MifareClassicAppProcess+0xb2>
    3e72:	44 e0       	ldi	r20, 0x04	; 4
    3e74:	50 e0       	ldi	r21, 0x00	; 0
    3e76:	b8 01       	movw	r22, r16
    3e78:	6e 5f       	subi	r22, 0xFE	; 254
    3e7a:	7f 4f       	sbci	r23, 0xFF	; 255
    3e7c:	ce 01       	movw	r24, r28
    3e7e:	01 96       	adiw	r24, 0x01	; 1
    3e80:	0e 94 38 2e 	call	0x5c70	; 0x5c70 <memcmp>
    3e84:	89 2b       	or	r24, r25
    3e86:	09 f0       	breq	.+2      	; 0x3e8a <MifareClassicAppProcess+0x8d6>
    3e88:	ee cb       	rjmp	.-2084   	; 0x3666 <MifareClassicAppProcess+0xb2>
            DataPtr[0] = UidCL[0];
    3e8a:	28 e8       	ldi	r18, 0x88	; 136
    3e8c:	d8 01       	movw	r26, r16
    3e8e:	2c 93       	st	X, r18
            DataPtr[1] = UidCL[1];
    3e90:	8a 81       	ldd	r24, Y+2	; 0x02
    3e92:	11 96       	adiw	r26, 0x01	; 1
    3e94:	8c 93       	st	X, r24
    3e96:	11 97       	sbiw	r26, 0x01	; 1
            DataPtr[2] = UidCL[2];
    3e98:	3b 81       	ldd	r19, Y+3	; 0x03
    3e9a:	12 96       	adiw	r26, 0x02	; 2
    3e9c:	3c 93       	st	X, r19
            DataPtr[3] = UidCL[3];
    3e9e:	12 97       	sbiw	r26, 0x02	; 2
    3ea0:	9c 81       	ldd	r25, Y+4	; 0x04
    3ea2:	13 96       	adiw	r26, 0x03	; 3
    3ea4:	9c 93       	st	X, r25
            DataPtr[4] = ISO14443A_CALC_BCC(DataPtr);
    3ea6:	13 97       	sbiw	r26, 0x03	; 3
    3ea8:	83 27       	eor	r24, r19
    3eaa:	82 27       	eor	r24, r18
    3eac:	89 27       	eor	r24, r25
    3eae:	14 96       	adiw	r26, 0x04	; 4
            *BitCount = ISO14443A_CL_FRAME_SIZE;
    3eb0:	8c 93       	st	X, r24
    3eb2:	88 e2       	ldi	r24, 0x28	; 40
    3eb4:	90 e0       	ldi	r25, 0x00	; 0
    switch(State) {
    3eb6:	b7 cb       	rjmp	.-2194   	; 0x3626 <MifareClassicAppProcess+0x72>
    3eb8:	89 30       	cpi	r24, 0x09	; 9
    3eba:	09 f4       	brne	.+2      	; 0x3ebe <MifareClassicAppProcess+0x90a>
    3ebc:	f5 ce       	rjmp	.-534    	; 0x3ca8 <MifareClassicAppProcess+0x6f4>
    3ebe:	08 f4       	brcc	.+2      	; 0x3ec2 <MifareClassicAppProcess+0x90e>
    3ec0:	df cb       	rjmp	.-2114   	; 0x3680 <MifareClassicAppProcess+0xcc>
    3ec2:	8d 30       	cpi	r24, 0x0D	; 13
    3ec4:	08 f0       	brcs	.+2      	; 0x3ec8 <MifareClassicAppProcess+0x914>
    3ec6:	cf cb       	rjmp	.-2146   	; 0x3666 <MifareClassicAppProcess+0xb2>
    3ec8:	78 01       	movw	r14, r16
    3eca:	68 01       	movw	r12, r16
    3ecc:	b6 e0       	ldi	r27, 0x06	; 6
            Buffer[i] ^= Crypto1Byte();
    3ece:	cb 0e       	add	r12, r27
    3ed0:	d1 1c       	adc	r13, r1
    3ed2:	07 d5       	rcall	.+2574   	; 0x48e2 <Crypto1Byte>
    3ed4:	f7 01       	movw	r30, r14
    3ed6:	91 91       	ld	r25, Z+
    3ed8:	7f 01       	movw	r14, r30
    3eda:	31 97       	sbiw	r30, 0x01	; 1
    3edc:	89 27       	eor	r24, r25
        for (uint8_t i=0; i<(MEM_VALUE_SIZE  + ISO14443A_CRCA_SIZE); i++)
    3ede:	80 83       	st	Z, r24
    3ee0:	ce 14       	cp	r12, r14
    3ee2:	df 04       	cpc	r13, r15
        if (ISO14443ACheckCRCA(Buffer, MEM_VALUE_SIZE )) {
    3ee4:	b1 f7       	brne	.-20     	; 0x3ed2 <MifareClassicAppProcess+0x91e>
    3ee6:	64 e0       	ldi	r22, 0x04	; 4
    3ee8:	70 e0       	ldi	r23, 0x00	; 0
    3eea:	c8 01       	movw	r24, r16
    3eec:	01 d4       	rcall	.+2050   	; 0x46f0 <ISO14443ACheckCRCA>
    3eee:	88 23       	and	r24, r24
    3ef0:	09 f4       	brne	.+2      	; 0x3ef4 <MifareClassicAppProcess+0x940>
    3ef2:	08 cf       	rjmp	.-496    	; 0x3d04 <MifareClassicAppProcess+0x750>
            MemoryReadBlock(BlockBuffer, (uint16_t) CurrentAddress * MEM_BYTES_PER_BLOCK, MEM_BYTES_PER_BLOCK);
    3ef4:	60 91 29 21 	lds	r22, 0x2129	; 0x802129 <CurrentAddress>
    3ef8:	f0 e1       	ldi	r31, 0x10	; 16
    3efa:	6f 9f       	mul	r22, r31
    3efc:	b0 01       	movw	r22, r0
    3efe:	11 24       	eor	r1, r1
    3f00:	40 e1       	ldi	r20, 0x10	; 16
    3f02:	50 e0       	ldi	r21, 0x00	; 0
    3f04:	89 e1       	ldi	r24, 0x19	; 25
    3f06:	91 e2       	ldi	r25, 0x21	; 33
    3f08:	0e 94 3f 09 	call	0x127e	; 0x127e <MemoryReadBlock>
    if (    (Block[0] == (uint8_t) ~Block[4]) && (Block[0] == Block[8])
    3f0c:	90 91 19 21 	lds	r25, 0x2119	; 0x802119 <BlockBuffer>
    3f10:	80 91 1d 21 	lds	r24, 0x211D	; 0x80211d <BlockBuffer+0x4>
    3f14:	80 95       	com	r24
    3f16:	98 13       	cpse	r25, r24
    3f18:	36 c0       	rjmp	.+108    	; 0x3f86 <MifareClassicAppProcess+0x9d2>
    3f1a:	80 91 21 21 	lds	r24, 0x2121	; 0x802121 <BlockBuffer+0x8>
    3f1e:	98 13       	cpse	r25, r24
    3f20:	32 c0       	rjmp	.+100    	; 0x3f86 <MifareClassicAppProcess+0x9d2>
         && (Block[1] == (uint8_t) ~Block[5]) && (Block[1] == Block[9])
    3f22:	90 91 1a 21 	lds	r25, 0x211A	; 0x80211a <BlockBuffer+0x1>
    3f26:	80 91 1e 21 	lds	r24, 0x211E	; 0x80211e <BlockBuffer+0x5>
    3f2a:	80 95       	com	r24
    3f2c:	98 13       	cpse	r25, r24
    3f2e:	2b c0       	rjmp	.+86     	; 0x3f86 <MifareClassicAppProcess+0x9d2>
    3f30:	80 91 22 21 	lds	r24, 0x2122	; 0x802122 <BlockBuffer+0x9>
    3f34:	98 13       	cpse	r25, r24
    3f36:	27 c0       	rjmp	.+78     	; 0x3f86 <MifareClassicAppProcess+0x9d2>
         && (Block[2] == (uint8_t) ~Block[6]) && (Block[2] == Block[10])
    3f38:	90 91 1b 21 	lds	r25, 0x211B	; 0x80211b <BlockBuffer+0x2>
    3f3c:	80 91 1f 21 	lds	r24, 0x211F	; 0x80211f <BlockBuffer+0x6>
    3f40:	80 95       	com	r24
    3f42:	98 13       	cpse	r25, r24
    3f44:	20 c0       	rjmp	.+64     	; 0x3f86 <MifareClassicAppProcess+0x9d2>
    3f46:	80 91 23 21 	lds	r24, 0x2123	; 0x802123 <BlockBuffer+0xa>
    3f4a:	98 13       	cpse	r25, r24
    3f4c:	1c c0       	rjmp	.+56     	; 0x3f86 <MifareClassicAppProcess+0x9d2>
         && (Block[3] == (uint8_t) ~Block[7]) && (Block[3] == Block[11])
    3f4e:	90 91 1c 21 	lds	r25, 0x211C	; 0x80211c <BlockBuffer+0x3>
    3f52:	80 91 20 21 	lds	r24, 0x2120	; 0x802120 <BlockBuffer+0x7>
    3f56:	80 95       	com	r24
    3f58:	98 13       	cpse	r25, r24
    3f5a:	15 c0       	rjmp	.+42     	; 0x3f86 <MifareClassicAppProcess+0x9d2>
    3f5c:	80 91 24 21 	lds	r24, 0x2124	; 0x802124 <BlockBuffer+0xb>
    3f60:	98 13       	cpse	r25, r24
         && (Block[12] == (uint8_t) ~Block[13])
    3f62:	11 c0       	rjmp	.+34     	; 0x3f86 <MifareClassicAppProcess+0x9d2>
    3f64:	90 91 25 21 	lds	r25, 0x2125	; 0x802125 <BlockBuffer+0xc>
    3f68:	80 91 26 21 	lds	r24, 0x2126	; 0x802126 <BlockBuffer+0xd>
    3f6c:	80 95       	com	r24
    3f6e:	98 13       	cpse	r25, r24
         && (Block[12] == Block[14])
    3f70:	0a c0       	rjmp	.+20     	; 0x3f86 <MifareClassicAppProcess+0x9d2>
    3f72:	80 91 27 21 	lds	r24, 0x2127	; 0x802127 <BlockBuffer+0xe>
    3f76:	98 13       	cpse	r25, r24
         && (Block[14] == (uint8_t) ~Block[15])) {
    3f78:	06 c0       	rjmp	.+12     	; 0x3f86 <MifareClassicAppProcess+0x9d2>
    3f7a:	80 91 28 21 	lds	r24, 0x2128	; 0x802128 <BlockBuffer+0xf>
    3f7e:	80 95       	com	r24
    3f80:	98 17       	cp	r25, r24
    3f82:	09 f4       	brne	.+2      	; 0x3f86 <MifareClassicAppProcess+0x9d2>
                Buffer[0] = NAK_OTHER_ERROR ^ Crypto1Nibble();
    3f84:	c5 ce       	rjmp	.-630    	; 0x3d10 <MifareClassicAppProcess+0x75c>
    3f86:	be d4       	rcall	.+2428   	; 0x4904 <Crypto1Nibble>
    3f88:	96 e0       	ldi	r25, 0x06	; 6
    3f8a:	be ce       	rjmp	.-644    	; 0x3d08 <MifareClassicAppProcess+0x754>

00003f8c <JCOPAppProcess>:
//APDU NOT IMPLEMENTED
uint16_t JCOPAppProcess(uint8_t* Buffer, uint16_t BitCount)
{
    3f8c:	cf 92       	push	r12
    3f8e:	df 92       	push	r13
    3f90:	ef 92       	push	r14
    3f92:	ff 92       	push	r15
    3f94:	0f 93       	push	r16
    3f96:	1f 93       	push	r17
    3f98:	cf 93       	push	r28
    3f9a:	df 93       	push	r29
    3f9c:	00 d0       	rcall	.+0      	; 0x3f9e <JCOPAppProcess+0x12>
    3f9e:	00 d0       	rcall	.+0      	; 0x3fa0 <JCOPAppProcess+0x14>
    3fa0:	cd b7       	in	r28, 0x3d	; 61
    3fa2:	de b7       	in	r29, 0x3e	; 62
    3fa4:	8c 01       	movw	r16, r24
    switch(State) {
    3fa6:	80 91 32 21 	lds	r24, 0x2132	; 0x802132 <State>
    3faa:	84 30       	cpi	r24, 0x04	; 4
    3fac:	09 f4       	brne	.+2      	; 0x3fb0 <JCOPAppProcess+0x24>
    3fae:	49 c0       	rjmp	.+146    	; 0x4042 <JCOPAppProcess+0xb6>
    3fb0:	20 f4       	brcc	.+8      	; 0x3fba <JCOPAppProcess+0x2e>
    3fb2:	82 30       	cpi	r24, 0x02	; 2
    3fb4:	08 f1       	brcs	.+66     	; 0x3ff8 <JCOPAppProcess+0x6c>
            /* Unknown state? Should never happen. */
            break;
    }
    
    /* No response has been sent, when we reach here */
    return ISO14443A_APP_NO_RESPONSE;
    3fb6:	80 e0       	ldi	r24, 0x00	; 0
    3fb8:	37 c0       	rjmp	.+110    	; 0x4028 <JCOPAppProcess+0x9c>
    switch(State) {
    3fba:	86 30       	cpi	r24, 0x06	; 6
    3fbc:	e1 f7       	brne	.-8      	; 0x3fb6 <JCOPAppProcess+0x2a>
            if (ISO14443AWakeUp(Buffer, &BitCount, CardATQAValue, FromHalt)) {
    3fbe:	90 91 14 21 	lds	r25, 0x2114	; 0x802114 <FromHalt>
    3fc2:	f8 01       	movw	r30, r16
    3fc4:	80 81       	ld	r24, Z
    if ( ((! FromHalt) && (DataPtr[0] == ISO14443A_CMD_REQA)) ||
    3fc6:	91 11       	cpse	r25, r1
    3fc8:	03 c0       	rjmp	.+6      	; 0x3fd0 <JCOPAppProcess+0x44>
    3fca:	86 32       	cpi	r24, 0x26	; 38
    3fcc:	09 f4       	brne	.+2      	; 0x3fd0 <JCOPAppProcess+0x44>
    3fce:	f7 c0       	rjmp	.+494    	; 0x41be <JCOPAppProcess+0x232>
    3fd0:	82 35       	cpi	r24, 0x52	; 82
    3fd2:	09 f4       	brne	.+2      	; 0x3fd6 <JCOPAppProcess+0x4a>
    3fd4:	f4 c0       	rjmp	.+488    	; 0x41be <JCOPAppProcess+0x232>
            } else if (Buffer[0] == CMD_HALT) {
    3fd6:	80 35       	cpi	r24, 0x50	; 80
    3fd8:	09 f0       	breq	.+2      	; 0x3fdc <JCOPAppProcess+0x50>
    3fda:	04 c1       	rjmp	.+520    	; 0x41e4 <JCOPAppProcess+0x258>
                if (Buffer[1] == 0) {
    3fdc:	f8 01       	movw	r30, r16
    3fde:	81 81       	ldd	r24, Z+1	; 0x01
    3fe0:	81 11       	cpse	r24, r1
    3fe2:	fe c0       	rjmp	.+508    	; 0x41e0 <JCOPAppProcess+0x254>
                    if (ISO14443ACheckCRCA(Buffer, CMD_HALT_FRAME_SIZE)) {
    3fe4:	62 e0       	ldi	r22, 0x02	; 2
    3fe6:	70 e0       	ldi	r23, 0x00	; 0
    3fe8:	c8 01       	movw	r24, r16
    3fea:	82 d3       	rcall	.+1796   	; 0x46f0 <ISO14443ACheckCRCA>
    3fec:	88 23       	and	r24, r24
    3fee:	09 f4       	brne	.+2      	; 0x3ff2 <JCOPAppProcess+0x66>
    3ff0:	f2 c0       	rjmp	.+484    	; 0x41d6 <JCOPAppProcess+0x24a>
                        State = STATE_HALT;
    3ff2:	10 92 32 21 	sts	0x2132, r1	; 0x802132 <State>
    3ff6:	df cf       	rjmp	.-66     	; 0x3fb6 <JCOPAppProcess+0x2a>
            FromHalt = State == STATE_HALT;
    3ff8:	98 2f       	mov	r25, r24
    3ffa:	90 95       	com	r25
    3ffc:	91 70       	andi	r25, 0x01	; 1
    3ffe:	90 93 14 21 	sts	0x2114, r25	; 0x802114 <FromHalt>
    4002:	f8 01       	movw	r30, r16
    4004:	90 81       	ld	r25, Z
    4006:	88 23       	and	r24, r24
    4008:	11 f0       	breq	.+4      	; 0x400e <JCOPAppProcess+0x82>
    400a:	96 32       	cpi	r25, 0x26	; 38
    400c:	11 f0       	breq	.+4      	; 0x4012 <JCOPAppProcess+0x86>
    400e:	92 35       	cpi	r25, 0x52	; 82
    4010:	91 f6       	brne	.-92     	; 0x3fb6 <JCOPAppProcess+0x2a>
            if (ISO14443AWakeUp(Buffer, &BitCount, CardATQAValue, FromHalt)) {
    4012:	90 91 17 21 	lds	r25, 0x2117	; 0x802117 <CardATQAValue>
    4016:	80 91 18 21 	lds	r24, 0x2118	; 0x802118 <CardATQAValue+0x1>
        DataPtr[0] = (ATQAValue >> 0) & 0x00FF;
    401a:	f8 01       	movw	r30, r16
    401c:	90 83       	st	Z, r25
        DataPtr[1] = (ATQAValue >> 8) & 0x00FF;
    401e:	81 83       	std	Z+1, r24	; 0x01
                State = STATE_READY1;
    4020:	84 e0       	ldi	r24, 0x04	; 4
    4022:	80 93 32 21 	sts	0x2132, r24	; 0x802132 <State>
        *BitCount = ISO14443A_ATQA_FRAME_SIZE;
    4026:	80 e1       	ldi	r24, 0x10	; 16
    return ISO14443A_APP_NO_RESPONSE;
    4028:	90 e0       	ldi	r25, 0x00	; 0
}
    402a:	24 96       	adiw	r28, 0x04	; 4
    402c:	cd bf       	out	0x3d, r28	; 61
    402e:	de bf       	out	0x3e, r29	; 62
    4030:	df 91       	pop	r29
    4032:	cf 91       	pop	r28
    4034:	1f 91       	pop	r17
    4036:	0f 91       	pop	r16
    4038:	ff 90       	pop	r15
    403a:	ef 90       	pop	r14
    403c:	df 90       	pop	r13
    403e:	cf 90       	pop	r12
    4040:	08 95       	ret
            if (ISO14443AWakeUp(Buffer, &BitCount, CardATQAValue, FromHalt)) {
    4042:	80 91 14 21 	lds	r24, 0x2114	; 0x802114 <FromHalt>
    4046:	f8 01       	movw	r30, r16
    4048:	90 81       	ld	r25, Z
    if ( ((! FromHalt) && (DataPtr[0] == ISO14443A_CMD_REQA)) ||
    404a:	81 11       	cpse	r24, r1
    404c:	03 c0       	rjmp	.+6      	; 0x4054 <JCOPAppProcess+0xc8>
    404e:	96 32       	cpi	r25, 0x26	; 38
    4050:	09 f4       	brne	.+2      	; 0x4054 <JCOPAppProcess+0xc8>
    4052:	69 c0       	rjmp	.+210    	; 0x4126 <JCOPAppProcess+0x19a>
    4054:	92 35       	cpi	r25, 0x52	; 82
    4056:	09 f4       	brne	.+2      	; 0x405a <JCOPAppProcess+0xce>
    4058:	66 c0       	rjmp	.+204    	; 0x4126 <JCOPAppProcess+0x19a>
            } else if (Buffer[0] == ISO14443A_CMD_SELECT_CL1) {
    405a:	93 39       	cpi	r25, 0x93	; 147
    405c:	09 f0       	breq	.+2      	; 0x4060 <JCOPAppProcess+0xd4>
    405e:	ac c0       	rjmp	.+344    	; 0x41b8 <JCOPAppProcess+0x22c>
                MemoryReadBlock(UidCL1, MEM_UID_CL1_ADDRESS, MEM_UID_CL1_SIZE);
    4060:	44 e0       	ldi	r20, 0x04	; 4
    4062:	50 e0       	ldi	r21, 0x00	; 0
    4064:	70 e0       	ldi	r23, 0x00	; 0
    4066:	60 e0       	ldi	r22, 0x00	; 0
    4068:	ce 01       	movw	r24, r28
    406a:	01 96       	adiw	r24, 0x01	; 1
    406c:	0e 94 3f 09 	call	0x127e	; 0x127e <MemoryReadBlock>
    uint8_t NVB = DataPtr[1];
    4070:	f8 01       	movw	r30, r16
    4072:	81 81       	ldd	r24, Z+1	; 0x01
    switch (NVB) {
    4074:	80 32       	cpi	r24, 0x20	; 32
    4076:	09 f4       	brne	.+2      	; 0x407a <JCOPAppProcess+0xee>
    4078:	47 c0       	rjmp	.+142    	; 0x4108 <JCOPAppProcess+0x17c>
    407a:	80 37       	cpi	r24, 0x70	; 112
    407c:	09 f4       	brne	.+2      	; 0x4080 <JCOPAppProcess+0xf4>
    407e:	5f c0       	rjmp	.+190    	; 0x413e <JCOPAppProcess+0x1b2>
        uint8_t CollisionByteCount = ((NVB >> 4) & 0x0f) - 2;
    4080:	c8 2e       	mov	r12, r24
    4082:	c2 94       	swap	r12
    4084:	9f e0       	ldi	r25, 0x0F	; 15
    4086:	c9 22       	and	r12, r25
    4088:	ca 94       	dec	r12
    408a:	ca 94       	dec	r12
        uint8_t CollisionBitCount  = (NVB >> 0) & 0x0f;
    408c:	8f 70       	andi	r24, 0x0F	; 15
    408e:	d8 2e       	mov	r13, r24
        uint8_t mask = 0xFF >> (8 - CollisionBitCount);
    4090:	88 e0       	ldi	r24, 0x08	; 8
    4092:	90 e0       	ldi	r25, 0x00	; 0
    4094:	8d 19       	sub	r24, r13
    4096:	91 09       	sbc	r25, r1
    4098:	2f ef       	ldi	r18, 0xFF	; 255
    409a:	30 e0       	ldi	r19, 0x00	; 0
    409c:	79 01       	movw	r14, r18
    409e:	02 c0       	rjmp	.+4      	; 0x40a4 <JCOPAppProcess+0x118>
    40a0:	f5 94       	asr	r15
    40a2:	e7 94       	ror	r14
    40a4:	8a 95       	dec	r24
    40a6:	e2 f7       	brpl	.-8      	; 0x40a0 <JCOPAppProcess+0x114>
        if (
    40a8:	f5 e0       	ldi	r31, 0x05	; 5
    40aa:	cf 16       	cp	r12, r31
    40ac:	29 f0       	breq	.+10     	; 0x40b8 <JCOPAppProcess+0x12c>
                ((CollisionByteCount == 5 || (CollisionByteCount == 4 && CollisionBitCount > 0)) && memcmp(UidCL, &DataPtr[2], 4) == 0 && (ISO14443A_CALC_BCC(UidCL) & mask) == (DataPtr[6] & mask))
    40ae:	84 e0       	ldi	r24, 0x04	; 4
    40b0:	c8 12       	cpse	r12, r24
    40b2:	61 c0       	rjmp	.+194    	; 0x4176 <JCOPAppProcess+0x1ea>
    40b4:	dd 20       	and	r13, r13
    40b6:	e1 f0       	breq	.+56     	; 0x40f0 <JCOPAppProcess+0x164>
    40b8:	44 e0       	ldi	r20, 0x04	; 4
    40ba:	50 e0       	ldi	r21, 0x00	; 0
    40bc:	b8 01       	movw	r22, r16
    40be:	6e 5f       	subi	r22, 0xFE	; 254
    40c0:	7f 4f       	sbci	r23, 0xFF	; 255
    40c2:	ce 01       	movw	r24, r28
    40c4:	01 96       	adiw	r24, 0x01	; 1
    40c6:	0e 94 38 2e 	call	0x5c70	; 0x5c70 <memcmp>
    40ca:	89 2b       	or	r24, r25
    40cc:	61 f4       	brne	.+24     	; 0x40e6 <JCOPAppProcess+0x15a>
    40ce:	89 81       	ldd	r24, Y+1	; 0x01
    40d0:	9a 81       	ldd	r25, Y+2	; 0x02
    40d2:	89 27       	eor	r24, r25
    40d4:	9b 81       	ldd	r25, Y+3	; 0x03
    40d6:	89 27       	eor	r24, r25
    40d8:	9c 81       	ldd	r25, Y+4	; 0x04
    40da:	89 27       	eor	r24, r25
    40dc:	f8 01       	movw	r30, r16
    40de:	96 81       	ldd	r25, Z+6	; 0x06
    40e0:	89 27       	eor	r24, r25
    40e2:	8e 21       	and	r24, r14
    40e4:	89 f0       	breq	.+34     	; 0x4108 <JCOPAppProcess+0x17c>
                ||
    40e6:	f4 e0       	ldi	r31, 0x04	; 4
    40e8:	cf 12       	cpse	r12, r31
    40ea:	45 c0       	rjmp	.+138    	; 0x4176 <JCOPAppProcess+0x1ea>
                (CollisionByteCount == 4 && CollisionBitCount == 0 && memcmp(UidCL, &DataPtr[2], 4) == 0)
    40ec:	d1 10       	cpse	r13, r1
    40ee:	63 cf       	rjmp	.-314    	; 0x3fb6 <JCOPAppProcess+0x2a>
    40f0:	44 e0       	ldi	r20, 0x04	; 4
    40f2:	50 e0       	ldi	r21, 0x00	; 0
    40f4:	b8 01       	movw	r22, r16
    40f6:	6e 5f       	subi	r22, 0xFE	; 254
    40f8:	7f 4f       	sbci	r23, 0xFF	; 255
    40fa:	ce 01       	movw	r24, r28
    40fc:	01 96       	adiw	r24, 0x01	; 1
    40fe:	0e 94 38 2e 	call	0x5c70	; 0x5c70 <memcmp>
    4102:	89 2b       	or	r24, r25
    4104:	09 f0       	breq	.+2      	; 0x4108 <JCOPAppProcess+0x17c>
    4106:	57 cf       	rjmp	.-338    	; 0x3fb6 <JCOPAppProcess+0x2a>
            DataPtr[0] = UidCL[0];
    4108:	89 81       	ldd	r24, Y+1	; 0x01
    410a:	f8 01       	movw	r30, r16
    410c:	80 83       	st	Z, r24
            DataPtr[1] = UidCL[1];
    410e:	3a 81       	ldd	r19, Y+2	; 0x02
    4110:	31 83       	std	Z+1, r19	; 0x01
            DataPtr[2] = UidCL[2];
    4112:	2b 81       	ldd	r18, Y+3	; 0x03
    4114:	22 83       	std	Z+2, r18	; 0x02
            DataPtr[3] = UidCL[3];
    4116:	9c 81       	ldd	r25, Y+4	; 0x04
    4118:	93 83       	std	Z+3, r25	; 0x03
            DataPtr[4] = ISO14443A_CALC_BCC(DataPtr);
    411a:	83 27       	eor	r24, r19
    411c:	82 27       	eor	r24, r18
    411e:	89 27       	eor	r24, r25
    4120:	84 83       	std	Z+4, r24	; 0x04
            *BitCount = ISO14443A_CL_FRAME_SIZE;
    4122:	88 e2       	ldi	r24, 0x28	; 40
    4124:	81 cf       	rjmp	.-254    	; 0x4028 <JCOPAppProcess+0x9c>
            if (ISO14443AWakeUp(Buffer, &BitCount, CardATQAValue, FromHalt)) {
    4126:	20 91 17 21 	lds	r18, 0x2117	; 0x802117 <CardATQAValue>
    412a:	90 91 18 21 	lds	r25, 0x2118	; 0x802118 <CardATQAValue+0x1>
        DataPtr[0] = (ATQAValue >> 0) & 0x00FF;
    412e:	f8 01       	movw	r30, r16
    4130:	20 83       	st	Z, r18
        DataPtr[1] = (ATQAValue >> 8) & 0x00FF;
    4132:	91 83       	std	Z+1, r25	; 0x01
                State = FromHalt ? STATE_HALT : STATE_IDLE;
    4134:	91 e0       	ldi	r25, 0x01	; 1
    4136:	89 27       	eor	r24, r25
                State = STATE_IDLE;
    4138:	80 93 32 21 	sts	0x2132, r24	; 0x802132 <State>
    413c:	3c cf       	rjmp	.-392    	; 0x3fb6 <JCOPAppProcess+0x2a>
        if (    (DataPtr[2] == UidCL[0]) &&
    413e:	92 81       	ldd	r25, Z+2	; 0x02
    4140:	89 81       	ldd	r24, Y+1	; 0x01
    4142:	98 13       	cpse	r25, r24
    4144:	38 cf       	rjmp	.-400    	; 0x3fb6 <JCOPAppProcess+0x2a>
    4146:	93 81       	ldd	r25, Z+3	; 0x03
    4148:	8a 81       	ldd	r24, Y+2	; 0x02
    414a:	98 13       	cpse	r25, r24
    414c:	34 cf       	rjmp	.-408    	; 0x3fb6 <JCOPAppProcess+0x2a>
                (DataPtr[3] == UidCL[1]) &&
    414e:	94 81       	ldd	r25, Z+4	; 0x04
    4150:	8b 81       	ldd	r24, Y+3	; 0x03
    4152:	98 13       	cpse	r25, r24
    4154:	30 cf       	rjmp	.-416    	; 0x3fb6 <JCOPAppProcess+0x2a>
                (DataPtr[4] == UidCL[2]) &&
    4156:	95 81       	ldd	r25, Z+5	; 0x05
    4158:	8c 81       	ldd	r24, Y+4	; 0x04
    415a:	98 13       	cpse	r25, r24
    415c:	2c cf       	rjmp	.-424    	; 0x3fb6 <JCOPAppProcess+0x2a>
            DataPtr[0] = SAKValue;
    415e:	80 91 16 21 	lds	r24, 0x2116	; 0x802116 <CardSAKValue>
    4162:	80 83       	st	Z, r24
            ISO14443AAppendCRCA(Buffer, 1);
    4164:	61 e0       	ldi	r22, 0x01	; 1
    4166:	70 e0       	ldi	r23, 0x00	; 0
    4168:	c8 01       	movw	r24, r16
    416a:	97 d2       	rcall	.+1326   	; 0x469a <ISO14443AAppendCRCA>
                    State = STATE_ACTIVE;
    416c:	86 e0       	ldi	r24, 0x06	; 6
    416e:	80 93 32 21 	sts	0x2132, r24	; 0x802132 <State>
            *BitCount = ISO14443A_SAK_FRAME_SIZE;
    4172:	88 e1       	ldi	r24, 0x18	; 24
    4174:	59 cf       	rjmp	.-334    	; 0x4028 <JCOPAppProcess+0x9c>
                ||
    4176:	83 e0       	ldi	r24, 0x03	; 3
    4178:	8c 15       	cp	r24, r12
    417a:	08 f4       	brcc	.+2      	; 0x417e <JCOPAppProcess+0x1f2>
    417c:	1c cf       	rjmp	.-456    	; 0x3fb6 <JCOPAppProcess+0x2a>
                (CollisionByteCount < 4 && memcmp(UidCL, &DataPtr[2], CollisionByteCount) == 0 && (UidCL[CollisionByteCount] & mask) == (DataPtr[CollisionByteCount + 2] & mask))
    417e:	d1 2c       	mov	r13, r1
    4180:	a6 01       	movw	r20, r12
    4182:	b8 01       	movw	r22, r16
    4184:	6e 5f       	subi	r22, 0xFE	; 254
    4186:	7f 4f       	sbci	r23, 0xFF	; 255
    4188:	ce 01       	movw	r24, r28
    418a:	01 96       	adiw	r24, 0x01	; 1
    418c:	0e 94 38 2e 	call	0x5c70	; 0x5c70 <memcmp>
    4190:	89 2b       	or	r24, r25
    4192:	09 f0       	breq	.+2      	; 0x4196 <JCOPAppProcess+0x20a>
    4194:	10 cf       	rjmp	.-480    	; 0x3fb6 <JCOPAppProcess+0x2a>
    4196:	d8 01       	movw	r26, r16
    4198:	ac 0d       	add	r26, r12
    419a:	bd 1d       	adc	r27, r13
    419c:	e1 e0       	ldi	r30, 0x01	; 1
    419e:	f0 e0       	ldi	r31, 0x00	; 0
    41a0:	ec 0f       	add	r30, r28
    41a2:	fd 1f       	adc	r31, r29
    41a4:	ec 0d       	add	r30, r12
    41a6:	fd 1d       	adc	r31, r13
    41a8:	12 96       	adiw	r26, 0x02	; 2
    41aa:	8c 91       	ld	r24, X
    41ac:	90 81       	ld	r25, Z
    41ae:	89 27       	eor	r24, r25
    41b0:	e8 22       	and	r14, r24
    41b2:	09 f4       	brne	.+2      	; 0x41b6 <JCOPAppProcess+0x22a>
    41b4:	a9 cf       	rjmp	.-174    	; 0x4108 <JCOPAppProcess+0x17c>
    41b6:	ff ce       	rjmp	.-514    	; 0x3fb6 <JCOPAppProcess+0x2a>
                State = STATE_HALT;
    41b8:	10 92 32 21 	sts	0x2132, r1	; 0x802132 <State>
    41bc:	00 cf       	rjmp	.-512    	; 0x3fbe <JCOPAppProcess+0x32>
            if (ISO14443AWakeUp(Buffer, &BitCount, CardATQAValue, FromHalt)) {
    41be:	20 91 17 21 	lds	r18, 0x2117	; 0x802117 <CardATQAValue>
    41c2:	80 91 18 21 	lds	r24, 0x2118	; 0x802118 <CardATQAValue+0x1>
        DataPtr[0] = (ATQAValue >> 0) & 0x00FF;
    41c6:	f8 01       	movw	r30, r16
    41c8:	20 83       	st	Z, r18
        DataPtr[1] = (ATQAValue >> 8) & 0x00FF;
    41ca:	81 83       	std	Z+1, r24	; 0x01
                State = FromHalt ? STATE_HALT : STATE_IDLE;
    41cc:	81 e0       	ldi	r24, 0x01	; 1
    41ce:	98 27       	eor	r25, r24
    41d0:	90 93 32 21 	sts	0x2132, r25	; 0x802132 <State>
    41d4:	f0 ce       	rjmp	.-544    	; 0x3fb6 <JCOPAppProcess+0x2a>
                        Buffer[0] = NAK_CRC_ERROR;
    41d6:	81 e0       	ldi	r24, 0x01	; 1
    41d8:	f8 01       	movw	r30, r16
    41da:	80 83       	st	Z, r24
                    return ACK_NAK_FRAME_SIZE;
    41dc:	84 e0       	ldi	r24, 0x04	; 4
    41de:	24 cf       	rjmp	.-440    	; 0x4028 <JCOPAppProcess+0x9c>
                    Buffer[0] = NAK_INVALID_ARG;
    41e0:	10 82       	st	Z, r1
    41e2:	fc cf       	rjmp	.-8      	; 0x41dc <JCOPAppProcess+0x250>
            else if (Buffer[0] == 0xe0) {
    41e4:	80 3e       	cpi	r24, 0xE0	; 224
    41e6:	69 f4       	brne	.+26     	; 0x4202 <JCOPAppProcess+0x276>
                Buffer[0] = 0x04; Buffer[1]=0x58;  Buffer[2] = 0x80; Buffer[3] = 0x02; Buffer[4] = 0x00; Buffer[5] = 0x00;
    41e8:	84 e0       	ldi	r24, 0x04	; 4
    41ea:	f8 01       	movw	r30, r16
    41ec:	80 83       	st	Z, r24
    41ee:	88 e5       	ldi	r24, 0x58	; 88
    41f0:	81 83       	std	Z+1, r24	; 0x01
    41f2:	80 e8       	ldi	r24, 0x80	; 128
    41f4:	82 83       	std	Z+2, r24	; 0x02
    41f6:	82 e0       	ldi	r24, 0x02	; 2
    41f8:	83 83       	std	Z+3, r24	; 0x03
    41fa:	14 82       	std	Z+4, r1	; 0x04
    41fc:	15 82       	std	Z+5, r1	; 0x05
                return 6;
    41fe:	86 e0       	ldi	r24, 0x06	; 6
    4200:	13 cf       	rjmp	.-474    	; 0x4028 <JCOPAppProcess+0x9c>
                State = STATE_IDLE;
    4202:	81 e0       	ldi	r24, 0x01	; 1
    4204:	99 cf       	rjmp	.-206    	; 0x4138 <JCOPAppProcess+0x1ac>

00004206 <FM11RF005SHAppProcess>:
uint16_t FM11RF005SHAppProcess(uint8_t* Buffer, uint16_t BitCount)
{
    4206:	cf 92       	push	r12
    4208:	df 92       	push	r13
    420a:	ef 92       	push	r14
    420c:	ff 92       	push	r15
    420e:	0f 93       	push	r16
    4210:	1f 93       	push	r17
    4212:	cf 93       	push	r28
    4214:	df 93       	push	r29
    4216:	00 d0       	rcall	.+0      	; 0x4218 <FM11RF005SHAppProcess+0x12>
    4218:	00 d0       	rcall	.+0      	; 0x421a <FM11RF005SHAppProcess+0x14>
    421a:	cd b7       	in	r28, 0x3d	; 61
    421c:	de b7       	in	r29, 0x3e	; 62
    421e:	8c 01       	movw	r16, r24
    switch(State) {
    4220:	80 91 32 21 	lds	r24, 0x2132	; 0x802132 <State>
    4224:	86 30       	cpi	r24, 0x06	; 6
    4226:	09 f4       	brne	.+2      	; 0x422a <FM11RF005SHAppProcess+0x24>
    4228:	4a c1       	rjmp	.+660    	; 0x44be <FM11RF005SHAppProcess+0x2b8>
    422a:	40 f4       	brcc	.+16     	; 0x423c <FM11RF005SHAppProcess+0x36>
    422c:	82 30       	cpi	r24, 0x02	; 2
    422e:	08 f4       	brcc	.+2      	; 0x4232 <FM11RF005SHAppProcess+0x2c>
    4230:	63 c0       	rjmp	.+198    	; 0x42f8 <FM11RF005SHAppProcess+0xf2>
    4232:	84 30       	cpi	r24, 0x04	; 4
    4234:	09 f4       	brne	.+2      	; 0x4238 <FM11RF005SHAppProcess+0x32>
    4236:	86 c0       	rjmp	.+268    	; 0x4344 <FM11RF005SHAppProcess+0x13e>
            /* Unknown state? Should never happen. */
            break;
    }
    
    /* No response has been sent, when we reach here */
    return ISO14443A_APP_NO_RESPONSE;
    4238:	80 e0       	ldi	r24, 0x00	; 0
    423a:	77 c0       	rjmp	.+238    	; 0x432a <FM11RF005SHAppProcess+0x124>
    switch(State) {
    423c:	87 30       	cpi	r24, 0x07	; 7
    423e:	19 f0       	breq	.+6      	; 0x4246 <FM11RF005SHAppProcess+0x40>
    4240:	8a 50       	subi	r24, 0x0A	; 10
    4242:	83 30       	cpi	r24, 0x03	; 3
    4244:	c8 f7       	brcc	.-14     	; 0x4238 <FM11RF005SHAppProcess+0x32>
            if (ISO14443ACheckCRCA(Buffer, MEM_VALUE_SIZE )) {
    4246:	64 e0       	ldi	r22, 0x04	; 4
    4248:	70 e0       	ldi	r23, 0x00	; 0
    424a:	c8 01       	movw	r24, r16
    424c:	51 d2       	rcall	.+1186   	; 0x46f0 <ISO14443ACheckCRCA>
    424e:	88 23       	and	r24, r24
    4250:	09 f4       	brne	.+2      	; 0x4254 <FM11RF005SHAppProcess+0x4e>
    4252:	d6 c1       	rjmp	.+940    	; 0x4600 <FM11RF005SHAppProcess+0x3fa>
                MemoryReadBlock(BlockBuffer, (uint16_t) CurrentAddress * MEM_BYTES_PER_BLOCK, MEM_BYTES_PER_BLOCK);
    4254:	60 91 29 21 	lds	r22, 0x2129	; 0x802129 <CurrentAddress>
    4258:	f0 e1       	ldi	r31, 0x10	; 16
    425a:	6f 9f       	mul	r22, r31
    425c:	b0 01       	movw	r22, r0
    425e:	11 24       	eor	r1, r1
    4260:	40 e1       	ldi	r20, 0x10	; 16
    4262:	50 e0       	ldi	r21, 0x00	; 0
    4264:	89 e1       	ldi	r24, 0x19	; 25
    4266:	91 e2       	ldi	r25, 0x21	; 33
    4268:	0e 94 3f 09 	call	0x127e	; 0x127e <MemoryReadBlock>
    if (    (Block[0] == (uint8_t) ~Block[4]) && (Block[0] == Block[8])
    426c:	90 91 19 21 	lds	r25, 0x2119	; 0x802119 <BlockBuffer>
    4270:	80 91 1d 21 	lds	r24, 0x211D	; 0x80211d <BlockBuffer+0x4>
    4274:	80 95       	com	r24
    4276:	98 13       	cpse	r25, r24
    4278:	36 c0       	rjmp	.+108    	; 0x42e6 <FM11RF005SHAppProcess+0xe0>
    427a:	80 91 21 21 	lds	r24, 0x2121	; 0x802121 <BlockBuffer+0x8>
    427e:	98 13       	cpse	r25, r24
    4280:	32 c0       	rjmp	.+100    	; 0x42e6 <FM11RF005SHAppProcess+0xe0>
         && (Block[1] == (uint8_t) ~Block[5]) && (Block[1] == Block[9])
    4282:	90 91 1a 21 	lds	r25, 0x211A	; 0x80211a <BlockBuffer+0x1>
    4286:	80 91 1e 21 	lds	r24, 0x211E	; 0x80211e <BlockBuffer+0x5>
    428a:	80 95       	com	r24
    428c:	98 13       	cpse	r25, r24
    428e:	2b c0       	rjmp	.+86     	; 0x42e6 <FM11RF005SHAppProcess+0xe0>
    4290:	80 91 22 21 	lds	r24, 0x2122	; 0x802122 <BlockBuffer+0x9>
    4294:	98 13       	cpse	r25, r24
    4296:	27 c0       	rjmp	.+78     	; 0x42e6 <FM11RF005SHAppProcess+0xe0>
         && (Block[2] == (uint8_t) ~Block[6]) && (Block[2] == Block[10])
    4298:	90 91 1b 21 	lds	r25, 0x211B	; 0x80211b <BlockBuffer+0x2>
    429c:	80 91 1f 21 	lds	r24, 0x211F	; 0x80211f <BlockBuffer+0x6>
    42a0:	80 95       	com	r24
    42a2:	98 13       	cpse	r25, r24
    42a4:	20 c0       	rjmp	.+64     	; 0x42e6 <FM11RF005SHAppProcess+0xe0>
    42a6:	80 91 23 21 	lds	r24, 0x2123	; 0x802123 <BlockBuffer+0xa>
    42aa:	98 13       	cpse	r25, r24
    42ac:	1c c0       	rjmp	.+56     	; 0x42e6 <FM11RF005SHAppProcess+0xe0>
         && (Block[3] == (uint8_t) ~Block[7]) && (Block[3] == Block[11])
    42ae:	90 91 1c 21 	lds	r25, 0x211C	; 0x80211c <BlockBuffer+0x3>
    42b2:	80 91 20 21 	lds	r24, 0x2120	; 0x802120 <BlockBuffer+0x7>
    42b6:	80 95       	com	r24
    42b8:	98 13       	cpse	r25, r24
    42ba:	15 c0       	rjmp	.+42     	; 0x42e6 <FM11RF005SHAppProcess+0xe0>
    42bc:	80 91 24 21 	lds	r24, 0x2124	; 0x802124 <BlockBuffer+0xb>
    42c0:	98 13       	cpse	r25, r24
    42c2:	11 c0       	rjmp	.+34     	; 0x42e6 <FM11RF005SHAppProcess+0xe0>
         && (Block[12] == (uint8_t) ~Block[13])
    42c4:	90 91 25 21 	lds	r25, 0x2125	; 0x802125 <BlockBuffer+0xc>
    42c8:	80 91 26 21 	lds	r24, 0x2126	; 0x802126 <BlockBuffer+0xd>
    42cc:	80 95       	com	r24
    42ce:	98 13       	cpse	r25, r24
    42d0:	0a c0       	rjmp	.+20     	; 0x42e6 <FM11RF005SHAppProcess+0xe0>
         && (Block[12] == Block[14])
    42d2:	80 91 27 21 	lds	r24, 0x2127	; 0x802127 <BlockBuffer+0xe>
    42d6:	98 13       	cpse	r25, r24
    42d8:	06 c0       	rjmp	.+12     	; 0x42e6 <FM11RF005SHAppProcess+0xe0>
         && (Block[14] == (uint8_t) ~Block[15])) {
    42da:	80 91 28 21 	lds	r24, 0x2128	; 0x802128 <BlockBuffer+0xf>
    42de:	80 95       	com	r24
    42e0:	98 17       	cp	r25, r24
    42e2:	09 f4       	brne	.+2      	; 0x42e6 <FM11RF005SHAppProcess+0xe0>
                    Buffer[0] = NAK_OTHER_ERROR ^ Crypto1Nibble();
    42e4:	44 c1       	rjmp	.+648    	; 0x456e <FM11RF005SHAppProcess+0x368>
    42e6:	0e d3       	rcall	.+1564   	; 0x4904 <Crypto1Nibble>
    42e8:	96 e0       	ldi	r25, 0x06	; 6
                Buffer[0] = NAK_CRC_ERROR ^ Crypto1Nibble();
    42ea:	89 27       	eor	r24, r25
    42ec:	f8 01       	movw	r30, r16
    42ee:	80 83       	st	Z, r24
            State = STATE_AUTHED_IDLE;
    42f0:	88 e0       	ldi	r24, 0x08	; 8
    42f2:	80 93 32 21 	sts	0x2132, r24	; 0x802132 <State>
    42f6:	0b c1       	rjmp	.+534    	; 0x450e <FM11RF005SHAppProcess+0x308>
            FromHalt = State == STATE_HALT;
    42f8:	98 2f       	mov	r25, r24
    42fa:	90 95       	com	r25
    42fc:	91 70       	andi	r25, 0x01	; 1
    42fe:	90 93 14 21 	sts	0x2114, r25	; 0x802114 <FromHalt>
    4302:	f8 01       	movw	r30, r16
    4304:	90 81       	ld	r25, Z
    if ( ((! FromHalt) && (DataPtr[0] == ISO14443A_CMD_REQA)) ||
    4306:	88 23       	and	r24, r24
    4308:	11 f0       	breq	.+4      	; 0x430e <FM11RF005SHAppProcess+0x108>
    430a:	96 32       	cpi	r25, 0x26	; 38
    430c:	19 f0       	breq	.+6      	; 0x4314 <FM11RF005SHAppProcess+0x10e>
    430e:	92 35       	cpi	r25, 0x52	; 82
    4310:	09 f0       	breq	.+2      	; 0x4314 <FM11RF005SHAppProcess+0x10e>
    4312:	92 cf       	rjmp	.-220    	; 0x4238 <FM11RF005SHAppProcess+0x32>
            if (ISO14443AWakeUp(Buffer, &BitCount, CardATQAValue, FromHalt)) {
    4314:	90 91 17 21 	lds	r25, 0x2117	; 0x802117 <CardATQAValue>
    4318:	80 91 18 21 	lds	r24, 0x2118	; 0x802118 <CardATQAValue+0x1>
        DataPtr[0] = (ATQAValue >> 0) & 0x00FF;
    431c:	f8 01       	movw	r30, r16
    431e:	90 83       	st	Z, r25
        DataPtr[1] = (ATQAValue >> 8) & 0x00FF;
    4320:	81 83       	std	Z+1, r24	; 0x01
                State = STATE_READY1;
    4322:	84 e0       	ldi	r24, 0x04	; 4
    4324:	80 93 32 21 	sts	0x2132, r24	; 0x802132 <State>
        *BitCount = ISO14443A_ATQA_FRAME_SIZE;
    4328:	80 e1       	ldi	r24, 0x10	; 16
    return ISO14443A_APP_NO_RESPONSE;
    432a:	90 e0       	ldi	r25, 0x00	; 0
}
    432c:	24 96       	adiw	r28, 0x04	; 4
    432e:	cd bf       	out	0x3d, r28	; 61
    4330:	de bf       	out	0x3e, r29	; 62
    4332:	df 91       	pop	r29
    4334:	cf 91       	pop	r28
    4336:	1f 91       	pop	r17
    4338:	0f 91       	pop	r16
    433a:	ff 90       	pop	r15
    433c:	ef 90       	pop	r14
    433e:	df 90       	pop	r13
    4340:	cf 90       	pop	r12
    4342:	08 95       	ret
            if (ISO14443AWakeUp(Buffer, &BitCount, CardATQAValue, FromHalt)) {
    4344:	80 91 14 21 	lds	r24, 0x2114	; 0x802114 <FromHalt>
    4348:	f8 01       	movw	r30, r16
    434a:	90 81       	ld	r25, Z
    if ( ((! FromHalt) && (DataPtr[0] == ISO14443A_CMD_REQA)) ||
    434c:	81 11       	cpse	r24, r1
    434e:	03 c0       	rjmp	.+6      	; 0x4356 <FM11RF005SHAppProcess+0x150>
    4350:	96 32       	cpi	r25, 0x26	; 38
    4352:	09 f4       	brne	.+2      	; 0x4356 <FM11RF005SHAppProcess+0x150>
    4354:	69 c0       	rjmp	.+210    	; 0x4428 <FM11RF005SHAppProcess+0x222>
    4356:	92 35       	cpi	r25, 0x52	; 82
    4358:	09 f4       	brne	.+2      	; 0x435c <FM11RF005SHAppProcess+0x156>
    435a:	66 c0       	rjmp	.+204    	; 0x4428 <FM11RF005SHAppProcess+0x222>
            } else if (Buffer[0] == ISO14443A_CMD_SELECT_CL1) {
    435c:	93 39       	cpi	r25, 0x93	; 147
    435e:	09 f0       	breq	.+2      	; 0x4362 <FM11RF005SHAppProcess+0x15c>
    4360:	ac c0       	rjmp	.+344    	; 0x44ba <FM11RF005SHAppProcess+0x2b4>
                MemoryReadBlock(UidCL1, MEM_UID_CL1_ADDRESS, MEM_UID_CL1_SIZE);
    4362:	44 e0       	ldi	r20, 0x04	; 4
    4364:	50 e0       	ldi	r21, 0x00	; 0
    4366:	70 e0       	ldi	r23, 0x00	; 0
    4368:	60 e0       	ldi	r22, 0x00	; 0
    436a:	ce 01       	movw	r24, r28
    436c:	01 96       	adiw	r24, 0x01	; 1
    436e:	0e 94 3f 09 	call	0x127e	; 0x127e <MemoryReadBlock>
    uint8_t NVB = DataPtr[1];
    4372:	f8 01       	movw	r30, r16
    4374:	81 81       	ldd	r24, Z+1	; 0x01
    switch (NVB) {
    4376:	80 32       	cpi	r24, 0x20	; 32
    4378:	09 f4       	brne	.+2      	; 0x437c <FM11RF005SHAppProcess+0x176>
    437a:	47 c0       	rjmp	.+142    	; 0x440a <FM11RF005SHAppProcess+0x204>
    437c:	80 37       	cpi	r24, 0x70	; 112
    437e:	09 f4       	brne	.+2      	; 0x4382 <FM11RF005SHAppProcess+0x17c>
    4380:	5f c0       	rjmp	.+190    	; 0x4440 <FM11RF005SHAppProcess+0x23a>
        uint8_t CollisionByteCount = ((NVB >> 4) & 0x0f) - 2;
    4382:	c8 2e       	mov	r12, r24
    4384:	c2 94       	swap	r12
    4386:	5f e0       	ldi	r21, 0x0F	; 15
    4388:	c5 22       	and	r12, r21
    438a:	ca 94       	dec	r12
    438c:	ca 94       	dec	r12
        uint8_t CollisionBitCount  = (NVB >> 0) & 0x0f;
    438e:	8f 70       	andi	r24, 0x0F	; 15
    4390:	d8 2e       	mov	r13, r24
        uint8_t mask = 0xFF >> (8 - CollisionBitCount);
    4392:	88 e0       	ldi	r24, 0x08	; 8
    4394:	90 e0       	ldi	r25, 0x00	; 0
    4396:	8d 19       	sub	r24, r13
    4398:	91 09       	sbc	r25, r1
    439a:	2f ef       	ldi	r18, 0xFF	; 255
    439c:	30 e0       	ldi	r19, 0x00	; 0
    439e:	79 01       	movw	r14, r18
    43a0:	02 c0       	rjmp	.+4      	; 0x43a6 <FM11RF005SHAppProcess+0x1a0>
    43a2:	f5 94       	asr	r15
    43a4:	e7 94       	ror	r14
    43a6:	8a 95       	dec	r24
    43a8:	e2 f7       	brpl	.-8      	; 0x43a2 <FM11RF005SHAppProcess+0x19c>
        if (
    43aa:	f5 e0       	ldi	r31, 0x05	; 5
    43ac:	cf 16       	cp	r12, r31
    43ae:	29 f0       	breq	.+10     	; 0x43ba <FM11RF005SHAppProcess+0x1b4>
                ((CollisionByteCount == 5 || (CollisionByteCount == 4 && CollisionBitCount > 0)) && memcmp(UidCL, &DataPtr[2], 4) == 0 && (ISO14443A_CALC_BCC(UidCL) & mask) == (DataPtr[6] & mask))
    43b0:	84 e0       	ldi	r24, 0x04	; 4
    43b2:	c8 12       	cpse	r12, r24
    43b4:	61 c0       	rjmp	.+194    	; 0x4478 <FM11RF005SHAppProcess+0x272>
    43b6:	dd 20       	and	r13, r13
    43b8:	e1 f0       	breq	.+56     	; 0x43f2 <FM11RF005SHAppProcess+0x1ec>
    43ba:	44 e0       	ldi	r20, 0x04	; 4
    43bc:	50 e0       	ldi	r21, 0x00	; 0
    43be:	b8 01       	movw	r22, r16
    43c0:	6e 5f       	subi	r22, 0xFE	; 254
    43c2:	7f 4f       	sbci	r23, 0xFF	; 255
    43c4:	ce 01       	movw	r24, r28
    43c6:	01 96       	adiw	r24, 0x01	; 1
    43c8:	0e 94 38 2e 	call	0x5c70	; 0x5c70 <memcmp>
    43cc:	89 2b       	or	r24, r25
    43ce:	61 f4       	brne	.+24     	; 0x43e8 <FM11RF005SHAppProcess+0x1e2>
    43d0:	89 81       	ldd	r24, Y+1	; 0x01
    43d2:	9a 81       	ldd	r25, Y+2	; 0x02
    43d4:	89 27       	eor	r24, r25
    43d6:	9b 81       	ldd	r25, Y+3	; 0x03
    43d8:	89 27       	eor	r24, r25
    43da:	9c 81       	ldd	r25, Y+4	; 0x04
    43dc:	89 27       	eor	r24, r25
    43de:	f8 01       	movw	r30, r16
    43e0:	96 81       	ldd	r25, Z+6	; 0x06
    43e2:	89 27       	eor	r24, r25
    43e4:	8e 21       	and	r24, r14
    43e6:	89 f0       	breq	.+34     	; 0x440a <FM11RF005SHAppProcess+0x204>
                ||
    43e8:	f4 e0       	ldi	r31, 0x04	; 4
    43ea:	cf 12       	cpse	r12, r31
    43ec:	45 c0       	rjmp	.+138    	; 0x4478 <FM11RF005SHAppProcess+0x272>
                (CollisionByteCount == 4 && CollisionBitCount == 0 && memcmp(UidCL, &DataPtr[2], 4) == 0)
    43ee:	d1 10       	cpse	r13, r1
    43f0:	23 cf       	rjmp	.-442    	; 0x4238 <FM11RF005SHAppProcess+0x32>
    43f2:	44 e0       	ldi	r20, 0x04	; 4
    43f4:	50 e0       	ldi	r21, 0x00	; 0
    43f6:	b8 01       	movw	r22, r16
    43f8:	6e 5f       	subi	r22, 0xFE	; 254
    43fa:	7f 4f       	sbci	r23, 0xFF	; 255
    43fc:	ce 01       	movw	r24, r28
    43fe:	01 96       	adiw	r24, 0x01	; 1
    4400:	0e 94 38 2e 	call	0x5c70	; 0x5c70 <memcmp>
    4404:	89 2b       	or	r24, r25
    4406:	09 f0       	breq	.+2      	; 0x440a <FM11RF005SHAppProcess+0x204>
    4408:	17 cf       	rjmp	.-466    	; 0x4238 <FM11RF005SHAppProcess+0x32>
            DataPtr[0] = UidCL[0];
    440a:	89 81       	ldd	r24, Y+1	; 0x01
    440c:	f8 01       	movw	r30, r16
    440e:	80 83       	st	Z, r24
            DataPtr[1] = UidCL[1];
    4410:	3a 81       	ldd	r19, Y+2	; 0x02
    4412:	31 83       	std	Z+1, r19	; 0x01
            DataPtr[2] = UidCL[2];
    4414:	2b 81       	ldd	r18, Y+3	; 0x03
    4416:	22 83       	std	Z+2, r18	; 0x02
            DataPtr[3] = UidCL[3];
    4418:	9c 81       	ldd	r25, Y+4	; 0x04
    441a:	93 83       	std	Z+3, r25	; 0x03
            DataPtr[4] = ISO14443A_CALC_BCC(DataPtr);
    441c:	83 27       	eor	r24, r19
    441e:	82 27       	eor	r24, r18
    4420:	89 27       	eor	r24, r25
    4422:	84 83       	std	Z+4, r24	; 0x04
            *BitCount = ISO14443A_CL_FRAME_SIZE;
    4424:	88 e2       	ldi	r24, 0x28	; 40
    4426:	81 cf       	rjmp	.-254    	; 0x432a <FM11RF005SHAppProcess+0x124>
            if (ISO14443AWakeUp(Buffer, &BitCount, CardATQAValue, FromHalt)) {
    4428:	20 91 17 21 	lds	r18, 0x2117	; 0x802117 <CardATQAValue>
    442c:	90 91 18 21 	lds	r25, 0x2118	; 0x802118 <CardATQAValue+0x1>
        DataPtr[0] = (ATQAValue >> 0) & 0x00FF;
    4430:	f8 01       	movw	r30, r16
    4432:	20 83       	st	Z, r18
        DataPtr[1] = (ATQAValue >> 8) & 0x00FF;
    4434:	91 83       	std	Z+1, r25	; 0x01
                State = FromHalt ? STATE_HALT : STATE_IDLE;
    4436:	91 e0       	ldi	r25, 0x01	; 1
    4438:	89 27       	eor	r24, r25
                    State = STATE_AUTHED_IDLE;
    443a:	80 93 32 21 	sts	0x2132, r24	; 0x802132 <State>
    443e:	fc ce       	rjmp	.-520    	; 0x4238 <FM11RF005SHAppProcess+0x32>
        if (    (DataPtr[2] == UidCL[0]) &&
    4440:	92 81       	ldd	r25, Z+2	; 0x02
    4442:	89 81       	ldd	r24, Y+1	; 0x01
    4444:	98 13       	cpse	r25, r24
    4446:	f8 ce       	rjmp	.-528    	; 0x4238 <FM11RF005SHAppProcess+0x32>
    4448:	93 81       	ldd	r25, Z+3	; 0x03
    444a:	8a 81       	ldd	r24, Y+2	; 0x02
    444c:	98 13       	cpse	r25, r24
    444e:	f4 ce       	rjmp	.-536    	; 0x4238 <FM11RF005SHAppProcess+0x32>
                (DataPtr[3] == UidCL[1]) &&
    4450:	94 81       	ldd	r25, Z+4	; 0x04
    4452:	8b 81       	ldd	r24, Y+3	; 0x03
    4454:	98 13       	cpse	r25, r24
    4456:	f0 ce       	rjmp	.-544    	; 0x4238 <FM11RF005SHAppProcess+0x32>
                (DataPtr[4] == UidCL[2]) &&
    4458:	95 81       	ldd	r25, Z+5	; 0x05
    445a:	8c 81       	ldd	r24, Y+4	; 0x04
    445c:	98 13       	cpse	r25, r24
    445e:	ec ce       	rjmp	.-552    	; 0x4238 <FM11RF005SHAppProcess+0x32>
            DataPtr[0] = SAKValue;
    4460:	80 91 16 21 	lds	r24, 0x2116	; 0x802116 <CardSAKValue>
    4464:	80 83       	st	Z, r24
            ISO14443AAppendCRCA(Buffer, 1);
    4466:	61 e0       	ldi	r22, 0x01	; 1
    4468:	70 e0       	ldi	r23, 0x00	; 0
    446a:	c8 01       	movw	r24, r16
    446c:	16 d1       	rcall	.+556    	; 0x469a <ISO14443AAppendCRCA>
                    State = STATE_ACTIVE;
    446e:	86 e0       	ldi	r24, 0x06	; 6
    4470:	80 93 32 21 	sts	0x2132, r24	; 0x802132 <State>
            *BitCount = ISO14443A_SAK_FRAME_SIZE;
    4474:	88 e1       	ldi	r24, 0x18	; 24
    4476:	59 cf       	rjmp	.-334    	; 0x432a <FM11RF005SHAppProcess+0x124>
                ||
    4478:	83 e0       	ldi	r24, 0x03	; 3
    447a:	8c 15       	cp	r24, r12
    447c:	08 f4       	brcc	.+2      	; 0x4480 <FM11RF005SHAppProcess+0x27a>
    447e:	dc ce       	rjmp	.-584    	; 0x4238 <FM11RF005SHAppProcess+0x32>
                (CollisionByteCount < 4 && memcmp(UidCL, &DataPtr[2], CollisionByteCount) == 0 && (UidCL[CollisionByteCount] & mask) == (DataPtr[CollisionByteCount + 2] & mask))
    4480:	d1 2c       	mov	r13, r1
    4482:	a6 01       	movw	r20, r12
    4484:	b8 01       	movw	r22, r16
    4486:	6e 5f       	subi	r22, 0xFE	; 254
    4488:	7f 4f       	sbci	r23, 0xFF	; 255
    448a:	ce 01       	movw	r24, r28
    448c:	01 96       	adiw	r24, 0x01	; 1
    448e:	0e 94 38 2e 	call	0x5c70	; 0x5c70 <memcmp>
    4492:	89 2b       	or	r24, r25
    4494:	09 f0       	breq	.+2      	; 0x4498 <FM11RF005SHAppProcess+0x292>
    4496:	d0 ce       	rjmp	.-608    	; 0x4238 <FM11RF005SHAppProcess+0x32>
    4498:	d8 01       	movw	r26, r16
    449a:	ac 0d       	add	r26, r12
    449c:	bd 1d       	adc	r27, r13
    449e:	e1 e0       	ldi	r30, 0x01	; 1
    44a0:	f0 e0       	ldi	r31, 0x00	; 0
    44a2:	ec 0f       	add	r30, r28
    44a4:	fd 1f       	adc	r31, r29
    44a6:	ec 0d       	add	r30, r12
    44a8:	fd 1d       	adc	r31, r13
    44aa:	12 96       	adiw	r26, 0x02	; 2
    44ac:	8c 91       	ld	r24, X
    44ae:	90 81       	ld	r25, Z
    44b0:	89 27       	eor	r24, r25
    44b2:	e8 22       	and	r14, r24
    44b4:	09 f4       	brne	.+2      	; 0x44b8 <FM11RF005SHAppProcess+0x2b2>
    44b6:	a9 cf       	rjmp	.-174    	; 0x440a <FM11RF005SHAppProcess+0x204>
    44b8:	bf ce       	rjmp	.-642    	; 0x4238 <FM11RF005SHAppProcess+0x32>
                State = STATE_HALT;
    44ba:	10 92 32 21 	sts	0x2132, r1	; 0x802132 <State>
            if (ISO14443AWakeUp(Buffer, &BitCount, CardATQAValue, FromHalt)) {
    44be:	90 91 14 21 	lds	r25, 0x2114	; 0x802114 <FromHalt>
    44c2:	f8 01       	movw	r30, r16
    44c4:	80 81       	ld	r24, Z
    if ( ((! FromHalt) && (DataPtr[0] == ISO14443A_CMD_REQA)) ||
    44c6:	91 11       	cpse	r25, r1
    44c8:	02 c0       	rjmp	.+4      	; 0x44ce <FM11RF005SHAppProcess+0x2c8>
    44ca:	86 32       	cpi	r24, 0x26	; 38
    44cc:	89 f0       	breq	.+34     	; 0x44f0 <FM11RF005SHAppProcess+0x2ea>
    44ce:	82 35       	cpi	r24, 0x52	; 82
    44d0:	79 f0       	breq	.+30     	; 0x44f0 <FM11RF005SHAppProcess+0x2ea>
            } else if (Buffer[0] == CMD_HALT) {
    44d2:	80 35       	cpi	r24, 0x50	; 80
    44d4:	01 f5       	brne	.+64     	; 0x4516 <FM11RF005SHAppProcess+0x310>
                if (Buffer[1] == 0) {
    44d6:	f8 01       	movw	r30, r16
    44d8:	81 81       	ldd	r24, Z+1	; 0x01
    44da:	81 11       	cpse	r24, r1
    44dc:	1a c0       	rjmp	.+52     	; 0x4512 <FM11RF005SHAppProcess+0x30c>
                    if (ISO14443ACheckCRCA(Buffer, CMD_HALT_FRAME_SIZE)) {
    44de:	62 e0       	ldi	r22, 0x02	; 2
    44e0:	70 e0       	ldi	r23, 0x00	; 0
    44e2:	c8 01       	movw	r24, r16
    44e4:	05 d1       	rcall	.+522    	; 0x46f0 <ISO14443ACheckCRCA>
    44e6:	88 23       	and	r24, r24
    44e8:	79 f0       	breq	.+30     	; 0x4508 <FM11RF005SHAppProcess+0x302>
                        State = STATE_HALT;
    44ea:	10 92 32 21 	sts	0x2132, r1	; 0x802132 <State>
    44ee:	a4 ce       	rjmp	.-696    	; 0x4238 <FM11RF005SHAppProcess+0x32>
            if (ISO14443AWakeUp(Buffer, &BitCount, CardATQAValue, FromHalt)) {
    44f0:	20 91 17 21 	lds	r18, 0x2117	; 0x802117 <CardATQAValue>
    44f4:	80 91 18 21 	lds	r24, 0x2118	; 0x802118 <CardATQAValue+0x1>
        DataPtr[0] = (ATQAValue >> 0) & 0x00FF;
    44f8:	f8 01       	movw	r30, r16
    44fa:	20 83       	st	Z, r18
        DataPtr[1] = (ATQAValue >> 8) & 0x00FF;
    44fc:	81 83       	std	Z+1, r24	; 0x01
                State = FromHalt ? STATE_HALT : STATE_IDLE;
    44fe:	81 e0       	ldi	r24, 0x01	; 1
    4500:	98 27       	eor	r25, r24
    4502:	90 93 32 21 	sts	0x2132, r25	; 0x802132 <State>
    4506:	98 ce       	rjmp	.-720    	; 0x4238 <FM11RF005SHAppProcess+0x32>
                        Buffer[0] = NAK_CRC_ERROR;
    4508:	81 e0       	ldi	r24, 0x01	; 1
    450a:	f8 01       	movw	r30, r16
    450c:	80 83       	st	Z, r24
            return ACK_NAK_FRAME_SIZE;
    450e:	84 e0       	ldi	r24, 0x04	; 4
    4510:	0c cf       	rjmp	.-488    	; 0x432a <FM11RF005SHAppProcess+0x124>
                    Buffer[0] = NAK_INVALID_ARG;
    4512:	10 82       	st	Z, r1
    4514:	fc cf       	rjmp	.-8      	; 0x450e <FM11RF005SHAppProcess+0x308>
            } else if ((Buffer[0] == CMD_READ) && (Buffer[1] == 0x01)) {//READ UID
    4516:	80 33       	cpi	r24, 0x30	; 48
    4518:	c1 f4       	brne	.+48     	; 0x454a <FM11RF005SHAppProcess+0x344>
    451a:	f8 01       	movw	r30, r16
    451c:	81 81       	ldd	r24, Z+1	; 0x01
    451e:	81 30       	cpi	r24, 0x01	; 1
                if (ISO14443ACheckCRCA(Buffer, CMD_READ_FRAME_SIZE)) {
    4520:	21 f5       	brne	.+72     	; 0x456a <FM11RF005SHAppProcess+0x364>
    4522:	62 e0       	ldi	r22, 0x02	; 2
    4524:	70 e0       	ldi	r23, 0x00	; 0
    4526:	c8 01       	movw	r24, r16
    4528:	e3 d0       	rcall	.+454    	; 0x46f0 <ISO14443ACheckCRCA>
    452a:	88 23       	and	r24, r24
    452c:	09 f4       	brne	.+2      	; 0x4530 <FM11RF005SHAppProcess+0x32a>
    452e:	84 ce       	rjmp	.-760    	; 0x4238 <FM11RF005SHAppProcess+0x32>
                    MemoryReadBlock(Buffer, MEM_UID_CL1_ADDRESS, MEM_UID_CL1_SIZE);
    4530:	44 e0       	ldi	r20, 0x04	; 4
    4532:	50 e0       	ldi	r21, 0x00	; 0
    4534:	70 e0       	ldi	r23, 0x00	; 0
    4536:	60 e0       	ldi	r22, 0x00	; 0
    4538:	c8 01       	movw	r24, r16
    453a:	0e 94 3f 09 	call	0x127e	; 0x127e <MemoryReadBlock>
                    ISO14443AAppendCRCA(Buffer, MEM_UID_CL1_SIZE);
    453e:	64 e0       	ldi	r22, 0x04	; 4
    4540:	70 e0       	ldi	r23, 0x00	; 0
    4542:	c8 01       	movw	r24, r16
    4544:	aa d0       	rcall	.+340    	; 0x469a <ISO14443AAppendCRCA>
                    return 48;
    4546:	80 e3       	ldi	r24, 0x30	; 48
            else if ((Buffer[0] == 0x60)) {//READ UID
    4548:	f0 ce       	rjmp	.-544    	; 0x432a <FM11RF005SHAppProcess+0x124>
    454a:	80 36       	cpi	r24, 0x60	; 96
                if (ISO14443ACheckCRCA(Buffer, CMD_READ_FRAME_SIZE)) {
    454c:	71 f4       	brne	.+28     	; 0x456a <FM11RF005SHAppProcess+0x364>
    454e:	62 e0       	ldi	r22, 0x02	; 2
    4550:	70 e0       	ldi	r23, 0x00	; 0
    4552:	c8 01       	movw	r24, r16
    4554:	cd d0       	rcall	.+410    	; 0x46f0 <ISO14443ACheckCRCA>
    4556:	88 23       	and	r24, r24
    4558:	09 f4       	brne	.+2      	; 0x455c <FM11RF005SHAppProcess+0x356>
    455a:	6e ce       	rjmp	.-804    	; 0x4238 <FM11RF005SHAppProcess+0x32>
                    Buffer[0]=0x00;
    455c:	f8 01       	movw	r30, r16
    455e:	10 82       	st	Z, r1
                    Buffer[1]=0x00;
    4560:	11 82       	std	Z+1, r1	; 0x01
                    Buffer[2]=0x00;
    4562:	12 82       	std	Z+2, r1	; 0x02
                    Buffer[3]=0x00;
    4564:	13 82       	std	Z+3, r1	; 0x03
                    return 32;
    4566:	80 e2       	ldi	r24, 0x20	; 32
    4568:	e0 ce       	rjmp	.-576    	; 0x432a <FM11RF005SHAppProcess+0x124>
                State = STATE_IDLE;
    456a:	81 e0       	ldi	r24, 0x01	; 1
    456c:	66 cf       	rjmp	.-308    	; 0x443a <FM11RF005SHAppProcess+0x234>
    *Value |= ((uint32_t) Block[3] << 24);
    456e:	80 91 19 21 	lds	r24, 0x2119	; 0x802119 <BlockBuffer>
    4572:	90 91 1a 21 	lds	r25, 0x211A	; 0x80211a <BlockBuffer+0x1>
    4576:	a0 91 1b 21 	lds	r26, 0x211B	; 0x80211b <BlockBuffer+0x2>
    457a:	b0 91 1c 21 	lds	r27, 0x211C	; 0x80211c <BlockBuffer+0x3>
    457e:	f8 01       	movw	r30, r16
    4580:	40 81       	ld	r20, Z
    4582:	51 81       	ldd	r21, Z+1	; 0x01
    4584:	62 81       	ldd	r22, Z+2	; 0x02
    4586:	73 81       	ldd	r23, Z+3	; 0x03
                    if (State == STATE_DECREMENT) {
    4588:	20 91 32 21 	lds	r18, 0x2132	; 0x802132 <State>
    458c:	2b 30       	cpi	r18, 0x0B	; 11
    458e:	89 f5       	brne	.+98     	; 0x45f2 <FM11RF005SHAppProcess+0x3ec>
                        BlockValue -= ParamValue;
    4590:	84 1b       	sub	r24, r20
    4592:	95 0b       	sbc	r25, r21
    4594:	a6 0b       	sbc	r26, r22
    4596:	b7 0b       	sbc	r27, r23
    Block[0] = (uint8_t) (Value >> 0);
    4598:	80 93 19 21 	sts	0x2119, r24	; 0x802119 <BlockBuffer>
    Block[1] = (uint8_t) (Value >> 8);
    459c:	c9 2e       	mov	r12, r25
    459e:	da 2e       	mov	r13, r26
    45a0:	eb 2e       	mov	r14, r27
    45a2:	ff 24       	eor	r15, r15
    45a4:	c0 92 1a 21 	sts	0x211A, r12	; 0x80211a <BlockBuffer+0x1>
    Block[2] = (uint8_t) (Value >> 16);
    45a8:	8d 01       	movw	r16, r26
    45aa:	22 27       	eor	r18, r18
    45ac:	33 27       	eor	r19, r19
    45ae:	00 93 1b 21 	sts	0x211B, r16	; 0x80211b <BlockBuffer+0x2>
    Block[3] = (uint8_t) (Value >> 24);
    45b2:	4b 2f       	mov	r20, r27
    45b4:	55 27       	eor	r21, r21
    45b6:	66 27       	eor	r22, r22
    45b8:	77 27       	eor	r23, r23
    45ba:	40 93 1c 21 	sts	0x211C, r20	; 0x80211c <BlockBuffer+0x3>
    Block[4] = ~Block[0];
    45be:	e8 2f       	mov	r30, r24
    45c0:	e0 95       	com	r30
    45c2:	e0 93 1d 21 	sts	0x211D, r30	; 0x80211d <BlockBuffer+0x4>
    Block[5] = ~Block[1];
    45c6:	ec 2d       	mov	r30, r12
    45c8:	e0 95       	com	r30
    45ca:	e0 93 1e 21 	sts	0x211E, r30	; 0x80211e <BlockBuffer+0x5>
    Block[6] = ~Block[2];
    45ce:	e0 2f       	mov	r30, r16
    45d0:	e0 95       	com	r30
    45d2:	e0 93 1f 21 	sts	0x211F, r30	; 0x80211f <BlockBuffer+0x6>
    Block[7] = ~Block[3];
    45d6:	e4 2f       	mov	r30, r20
    45d8:	e0 95       	com	r30
    45da:	e0 93 20 21 	sts	0x2120, r30	; 0x802120 <BlockBuffer+0x7>
    Block[8] = Block[0];
    45de:	80 93 21 21 	sts	0x2121, r24	; 0x802121 <BlockBuffer+0x8>
    Block[9] = Block[1];
    45e2:	c0 92 22 21 	sts	0x2122, r12	; 0x802122 <BlockBuffer+0x9>
    Block[10] = Block[2];
    45e6:	00 93 23 21 	sts	0x2123, r16	; 0x802123 <BlockBuffer+0xa>
    Block[11] = Block[3];
    45ea:	40 93 24 21 	sts	0x2124, r20	; 0x802124 <BlockBuffer+0xb>
                    State = STATE_AUTHED_IDLE;
    45ee:	88 e0       	ldi	r24, 0x08	; 8
    45f0:	24 cf       	rjmp	.-440    	; 0x443a <FM11RF005SHAppProcess+0x234>
                    } else if (State == STATE_INCREMENT) {
    45f2:	2a 30       	cpi	r18, 0x0A	; 10
                        BlockValue += ParamValue;
    45f4:	89 f6       	brne	.-94     	; 0x4598 <FM11RF005SHAppProcess+0x392>
    45f6:	84 0f       	add	r24, r20
    45f8:	95 1f       	adc	r25, r21
    45fa:	a6 1f       	adc	r26, r22
    45fc:	b7 1f       	adc	r27, r23
                Buffer[0] = NAK_CRC_ERROR ^ Crypto1Nibble();
    45fe:	cc cf       	rjmp	.-104    	; 0x4598 <FM11RF005SHAppProcess+0x392>
    4600:	81 d1       	rcall	.+770    	; 0x4904 <Crypto1Nibble>
    4602:	91 e0       	ldi	r25, 0x01	; 1
    4604:	72 ce       	rjmp	.-796    	; 0x42ea <FM11RF005SHAppProcess+0xe4>

00004606 <MifareClassicGetUid>:

void MifareClassicGetUid(ConfigurationUidType Uid)
{
    4606:	cf 93       	push	r28
    4608:	df 93       	push	r29
    460a:	ec 01       	movw	r28, r24
	if (_7BUID) {
    460c:	80 91 15 21 	lds	r24, 0x2115	; 0x802115 <_7BUID>
    4610:	88 23       	and	r24, r24
    4612:	89 f0       	breq	.+34     	; 0x4636 <MifareClassicGetUid+0x30>
		//Uid[0]=0x88;
		MemoryReadBlock(&Uid[0], MEM_UID_CL1_ADDRESS, MEM_UID_CL1_SIZE-1);
    4614:	43 e0       	ldi	r20, 0x03	; 3
    4616:	50 e0       	ldi	r21, 0x00	; 0
    4618:	70 e0       	ldi	r23, 0x00	; 0
    461a:	60 e0       	ldi	r22, 0x00	; 0
    461c:	ce 01       	movw	r24, r28
    461e:	0e 94 3f 09 	call	0x127e	; 0x127e <MemoryReadBlock>
		MemoryReadBlock(&Uid[3], MEM_UID_CL2_ADDRESS, MEM_UID_CL2_SIZE);
    4622:	44 e0       	ldi	r20, 0x04	; 4
    4624:	50 e0       	ldi	r21, 0x00	; 0
    4626:	63 e0       	ldi	r22, 0x03	; 3
    4628:	70 e0       	ldi	r23, 0x00	; 0
    462a:	ce 01       	movw	r24, r28
    462c:	03 96       	adiw	r24, 0x03	; 3
	} else {
        MemoryReadBlock(Uid, MEM_UID_CL1_ADDRESS, MEM_UID_CL1_SIZE);
	}
}
    462e:	df 91       	pop	r29
    4630:	cf 91       	pop	r28
        MemoryReadBlock(Uid, MEM_UID_CL1_ADDRESS, MEM_UID_CL1_SIZE);
    4632:	0c 94 3f 09 	jmp	0x127e	; 0x127e <MemoryReadBlock>
    4636:	44 e0       	ldi	r20, 0x04	; 4
    4638:	50 e0       	ldi	r21, 0x00	; 0
    463a:	70 e0       	ldi	r23, 0x00	; 0
    463c:	60 e0       	ldi	r22, 0x00	; 0
    463e:	ce 01       	movw	r24, r28
    4640:	f6 cf       	rjmp	.-20     	; 0x462e <MifareClassicGetUid+0x28>

00004642 <MifareClassicSetUid>:

void MifareClassicSetUid(ConfigurationUidType Uid)
{
    4642:	cf 93       	push	r28
    4644:	df 93       	push	r29
    4646:	1f 92       	push	r1
    4648:	cd b7       	in	r28, 0x3d	; 61
    464a:	de b7       	in	r29, 0x3e	; 62
    464c:	fc 01       	movw	r30, r24
    if (_7BUID) {
    464e:	80 91 15 21 	lds	r24, 0x2115	; 0x802115 <_7BUID>
    4652:	88 23       	and	r24, r24
    4654:	61 f0       	breq	.+24     	; 0x466e <MifareClassicSetUid+0x2c>
	    //Uid[0]=0x88;
	    MemoryWriteBlock(Uid, MEM_UID_CL1_ADDRESS, ActiveConfiguration.UidSize);
    4656:	40 91 60 21 	lds	r20, 0x2160	; 0x802160 <ActiveConfiguration+0x16>
    465a:	50 e0       	ldi	r21, 0x00	; 0
    465c:	70 e0       	ldi	r23, 0x00	; 0
    465e:	60 e0       	ldi	r22, 0x00	; 0
    4660:	cf 01       	movw	r24, r30
    } else {
        uint8_t BCC =  Uid[0] ^ Uid[1] ^ Uid[2] ^ Uid[3];
		MemoryWriteBlock(Uid, MEM_UID_CL1_ADDRESS, MEM_UID_CL1_SIZE);
        MemoryWriteBlock(&BCC, MEM_UID_BCC1_ADDRESS, ISO14443A_CL_BCC_SIZE);
    4662:	0e 94 c8 09 	call	0x1390	; 0x1390 <MemoryWriteBlock>
    }
}
    4666:	0f 90       	pop	r0
    4668:	df 91       	pop	r29
    466a:	cf 91       	pop	r28
    466c:	08 95       	ret
        uint8_t BCC =  Uid[0] ^ Uid[1] ^ Uid[2] ^ Uid[3];
    466e:	90 81       	ld	r25, Z
    4670:	81 81       	ldd	r24, Z+1	; 0x01
    4672:	98 27       	eor	r25, r24
    4674:	82 81       	ldd	r24, Z+2	; 0x02
    4676:	98 27       	eor	r25, r24
    4678:	83 81       	ldd	r24, Z+3	; 0x03
    467a:	98 27       	eor	r25, r24
    467c:	99 83       	std	Y+1, r25	; 0x01
		MemoryWriteBlock(Uid, MEM_UID_CL1_ADDRESS, MEM_UID_CL1_SIZE);
    467e:	44 e0       	ldi	r20, 0x04	; 4
    4680:	50 e0       	ldi	r21, 0x00	; 0
    4682:	70 e0       	ldi	r23, 0x00	; 0
    4684:	60 e0       	ldi	r22, 0x00	; 0
    4686:	cf 01       	movw	r24, r30
    4688:	0e 94 c8 09 	call	0x1390	; 0x1390 <MemoryWriteBlock>
        MemoryWriteBlock(&BCC, MEM_UID_BCC1_ADDRESS, ISO14443A_CL_BCC_SIZE);
    468c:	41 e0       	ldi	r20, 0x01	; 1
    468e:	50 e0       	ldi	r21, 0x00	; 0
    4690:	64 e0       	ldi	r22, 0x04	; 4
    4692:	70 e0       	ldi	r23, 0x00	; 0
    4694:	ce 01       	movw	r24, r28
    4696:	01 96       	adiw	r24, 0x01	; 1
    4698:	e4 cf       	rjmp	.-56     	; 0x4662 <MifareClassicSetUid+0x20>

0000469a <ISO14443AAppendCRCA>:
#ifdef USE_HW_CRC
void ISO14443AAppendCRCA(void* Buffer, uint16_t ByteCount)
{
    uint8_t* DataPtr = (uint8_t*) Buffer;

    CRC.CTRL = CRC_RESET0_bm;
    469a:	20 e4       	ldi	r18, 0x40	; 64
    469c:	20 93 d0 00 	sts	0x00D0, r18	; 0x8000d0 <__TEXT_REGION_LENGTH__+0x7000d0>
    CRC.CHECKSUM1 = (CRC_INIT_R >> 8) & 0xFF;
    46a0:	26 ec       	ldi	r18, 0xC6	; 198
    46a2:	20 93 d5 00 	sts	0x00D5, r18	; 0x8000d5 <__TEXT_REGION_LENGTH__+0x7000d5>
    CRC.CHECKSUM0 = (CRC_INIT_R >> 0) & 0xFF;
    46a6:	20 93 d4 00 	sts	0x00D4, r18	; 0x8000d4 <__TEXT_REGION_LENGTH__+0x7000d4>
    CRC.CTRL = CRC_SOURCE_IO_gc;
    46aa:	21 e0       	ldi	r18, 0x01	; 1
    46ac:	20 93 d0 00 	sts	0x00D0, r18	; 0x8000d0 <__TEXT_REGION_LENGTH__+0x7000d0>
    46b0:	dc 01       	movw	r26, r24
    46b2:	68 0f       	add	r22, r24
    46b4:	79 1f       	adc	r23, r25

    while(ByteCount--) {
    46b6:	a6 17       	cp	r26, r22
    46b8:	b7 07       	cpc	r27, r23
    46ba:	91 f4       	brne	.+36     	; 0x46e0 <ISO14443AAppendCRCA+0x46>
        Byte = BitReverseByte(Byte);

        CRC.DATAIN = Byte;
    }

    DataPtr[0] = BitReverseByte(CRC.CHECKSUM1);
    46bc:	e0 91 d5 00 	lds	r30, 0x00D5	; 0x8000d5 <__TEXT_REGION_LENGTH__+0x7000d5>
    return pgm_read_byte(&BitReverseByteTable[Byte]);
    46c0:	f0 e0       	ldi	r31, 0x00	; 0
    46c2:	ef 56       	subi	r30, 0x6F	; 111
    46c4:	fa 4f       	sbci	r31, 0xFA	; 250
    46c6:	e4 91       	lpm	r30, Z
    46c8:	ec 93       	st	X, r30
    DataPtr[1] = BitReverseByte(CRC.CHECKSUM0);
    46ca:	e0 91 d4 00 	lds	r30, 0x00D4	; 0x8000d4 <__TEXT_REGION_LENGTH__+0x7000d4>
    46ce:	f0 e0       	ldi	r31, 0x00	; 0
    46d0:	ef 56       	subi	r30, 0x6F	; 111
    46d2:	fa 4f       	sbci	r31, 0xFA	; 250
    46d4:	e4 91       	lpm	r30, Z
    46d6:	11 96       	adiw	r26, 0x01	; 1
    46d8:	ec 93       	st	X, r30

    CRC.CTRL = CRC_SOURCE_DISABLE_gc;
    46da:	10 92 d0 00 	sts	0x00D0, r1	; 0x8000d0 <__TEXT_REGION_LENGTH__+0x7000d0>
}
    46de:	08 95       	ret
        uint8_t Byte = *DataPtr++;
    46e0:	ed 91       	ld	r30, X+
    46e2:	f0 e0       	ldi	r31, 0x00	; 0
    46e4:	ef 56       	subi	r30, 0x6F	; 111
    46e6:	fa 4f       	sbci	r31, 0xFA	; 250
    46e8:	e4 91       	lpm	r30, Z
        CRC.DATAIN = Byte;
    46ea:	e0 93 d3 00 	sts	0x00D3, r30	; 0x8000d3 <__TEXT_REGION_LENGTH__+0x7000d3>
    46ee:	e3 cf       	rjmp	.-58     	; 0x46b6 <ISO14443AAppendCRCA+0x1c>

000046f0 <ISO14443ACheckCRCA>:
}
#endif

#ifdef USE_HW_CRC
bool ISO14443ACheckCRCA(const void* Buffer, uint16_t ByteCount)
{
    46f0:	9c 01       	movw	r18, r24
    const uint8_t* DataPtr = (const uint8_t*) Buffer;

    CRC.CTRL = CRC_RESET0_bm;
    46f2:	80 e4       	ldi	r24, 0x40	; 64
    46f4:	80 93 d0 00 	sts	0x00D0, r24	; 0x8000d0 <__TEXT_REGION_LENGTH__+0x7000d0>
    CRC.CHECKSUM1 = (CRC_INIT_R >> 8) & 0xFF;
    46f8:	86 ec       	ldi	r24, 0xC6	; 198
    46fa:	80 93 d5 00 	sts	0x00D5, r24	; 0x8000d5 <__TEXT_REGION_LENGTH__+0x7000d5>
    CRC.CHECKSUM0 = (CRC_INIT_R >> 0) & 0xFF;
    46fe:	80 93 d4 00 	sts	0x00D4, r24	; 0x8000d4 <__TEXT_REGION_LENGTH__+0x7000d4>
    CRC.CTRL = CRC_SOURCE_IO_gc;
    4702:	81 e0       	ldi	r24, 0x01	; 1
    4704:	80 93 d0 00 	sts	0x00D0, r24	; 0x8000d0 <__TEXT_REGION_LENGTH__+0x7000d0>
    4708:	d9 01       	movw	r26, r18

    while(ByteCount--) {
    470a:	ab 01       	movw	r20, r22
    470c:	41 50       	subi	r20, 0x01	; 1
    470e:	51 09       	sbc	r21, r1
    4710:	9d 91       	ld	r25, X+
    4712:	4f 3f       	cpi	r20, 0xFF	; 255
    4714:	54 07       	cpc	r21, r20
    4716:	d1 f4       	brne	.+52     	; 0x474c <ISO14443ACheckCRCA+0x5c>
    4718:	26 0f       	add	r18, r22
    471a:	37 1f       	adc	r19, r23
        Byte = BitReverseByte(Byte);

        CRC.DATAIN = Byte;
    }

    bool Result = (DataPtr[0] == BitReverseByte(CRC.CHECKSUM1)) && (DataPtr[1] == BitReverseByte(CRC.CHECKSUM0));
    471c:	e0 91 d5 00 	lds	r30, 0x00D5	; 0x8000d5 <__TEXT_REGION_LENGTH__+0x7000d5>
    4720:	f0 e0       	ldi	r31, 0x00	; 0
    4722:	ef 56       	subi	r30, 0x6F	; 111
    4724:	fa 4f       	sbci	r31, 0xFA	; 250
    4726:	e4 91       	lpm	r30, Z
    4728:	e9 13       	cpse	r30, r25
    472a:	0b c0       	rjmp	.+22     	; 0x4742 <ISO14443ACheckCRCA+0x52>
    472c:	e0 91 d4 00 	lds	r30, 0x00D4	; 0x8000d4 <__TEXT_REGION_LENGTH__+0x7000d4>
    4730:	f0 e0       	ldi	r31, 0x00	; 0
    4732:	ef 56       	subi	r30, 0x6F	; 111
    4734:	fa 4f       	sbci	r31, 0xFA	; 250
    4736:	e4 91       	lpm	r30, Z
    4738:	81 e0       	ldi	r24, 0x01	; 1
    473a:	d9 01       	movw	r26, r18
    473c:	11 96       	adiw	r26, 0x01	; 1
    473e:	9c 91       	ld	r25, X
    4740:	9e 13       	cpse	r25, r30
    4742:	80 e0       	ldi	r24, 0x00	; 0

    CRC.CTRL = CRC_SOURCE_DISABLE_gc;
    4744:	10 92 d0 00 	sts	0x00D0, r1	; 0x8000d0 <__TEXT_REGION_LENGTH__+0x7000d0>

    return Result;
}
    4748:	81 70       	andi	r24, 0x01	; 1
    474a:	08 95       	ret
    474c:	e9 2f       	mov	r30, r25
    474e:	f0 e0       	ldi	r31, 0x00	; 0
    4750:	ef 56       	subi	r30, 0x6F	; 111
    4752:	fa 4f       	sbci	r31, 0xFA	; 250
    4754:	e4 91       	lpm	r30, Z
        CRC.DATAIN = Byte;
    4756:	e0 93 d3 00 	sts	0x00D3, r30	; 0x8000d3 <__TEXT_REGION_LENGTH__+0x7000d3>
    475a:	d8 cf       	rjmp	.-80     	; 0x470c <ISO14443ACheckCRCA+0x1c>

0000475c <Crypto1ByteAuth>:

uint32_t StateOdd;
uint32_t StateEven;

static uint8_t Crypto1ByteAuth(uint8_t In, uint8_t AuthSet)
{
    475c:	0f 93       	push	r16
    475e:	1f 93       	push	r17
    4760:	cf 93       	push	r28
    4762:	df 93       	push	r29
    4764:	18 2f       	mov	r17, r24
    4766:	06 2f       	mov	r16, r22
    4768:	d8 e0       	ldi	r29, 0x08	; 8
	uint8_t KeyStream = 0;
    476a:	c0 e0       	ldi	r28, 0x00	; 0

	/* Generate 8 keystream-bits */
	for (i=0; i<8; i++) {

		/* Calculate next bit and add to KeyStream */
		uint8_t Out = Crypto1Bit(In&1,AuthSet);
    476c:	60 2f       	mov	r22, r16
    476e:	81 2f       	mov	r24, r17
    4770:	81 70       	andi	r24, 0x01	; 1
    4772:	0e 94 11 06 	call	0xc22	; 0xc22 <Crypto1Bit>

		In>>=1;
    4776:	16 95       	lsr	r17
		KeyStream>>=1;
    4778:	c6 95       	lsr	r28
		if(Out) {
    477a:	81 11       	cpse	r24, r1
			KeyStream |= (1<<7);
    477c:	c0 68       	ori	r28, 0x80	; 128
    477e:	d1 50       	subi	r29, 0x01	; 1
	for (i=0; i<8; i++) {
    4780:	a9 f7       	brne	.-22     	; 0x476c <Crypto1ByteAuth+0x10>
		}
		
	}

	return KeyStream;
}
    4782:	8c 2f       	mov	r24, r28
    4784:	df 91       	pop	r29
    4786:	cf 91       	pop	r28
    4788:	1f 91       	pop	r17
    478a:	0f 91       	pop	r16
    478c:	08 95       	ret

0000478e <Crypto1Setup>:

void Crypto1Setup(uint8_t Key[6], uint8_t Uid[4], uint8_t CardNonce[4])
{
    478e:	cf 92       	push	r12
    4790:	df 92       	push	r13
    4792:	ef 92       	push	r14
    4794:	ff 92       	push	r15
    4796:	0f 93       	push	r16
    4798:	1f 93       	push	r17
    479a:	cf 93       	push	r28
    479c:	df 93       	push	r29

	StateOdd = 0;
    479e:	10 92 66 23 	sts	0x2366, r1	; 0x802366 <StateOdd>
    47a2:	10 92 67 23 	sts	0x2367, r1	; 0x802367 <StateOdd+0x1>
    47a6:	10 92 68 23 	sts	0x2368, r1	; 0x802368 <StateOdd+0x2>
    47aa:	10 92 69 23 	sts	0x2369, r1	; 0x802369 <StateOdd+0x3>
	StateEven = 0;
    47ae:	10 92 62 23 	sts	0x2362, r1	; 0x802362 <StateEven>
    47b2:	10 92 63 23 	sts	0x2363, r1	; 0x802363 <StateEven+0x1>
    47b6:	10 92 64 23 	sts	0x2364, r1	; 0x802364 <StateEven+0x2>
    47ba:	10 92 65 23 	sts	0x2365, r1	; 0x802365 <StateEven+0x3>
    47be:	dc 01       	movw	r26, r24
    47c0:	16 96       	adiw	r26, 0x06	; 6

	int i = 0, j = 0;
	for(i = 0 ; i < 6 ; i++) {

		for(j = 7 ; j > 0 ; j -= 2) {
    47c2:	e7 e0       	ldi	r30, 0x07	; 7
    47c4:	f0 e0       	ldi	r31, 0x00	; 0
			StateOdd = StateOdd << 1 | (Key[i]>>((j-1) ^ 7)&1);
    47c6:	ec 01       	movw	r28, r24
    47c8:	08 81       	ld	r16, Y
    47ca:	10 e0       	ldi	r17, 0x00	; 0
    47cc:	9f 01       	movw	r18, r30
    47ce:	21 50       	subi	r18, 0x01	; 1
    47d0:	31 09       	sbc	r19, r1
    47d2:	d7 e0       	ldi	r29, 0x07	; 7
    47d4:	2d 27       	eor	r18, r29
    47d6:	02 c0       	rjmp	.+4      	; 0x47dc <Crypto1Setup+0x4e>
    47d8:	15 95       	asr	r17
    47da:	07 95       	ror	r16
    47dc:	2a 95       	dec	r18
    47de:	e2 f7       	brpl	.-8      	; 0x47d8 <Crypto1Setup+0x4a>
    47e0:	01 70       	andi	r16, 0x01	; 1
    47e2:	11 27       	eor	r17, r17
    47e4:	01 2e       	mov	r0, r17
    47e6:	00 0c       	add	r0, r0
    47e8:	22 0b       	sbc	r18, r18
    47ea:	33 0b       	sbc	r19, r19
    47ec:	c0 90 66 23 	lds	r12, 0x2366	; 0x802366 <StateOdd>
    47f0:	d0 90 67 23 	lds	r13, 0x2367	; 0x802367 <StateOdd+0x1>
    47f4:	e0 90 68 23 	lds	r14, 0x2368	; 0x802368 <StateOdd+0x2>
    47f8:	f0 90 69 23 	lds	r15, 0x2369	; 0x802369 <StateOdd+0x3>
    47fc:	cc 0c       	add	r12, r12
    47fe:	dd 1c       	adc	r13, r13
    4800:	ee 1c       	adc	r14, r14
    4802:	ff 1c       	adc	r15, r15
    4804:	0c 29       	or	r16, r12
    4806:	1d 29       	or	r17, r13
    4808:	2e 29       	or	r18, r14
    480a:	3f 29       	or	r19, r15
    480c:	00 93 66 23 	sts	0x2366, r16	; 0x802366 <StateOdd>
    4810:	10 93 67 23 	sts	0x2367, r17	; 0x802367 <StateOdd+0x1>
    4814:	20 93 68 23 	sts	0x2368, r18	; 0x802368 <StateOdd+0x2>
    4818:	30 93 69 23 	sts	0x2369, r19	; 0x802369 <StateOdd+0x3>
			StateEven = StateEven << 1 | (Key[i]>>((j) ^ 7)&1);
    481c:	ec 01       	movw	r28, r24
    481e:	08 81       	ld	r16, Y
    4820:	10 e0       	ldi	r17, 0x00	; 0
    4822:	9f 01       	movw	r18, r30
    4824:	d7 e0       	ldi	r29, 0x07	; 7
    4826:	2d 27       	eor	r18, r29
    4828:	02 c0       	rjmp	.+4      	; 0x482e <Crypto1Setup+0xa0>
    482a:	15 95       	asr	r17
    482c:	07 95       	ror	r16
    482e:	2a 95       	dec	r18
    4830:	e2 f7       	brpl	.-8      	; 0x482a <Crypto1Setup+0x9c>
    4832:	01 70       	andi	r16, 0x01	; 1
    4834:	11 27       	eor	r17, r17
    4836:	01 2e       	mov	r0, r17
    4838:	00 0c       	add	r0, r0
    483a:	22 0b       	sbc	r18, r18
    483c:	33 0b       	sbc	r19, r19
    483e:	c0 90 62 23 	lds	r12, 0x2362	; 0x802362 <StateEven>
    4842:	d0 90 63 23 	lds	r13, 0x2363	; 0x802363 <StateEven+0x1>
    4846:	e0 90 64 23 	lds	r14, 0x2364	; 0x802364 <StateEven+0x2>
    484a:	f0 90 65 23 	lds	r15, 0x2365	; 0x802365 <StateEven+0x3>
    484e:	cc 0c       	add	r12, r12
    4850:	dd 1c       	adc	r13, r13
    4852:	ee 1c       	adc	r14, r14
    4854:	ff 1c       	adc	r15, r15
    4856:	0c 29       	or	r16, r12
    4858:	1d 29       	or	r17, r13
    485a:	2e 29       	or	r18, r14
    485c:	3f 29       	or	r19, r15
    485e:	00 93 62 23 	sts	0x2362, r16	; 0x802362 <StateEven>
    4862:	10 93 63 23 	sts	0x2363, r17	; 0x802363 <StateEven+0x1>
    4866:	20 93 64 23 	sts	0x2364, r18	; 0x802364 <StateEven+0x2>
    486a:	30 93 65 23 	sts	0x2365, r19	; 0x802365 <StateEven+0x3>
		for(j = 7 ; j > 0 ; j -= 2) {
    486e:	32 97       	sbiw	r30, 0x02	; 2
    4870:	ef 3f       	cpi	r30, 0xFF	; 255
    4872:	fe 07       	cpc	r31, r30
    4874:	09 f0       	breq	.+2      	; 0x4878 <Crypto1Setup+0xea>
    4876:	a7 cf       	rjmp	.-178    	; 0x47c6 <Crypto1Setup+0x38>
    4878:	01 96       	adiw	r24, 0x01	; 1
	for(i = 0 ; i < 6 ; i++) {
    487a:	a8 17       	cp	r26, r24
    487c:	b9 07       	cpc	r27, r25
    487e:	09 f0       	breq	.+2      	; 0x4882 <Crypto1Setup+0xf4>
    4880:	a0 cf       	rjmp	.-192    	; 0x47c2 <Crypto1Setup+0x34>
    4882:	eb 01       	movw	r28, r22
    4884:	8a 01       	movw	r16, r20
    4886:	7b 01       	movw	r14, r22
    4888:	84 e0       	ldi	r24, 0x04	; 4
    488a:	e8 0e       	add	r14, r24
    488c:	f1 1c       	adc	r15, r1
		}
	}

	for(i=0; i<4; i++) {
		CardNonce[i] ^= Crypto1ByteAuth(Uid[i] ^ CardNonce[i], 0);
    488e:	99 91       	ld	r25, Y+
    4890:	f8 01       	movw	r30, r16
    4892:	80 81       	ld	r24, Z
    4894:	60 e0       	ldi	r22, 0x00	; 0
    4896:	89 27       	eor	r24, r25
    4898:	61 df       	rcall	.-318    	; 0x475c <Crypto1ByteAuth>
    489a:	f8 01       	movw	r30, r16
    489c:	90 81       	ld	r25, Z
    489e:	89 27       	eor	r24, r25
    48a0:	81 93       	st	Z+, r24
    48a2:	8f 01       	movw	r16, r30
	for(i=0; i<4; i++) {
    48a4:	ec 16       	cp	r14, r28
    48a6:	fd 06       	cpc	r15, r29
    48a8:	91 f7       	brne	.-28     	; 0x488e <Crypto1Setup+0x100>
	}

}
    48aa:	df 91       	pop	r29
    48ac:	cf 91       	pop	r28
    48ae:	1f 91       	pop	r17
    48b0:	0f 91       	pop	r16
    48b2:	ff 90       	pop	r15
    48b4:	ef 90       	pop	r14
    48b6:	df 90       	pop	r13
    48b8:	cf 90       	pop	r12
    48ba:	08 95       	ret

000048bc <Crypto1Auth>:

void Crypto1Auth(uint8_t EncryptedReaderNonce[4])
{
    48bc:	0f 93       	push	r16
    48be:	1f 93       	push	r17
    48c0:	cf 93       	push	r28
    48c2:	df 93       	push	r29
    48c4:	ec 01       	movw	r28, r24
    48c6:	8c 01       	movw	r16, r24
    48c8:	0c 5f       	subi	r16, 0xFC	; 252
    48ca:	1f 4f       	sbci	r17, 0xFF	; 255
	uint8_t i;

	/* Calculate Authentication on Nonce */
	for(i = 0 ; i < 4 ; i++) {
		Crypto1ByteAuth(EncryptedReaderNonce[i],1);
    48cc:	61 e0       	ldi	r22, 0x01	; 1
    48ce:	89 91       	ld	r24, Y+
    48d0:	45 df       	rcall	.-374    	; 0x475c <Crypto1ByteAuth>
	for(i = 0 ; i < 4 ; i++) {
    48d2:	c0 17       	cp	r28, r16
    48d4:	d1 07       	cpc	r29, r17
    48d6:	d1 f7       	brne	.-12     	; 0x48cc <Crypto1Auth+0x10>
	}
}
    48d8:	df 91       	pop	r29
    48da:	cf 91       	pop	r28
    48dc:	1f 91       	pop	r17
    48de:	0f 91       	pop	r16
    48e0:	08 95       	ret

000048e2 <Crypto1Byte>:

uint8_t Crypto1Byte(void)
{
    48e2:	cf 93       	push	r28
    48e4:	df 93       	push	r29
    48e6:	d8 e0       	ldi	r29, 0x08	; 8
	uint8_t KeyStream = 0;
    48e8:	c0 e0       	ldi	r28, 0x00	; 0

	/* Generate 8 keystream-bits */
	for (i=0; i<8; i++) {

		/* Calculate next bit and add to KeyStream */
		uint8_t Out = Crypto1Bit(0,0);
    48ea:	60 e0       	ldi	r22, 0x00	; 0
    48ec:	80 e0       	ldi	r24, 0x00	; 0
    48ee:	0e 94 11 06 	call	0xc22	; 0xc22 <Crypto1Bit>

		KeyStream>>=1;
    48f2:	c6 95       	lsr	r28
		if(Out) {
    48f4:	81 11       	cpse	r24, r1
			KeyStream |= (1<<7);
    48f6:	c0 68       	ori	r28, 0x80	; 128
    48f8:	d1 50       	subi	r29, 0x01	; 1
	for (i=0; i<8; i++) {
    48fa:	b9 f7       	brne	.-18     	; 0x48ea <Crypto1Byte+0x8>
		}
		
	}

	return KeyStream;
}
    48fc:	8c 2f       	mov	r24, r28
    48fe:	df 91       	pop	r29
    4900:	cf 91       	pop	r28
    4902:	08 95       	ret

00004904 <Crypto1Nibble>:

uint8_t Crypto1Nibble(void)
{
    4904:	cf 93       	push	r28
    4906:	df 93       	push	r29
    4908:	d4 e0       	ldi	r29, 0x04	; 4
	uint8_t KeyStream = 0;
    490a:	c0 e0       	ldi	r28, 0x00	; 0

	/* Generate 4 keystream-bits */
	for (i=0; i<4; i++) {

		/* Calculate next bit and add to KeyStream */
		uint8_t Out = Crypto1Bit(0,0);
    490c:	60 e0       	ldi	r22, 0x00	; 0
    490e:	80 e0       	ldi	r24, 0x00	; 0
    4910:	0e 94 11 06 	call	0xc22	; 0xc22 <Crypto1Bit>

		KeyStream>>=1;
    4914:	c6 95       	lsr	r28
		if(Out) {
    4916:	81 11       	cpse	r24, r1
			KeyStream |= (1<<7);
    4918:	c0 68       	ori	r28, 0x80	; 128
    491a:	d1 50       	subi	r29, 0x01	; 1
	for (i=0; i<4; i++) {
    491c:	b9 f7       	brne	.-18     	; 0x490c <Crypto1Nibble+0x8>
		}
		
	}

	return KeyStream;
}
    491e:	8c 2f       	mov	r24, r28
    4920:	df 91       	pop	r29
    4922:	cf 91       	pop	r28
    4924:	08 95       	ret

00004926 <Crypto1PRNG>:

void Crypto1PRNG(uint8_t State[4], uint16_t ClockCount)
{
    4926:	fc 01       	movw	r30, r24
    4928:	9b 01       	movw	r18, r22
	while(ClockCount--) {
    492a:	21 50       	subi	r18, 0x01	; 1
    492c:	31 09       	sbc	r19, r1
    492e:	08 f4       	brcc	.+2      	; 0x4932 <Crypto1PRNG+0xc>
		State[2] = (uint8_t) (Temp >> 16);
		State[3] = (uint8_t) (Temp >> 24);
	}


}
    4930:	08 95       	ret
		Feedback ^= State[2] & (uint8_t) (PRNG_MASK >> 16);
    4932:	92 81       	ldd	r25, Z+2	; 0x02
    4934:	9d 72       	andi	r25, 0x2D	; 45
		Feedback ^= Feedback >> 4;
    4936:	89 2f       	mov	r24, r25
    4938:	82 95       	swap	r24
    493a:	8f 70       	andi	r24, 0x0F	; 15
    493c:	98 27       	eor	r25, r24
		Feedback ^= Feedback >> 2;
    493e:	89 2f       	mov	r24, r25
    4940:	86 95       	lsr	r24
    4942:	86 95       	lsr	r24
    4944:	89 27       	eor	r24, r25
		Feedback ^= Feedback >> 1;
    4946:	98 2f       	mov	r25, r24
    4948:	96 95       	lsr	r25
		Temp |= (uint32_t) State[3] << 24;
    494a:	40 81       	ld	r20, Z
    494c:	51 81       	ldd	r21, Z+1	; 0x01
    494e:	62 81       	ldd	r22, Z+2	; 0x02
    4950:	73 81       	ldd	r23, Z+3	; 0x03
		Temp >>= 1;
    4952:	76 95       	lsr	r23
    4954:	67 95       	ror	r22
    4956:	57 95       	ror	r21
    4958:	47 95       	ror	r20
		Feedback ^= Feedback >> 1;
    495a:	89 27       	eor	r24, r25
		if (Feedback & 0x01) {
    495c:	80 fd       	sbrc	r24, 0
			Temp |= (uint32_t) 1 << (8 * PRNG_SIZE - 1);
    495e:	70 68       	ori	r23, 0x80	; 128
		State[0] = (uint8_t) (Temp >> 0);
    4960:	40 83       	st	Z, r20
		State[1] = (uint8_t) (Temp >> 8);
    4962:	51 83       	std	Z+1, r21	; 0x01
		State[2] = (uint8_t) (Temp >> 16);
    4964:	62 83       	std	Z+2, r22	; 0x02
		State[3] = (uint8_t) (Temp >> 24);
    4966:	73 83       	std	Z+3, r23	; 0x03
    4968:	e0 cf       	rjmp	.-64     	; 0x492a <Crypto1PRNG+0x4>

0000496a <MifareDetectionAppProcess>:
static uint8_t turn_falga = 0;
static uint8_t turn_falgb = 0;
static uint8_t keyb_falg = 0;

uint16_t MifareDetectionAppProcess(uint8_t* Buffer, uint16_t BitCount)
{
    496a:	cf 92       	push	r12
    496c:	df 92       	push	r13
    496e:	ef 92       	push	r14
    4970:	ff 92       	push	r15
    4972:	0f 93       	push	r16
    4974:	1f 93       	push	r17
    4976:	cf 93       	push	r28
    4978:	df 93       	push	r29
    497a:	00 d0       	rcall	.+0      	; 0x497c <MifareDetectionAppProcess+0x12>
    497c:	00 d0       	rcall	.+0      	; 0x497e <MifareDetectionAppProcess+0x14>
    497e:	cd b7       	in	r28, 0x3d	; 61
    4980:	de b7       	in	r29, 0x3e	; 62
    4982:	8c 01       	movw	r16, r24
    4984:	7b 01       	movw	r14, r22
	/* 0x26 / 0x52 Wakeup */
    if ( (BitCount == 7) &&
    4986:	67 30       	cpi	r22, 0x07	; 7
    4988:	71 05       	cpc	r23, r1
    498a:	41 f5       	brne	.+80     	; 0x49dc <MifareDetectionAppProcess+0x72>
    /* precheck of WUP/REQ because ISO14443AWakeUp destroys BitCount */
    ((Buffer[0] == ISO14443A_CMD_REQA) || (Buffer[0] == ISO14443A_CMD_WUPA)) ) {
    498c:	f8 01       	movw	r30, r16
    498e:	80 81       	ld	r24, Z
    if ( (BitCount == 7) &&
    4990:	86 32       	cpi	r24, 0x26	; 38
    4992:	19 f0       	breq	.+6      	; 0x499a <MifareDetectionAppProcess+0x30>
    ((Buffer[0] == ISO14443A_CMD_REQA) || (Buffer[0] == ISO14443A_CMD_WUPA)) ) {
    4994:	82 35       	cpi	r24, 0x52	; 82
    4996:	09 f0       	breq	.+2      	; 0x499a <MifareDetectionAppProcess+0x30>
    4998:	cc c0       	rjmp	.+408    	; 0x4b32 <MifareDetectionAppProcess+0x1c8>

		State = STATE_HALT;
    499a:	10 92 49 21 	sts	0x2149, r1	; 0x802149 <State>
    if ( ((! FromHalt) && (DataPtr[0] == ISO14443A_CMD_REQA)) ||
    499e:	86 32       	cpi	r24, 0x26	; 38
    49a0:	19 f0       	breq	.+6      	; 0x49a8 <MifareDetectionAppProcess+0x3e>
    49a2:	82 35       	cpi	r24, 0x52	; 82
    49a4:	09 f0       	breq	.+2      	; 0x49a8 <MifareDetectionAppProcess+0x3e>
    49a6:	7a c0       	rjmp	.+244    	; 0x4a9c <MifareDetectionAppProcess+0x132>
		if (ISO14443AWakeUp(Buffer, &BitCount, CardATQAValue, false))
    49a8:	90 91 47 21 	lds	r25, 0x2147	; 0x802147 <CardATQAValue>
    49ac:	80 91 48 21 	lds	r24, 0x2148	; 0x802148 <CardATQAValue+0x1>
        DataPtr[0] = (ATQAValue >> 0) & 0x00FF;
    49b0:	f8 01       	movw	r30, r16
    49b2:	90 83       	st	Z, r25
        DataPtr[1] = (ATQAValue >> 8) & 0x00FF;
    49b4:	81 83       	std	Z+1, r24	; 0x01
		{
			State = STATE_READY;
    49b6:	82 e0       	ldi	r24, 0x02	; 2
    49b8:	80 93 49 21 	sts	0x2149, r24	; 0x802149 <State>
        *BitCount = ISO14443A_ATQA_FRAME_SIZE;
    49bc:	50 e1       	ldi	r21, 0x10	; 16
    49be:	e5 2e       	mov	r14, r21
    49c0:	f1 2c       	mov	r15, r1
		}
	}

	/* No response has been sent, when we reach here */
    return ISO14443A_APP_NO_RESPONSE;
 }
    49c2:	c7 01       	movw	r24, r14
    49c4:	24 96       	adiw	r28, 0x04	; 4
    49c6:	cd bf       	out	0x3d, r28	; 61
    49c8:	de bf       	out	0x3e, r29	; 62
    49ca:	df 91       	pop	r29
    49cc:	cf 91       	pop	r28
    49ce:	1f 91       	pop	r17
    49d0:	0f 91       	pop	r16
    49d2:	ff 90       	pop	r15
    49d4:	ef 90       	pop	r14
    49d6:	df 90       	pop	r13
    49d8:	cf 90       	pop	r12
    49da:	08 95       	ret
	if (BitCount==16 || BitCount==72) {
    49dc:	60 31       	cpi	r22, 0x10	; 16
    49de:	71 05       	cpc	r23, r1
    49e0:	21 f0       	breq	.+8      	; 0x49ea <MifareDetectionAppProcess+0x80>
    49e2:	68 34       	cpi	r22, 0x48	; 72
    49e4:	71 05       	cpc	r23, r1
    49e6:	09 f0       	breq	.+2      	; 0x49ea <MifareDetectionAppProcess+0x80>
    49e8:	a4 c0       	rjmp	.+328    	; 0x4b32 <MifareDetectionAppProcess+0x1c8>
		if (Buffer[0] == ISO14443A_CMD_SELECT_CL1) {
    49ea:	f8 01       	movw	r30, r16
    49ec:	80 81       	ld	r24, Z
    49ee:	83 39       	cpi	r24, 0x93	; 147
    49f0:	09 f0       	breq	.+2      	; 0x49f4 <MifareDetectionAppProcess+0x8a>
    49f2:	9f c0       	rjmp	.+318    	; 0x4b32 <MifareDetectionAppProcess+0x1c8>
			MemoryReadBlock(UidCL1, MEM_UID_CL1_ADDRESS, MEM_UID_CL1_SIZE);
    49f4:	44 e0       	ldi	r20, 0x04	; 4
    49f6:	50 e0       	ldi	r21, 0x00	; 0
    49f8:	70 e0       	ldi	r23, 0x00	; 0
    49fa:	60 e0       	ldi	r22, 0x00	; 0
    49fc:	ce 01       	movw	r24, r28
    49fe:	01 96       	adiw	r24, 0x01	; 1
    4a00:	0e 94 3f 09 	call	0x127e	; 0x127e <MemoryReadBlock>
    uint8_t NVB = DataPtr[1];
    4a04:	f8 01       	movw	r30, r16
    4a06:	81 81       	ldd	r24, Z+1	; 0x01
    switch (NVB) {
    4a08:	80 32       	cpi	r24, 0x20	; 32
    4a0a:	09 f4       	brne	.+2      	; 0x4a0e <MifareDetectionAppProcess+0xa4>
    4a0c:	82 c0       	rjmp	.+260    	; 0x4b12 <MifareDetectionAppProcess+0x1a8>
    4a0e:	80 37       	cpi	r24, 0x70	; 112
    4a10:	09 f4       	brne	.+2      	; 0x4a14 <MifareDetectionAppProcess+0xaa>
    4a12:	47 c0       	rjmp	.+142    	; 0x4aa2 <MifareDetectionAppProcess+0x138>
        uint8_t CollisionByteCount = ((NVB >> 4) & 0x0f) - 2;
    4a14:	c8 2e       	mov	r12, r24
    4a16:	c2 94       	swap	r12
    4a18:	3f e0       	ldi	r19, 0x0F	; 15
    4a1a:	c3 22       	and	r12, r19
    4a1c:	ca 94       	dec	r12
    4a1e:	ca 94       	dec	r12
        uint8_t CollisionBitCount  = (NVB >> 0) & 0x0f;
    4a20:	8f 70       	andi	r24, 0x0F	; 15
    4a22:	d8 2e       	mov	r13, r24
        uint8_t mask = 0xFF >> (8 - CollisionBitCount);
    4a24:	88 e0       	ldi	r24, 0x08	; 8
    4a26:	90 e0       	ldi	r25, 0x00	; 0
    4a28:	8d 19       	sub	r24, r13
    4a2a:	91 09       	sbc	r25, r1
    4a2c:	2f ef       	ldi	r18, 0xFF	; 255
    4a2e:	30 e0       	ldi	r19, 0x00	; 0
    4a30:	79 01       	movw	r14, r18
    4a32:	02 c0       	rjmp	.+4      	; 0x4a38 <MifareDetectionAppProcess+0xce>
    4a34:	f5 94       	asr	r15
    4a36:	e7 94       	ror	r14
    4a38:	8a 95       	dec	r24
    4a3a:	e2 f7       	brpl	.-8      	; 0x4a34 <MifareDetectionAppProcess+0xca>
        if (
    4a3c:	f5 e0       	ldi	r31, 0x05	; 5
    4a3e:	cf 16       	cp	r12, r31
    4a40:	29 f0       	breq	.+10     	; 0x4a4c <MifareDetectionAppProcess+0xe2>
                ((CollisionByteCount == 5 || (CollisionByteCount == 4 && CollisionBitCount > 0)) && memcmp(UidCL, &DataPtr[2], 4) == 0 && (ISO14443A_CALC_BCC(UidCL) & mask) == (DataPtr[6] & mask))
    4a42:	84 e0       	ldi	r24, 0x04	; 4
    4a44:	c8 12       	cpse	r12, r24
    4a46:	48 c0       	rjmp	.+144    	; 0x4ad8 <MifareDetectionAppProcess+0x16e>
    4a48:	dd 20       	and	r13, r13
    4a4a:	e9 f0       	breq	.+58     	; 0x4a86 <MifareDetectionAppProcess+0x11c>
    4a4c:	44 e0       	ldi	r20, 0x04	; 4
    4a4e:	50 e0       	ldi	r21, 0x00	; 0
    4a50:	b8 01       	movw	r22, r16
    4a52:	6e 5f       	subi	r22, 0xFE	; 254
    4a54:	7f 4f       	sbci	r23, 0xFF	; 255
    4a56:	ce 01       	movw	r24, r28
    4a58:	01 96       	adiw	r24, 0x01	; 1
    4a5a:	0e 94 38 2e 	call	0x5c70	; 0x5c70 <memcmp>
    4a5e:	89 2b       	or	r24, r25
    4a60:	69 f4       	brne	.+26     	; 0x4a7c <MifareDetectionAppProcess+0x112>
    4a62:	89 81       	ldd	r24, Y+1	; 0x01
    4a64:	9a 81       	ldd	r25, Y+2	; 0x02
    4a66:	89 27       	eor	r24, r25
    4a68:	9b 81       	ldd	r25, Y+3	; 0x03
    4a6a:	89 27       	eor	r24, r25
    4a6c:	9c 81       	ldd	r25, Y+4	; 0x04
    4a6e:	89 27       	eor	r24, r25
    4a70:	f8 01       	movw	r30, r16
    4a72:	96 81       	ldd	r25, Z+6	; 0x06
    4a74:	89 27       	eor	r24, r25
    4a76:	8e 21       	and	r24, r14
    4a78:	09 f4       	brne	.+2      	; 0x4a7c <MifareDetectionAppProcess+0x112>
    4a7a:	4b c0       	rjmp	.+150    	; 0x4b12 <MifareDetectionAppProcess+0x1a8>
                ||
    4a7c:	f4 e0       	ldi	r31, 0x04	; 4
    4a7e:	cf 12       	cpse	r12, r31
    4a80:	2b c0       	rjmp	.+86     	; 0x4ad8 <MifareDetectionAppProcess+0x16e>
                (CollisionByteCount == 4 && CollisionBitCount == 0 && memcmp(UidCL, &DataPtr[2], 4) == 0)
    4a82:	d1 10       	cpse	r13, r1
    4a84:	0b c0       	rjmp	.+22     	; 0x4a9c <MifareDetectionAppProcess+0x132>
    4a86:	44 e0       	ldi	r20, 0x04	; 4
    4a88:	50 e0       	ldi	r21, 0x00	; 0
    4a8a:	b8 01       	movw	r22, r16
    4a8c:	6e 5f       	subi	r22, 0xFE	; 254
    4a8e:	7f 4f       	sbci	r23, 0xFF	; 255
    4a90:	ce 01       	movw	r24, r28
    4a92:	01 96       	adiw	r24, 0x01	; 1
    4a94:	0e 94 38 2e 	call	0x5c70	; 0x5c70 <memcmp>
    4a98:	89 2b       	or	r24, r25
    4a9a:	d9 f1       	breq	.+118    	; 0x4b12 <MifareDetectionAppProcess+0x1a8>

        return true;
    } else {
        *BitCount = 0;
    4a9c:	f1 2c       	mov	r15, r1
    4a9e:	e1 2c       	mov	r14, r1
    4aa0:	48 c0       	rjmp	.+144    	; 0x4b32 <MifareDetectionAppProcess+0x1c8>
        if (    (DataPtr[2] == UidCL[0]) &&
    4aa2:	92 81       	ldd	r25, Z+2	; 0x02
    4aa4:	89 81       	ldd	r24, Y+1	; 0x01
    4aa6:	98 13       	cpse	r25, r24
    4aa8:	f9 cf       	rjmp	.-14     	; 0x4a9c <MifareDetectionAppProcess+0x132>
    4aaa:	93 81       	ldd	r25, Z+3	; 0x03
    4aac:	8a 81       	ldd	r24, Y+2	; 0x02
    4aae:	98 13       	cpse	r25, r24
    4ab0:	f5 cf       	rjmp	.-22     	; 0x4a9c <MifareDetectionAppProcess+0x132>
                (DataPtr[3] == UidCL[1]) &&
    4ab2:	94 81       	ldd	r25, Z+4	; 0x04
    4ab4:	8b 81       	ldd	r24, Y+3	; 0x03
    4ab6:	98 13       	cpse	r25, r24
    4ab8:	f1 cf       	rjmp	.-30     	; 0x4a9c <MifareDetectionAppProcess+0x132>
                (DataPtr[4] == UidCL[2]) &&
    4aba:	95 81       	ldd	r25, Z+5	; 0x05
    4abc:	8c 81       	ldd	r24, Y+4	; 0x04
    4abe:	98 13       	cpse	r25, r24
    4ac0:	ed cf       	rjmp	.-38     	; 0x4a9c <MifareDetectionAppProcess+0x132>
            DataPtr[0] = SAKValue;
    4ac2:	80 91 46 21 	lds	r24, 0x2146	; 0x802146 <CardSAKValue>
    4ac6:	80 83       	st	Z, r24
            ISO14443AAppendCRCA(Buffer, 1);
    4ac8:	61 e0       	ldi	r22, 0x01	; 1
    4aca:	70 e0       	ldi	r23, 0x00	; 0
    4acc:	c8 01       	movw	r24, r16
    4ace:	e5 dd       	rcall	.-1078   	; 0x469a <ISO14443AAppendCRCA>
            *BitCount = ISO14443A_SAK_FRAME_SIZE;
    4ad0:	48 e1       	ldi	r20, 0x18	; 24
    4ad2:	e4 2e       	mov	r14, r20
    4ad4:	f1 2c       	mov	r15, r1
    4ad6:	75 cf       	rjmp	.-278    	; 0x49c2 <MifareDetectionAppProcess+0x58>
                ||
    4ad8:	83 e0       	ldi	r24, 0x03	; 3
    4ada:	8c 15       	cp	r24, r12
    4adc:	f8 f2       	brcs	.-66     	; 0x4a9c <MifareDetectionAppProcess+0x132>
                (CollisionByteCount < 4 && memcmp(UidCL, &DataPtr[2], CollisionByteCount) == 0 && (UidCL[CollisionByteCount] & mask) == (DataPtr[CollisionByteCount + 2] & mask))
    4ade:	d1 2c       	mov	r13, r1
    4ae0:	a6 01       	movw	r20, r12
    4ae2:	b8 01       	movw	r22, r16
    4ae4:	6e 5f       	subi	r22, 0xFE	; 254
    4ae6:	7f 4f       	sbci	r23, 0xFF	; 255
    4ae8:	ce 01       	movw	r24, r28
    4aea:	01 96       	adiw	r24, 0x01	; 1
    4aec:	0e 94 38 2e 	call	0x5c70	; 0x5c70 <memcmp>
    4af0:	89 2b       	or	r24, r25
    4af2:	a1 f6       	brne	.-88     	; 0x4a9c <MifareDetectionAppProcess+0x132>
    4af4:	d8 01       	movw	r26, r16
    4af6:	ac 0d       	add	r26, r12
    4af8:	bd 1d       	adc	r27, r13
    4afa:	e1 e0       	ldi	r30, 0x01	; 1
    4afc:	f0 e0       	ldi	r31, 0x00	; 0
    4afe:	ec 0f       	add	r30, r28
    4b00:	fd 1f       	adc	r31, r29
    4b02:	ec 0d       	add	r30, r12
    4b04:	fd 1d       	adc	r31, r13
    4b06:	12 96       	adiw	r26, 0x02	; 2
    4b08:	8c 91       	ld	r24, X
    4b0a:	90 81       	ld	r25, Z
    4b0c:	89 27       	eor	r24, r25
    4b0e:	e8 22       	and	r14, r24
    4b10:	29 f6       	brne	.-118    	; 0x4a9c <MifareDetectionAppProcess+0x132>
            DataPtr[0] = UidCL[0];
    4b12:	89 81       	ldd	r24, Y+1	; 0x01
    4b14:	f8 01       	movw	r30, r16
    4b16:	80 83       	st	Z, r24
            DataPtr[1] = UidCL[1];
    4b18:	3a 81       	ldd	r19, Y+2	; 0x02
    4b1a:	31 83       	std	Z+1, r19	; 0x01
            DataPtr[2] = UidCL[2];
    4b1c:	2b 81       	ldd	r18, Y+3	; 0x03
    4b1e:	22 83       	std	Z+2, r18	; 0x02
            DataPtr[3] = UidCL[3];
    4b20:	9c 81       	ldd	r25, Y+4	; 0x04
    4b22:	93 83       	std	Z+3, r25	; 0x03
            DataPtr[4] = ISO14443A_CALC_BCC(DataPtr);
    4b24:	83 27       	eor	r24, r19
    4b26:	82 27       	eor	r24, r18
    4b28:	89 27       	eor	r24, r25
    4b2a:	84 83       	std	Z+4, r24	; 0x04
            *BitCount = ISO14443A_CL_FRAME_SIZE;
    4b2c:	28 e2       	ldi	r18, 0x28	; 40
    4b2e:	e2 2e       	mov	r14, r18
    4b30:	f1 2c       	mov	r15, r1
	if (State != STATE_AUTHED_IDLE) {
    4b32:	80 91 49 21 	lds	r24, 0x2149	; 0x802149 <State>
    4b36:	85 30       	cpi	r24, 0x05	; 5
    4b38:	19 f4       	brne	.+6      	; 0x4b40 <MifareDetectionAppProcess+0x1d6>
    return ISO14443A_APP_NO_RESPONSE;
    4b3a:	f1 2c       	mov	r15, r1
    4b3c:	e1 2c       	mov	r14, r1
    4b3e:	41 cf       	rjmp	.-382    	; 0x49c2 <MifareDetectionAppProcess+0x58>
		if (BitCount==32) {
    4b40:	f0 e2       	ldi	r31, 0x20	; 32
    4b42:	ef 16       	cp	r14, r31
    4b44:	f1 04       	cpc	r15, r1
    4b46:	09 f0       	breq	.+2      	; 0x4b4a <MifareDetectionAppProcess+0x1e0>
    4b48:	40 c0       	rjmp	.+128    	; 0x4bca <MifareDetectionAppProcess+0x260>
			if ((Buffer[0] == CMD_AUTH_A) || (Buffer[0] == CMD_AUTH_B)) {
    4b4a:	f8 01       	movw	r30, r16
    4b4c:	80 81       	ld	r24, Z
    4b4e:	80 56       	subi	r24, 0x60	; 96
    4b50:	82 30       	cpi	r24, 0x02	; 2
    4b52:	98 f7       	brcc	.-26     	; 0x4b3a <MifareDetectionAppProcess+0x1d0>
				if (ISO14443ACheckCRCA(Buffer, CMD_AUTH_FRAME_SIZE)) {
    4b54:	62 e0       	ldi	r22, 0x02	; 2
    4b56:	70 e0       	ldi	r23, 0x00	; 0
    4b58:	c8 01       	movw	r24, r16
    4b5a:	ca dd       	rcall	.-1132   	; 0x46f0 <ISO14443ACheckCRCA>
    4b5c:	88 23       	and	r24, r24
    4b5e:	69 f3       	breq	.-38     	; 0x4b3a <MifareDetectionAppProcess+0x1d0>
					uint8_t CardNonce[4] = {0};
    4b60:	19 82       	std	Y+1, r1	; 0x01
    4b62:	1a 82       	std	Y+2, r1	; 0x02
    4b64:	1b 82       	std	Y+3, r1	; 0x03
    4b66:	1c 82       	std	Y+4, r1	; 0x04
					RandomGetBuffer(CardNonce, sizeof(CardNonce));
    4b68:	64 e0       	ldi	r22, 0x04	; 4
    4b6a:	ce 01       	movw	r24, r28
    4b6c:	01 96       	adiw	r24, 0x01	; 1
    4b6e:	0e 94 fd 07 	call	0xffa	; 0xffa <RandomGetBuffer>
					memcpy(data_svae, Buffer, 4);
    4b72:	84 e0       	ldi	r24, 0x04	; 4
    4b74:	f8 01       	movw	r30, r16
    4b76:	a3 e3       	ldi	r26, 0x33	; 51
    4b78:	b1 e2       	ldi	r27, 0x21	; 33
    4b7a:	01 90       	ld	r0, Z+
    4b7c:	0d 92       	st	X+, r0
    4b7e:	8a 95       	dec	r24
    4b80:	e1 f7       	brne	.-8      	; 0x4b7a <MifareDetectionAppProcess+0x210>
					memcpy(data_svae+4, CardNonce, 4);
    4b82:	89 81       	ldd	r24, Y+1	; 0x01
    4b84:	9a 81       	ldd	r25, Y+2	; 0x02
    4b86:	ab 81       	ldd	r26, Y+3	; 0x03
    4b88:	bc 81       	ldd	r27, Y+4	; 0x04
    4b8a:	80 93 37 21 	sts	0x2137, r24	; 0x802137 <data_svae+0x4>
    4b8e:	90 93 38 21 	sts	0x2138, r25	; 0x802138 <data_svae+0x5>
    4b92:	a0 93 39 21 	sts	0x2139, r26	; 0x802139 <data_svae+0x6>
    4b96:	b0 93 3a 21 	sts	0x213A, r27	; 0x80213a <data_svae+0x7>
					if (Buffer[0] == CMD_AUTH_B) 
    4b9a:	f8 01       	movw	r30, r16
    4b9c:	80 81       	ld	r24, Z
    4b9e:	81 36       	cpi	r24, 0x61	; 97
    4ba0:	89 f4       	brne	.+34     	; 0x4bc4 <MifareDetectionAppProcess+0x25a>
						keyb_falg = 1;
    4ba2:	81 e0       	ldi	r24, 0x01	; 1
    4ba4:	80 93 43 21 	sts	0x2143, r24	; 0x802143 <keyb_falg>
					State = STATE_AUTHING;
    4ba8:	84 e0       	ldi	r24, 0x04	; 4
    4baa:	80 93 49 21 	sts	0x2149, r24	; 0x802149 <State>
    4bae:	fe 01       	movw	r30, r28
    4bb0:	31 96       	adiw	r30, 0x01	; 1
    4bb2:	d8 01       	movw	r26, r16
    4bb4:	c8 01       	movw	r24, r16
    4bb6:	04 96       	adiw	r24, 0x04	; 4
						Buffer[i] = CardNonce[i];
    4bb8:	21 91       	ld	r18, Z+
    4bba:	2d 93       	st	X+, r18
					for (uint8_t i=0; i<sizeof(CardNonce); i++)
    4bbc:	8a 17       	cp	r24, r26
    4bbe:	9b 07       	cpc	r25, r27
    4bc0:	d9 f7       	brne	.-10     	; 0x4bb8 <MifareDetectionAppProcess+0x24e>
    4bc2:	ff ce       	rjmp	.-514    	; 0x49c2 <MifareDetectionAppProcess+0x58>
						keyb_falg = 0;
    4bc4:	10 92 43 21 	sts	0x2143, r1	; 0x802143 <keyb_falg>
    4bc8:	ef cf       	rjmp	.-34     	; 0x4ba8 <MifareDetectionAppProcess+0x23e>
		if (BitCount==64 && State == STATE_AUTHING) {
    4bca:	f0 e4       	ldi	r31, 0x40	; 64
    4bcc:	ef 16       	cp	r14, r31
    4bce:	f1 04       	cpc	r15, r1
    4bd0:	09 f0       	breq	.+2      	; 0x4bd4 <MifareDetectionAppProcess+0x26a>
    4bd2:	b3 cf       	rjmp	.-154    	; 0x4b3a <MifareDetectionAppProcess+0x1d0>
    4bd4:	84 30       	cpi	r24, 0x04	; 4
    4bd6:	09 f0       	breq	.+2      	; 0x4bda <MifareDetectionAppProcess+0x270>
    4bd8:	b0 cf       	rjmp	.-160    	; 0x4b3a <MifareDetectionAppProcess+0x1d0>
			memcpy(data_svae + 8, Buffer, 8);
    4bda:	88 e0       	ldi	r24, 0x08	; 8
    4bdc:	f8 01       	movw	r30, r16
    4bde:	ab e3       	ldi	r26, 0x3B	; 59
    4be0:	b1 e2       	ldi	r27, 0x21	; 33
    4be2:	01 90       	ld	r0, Z+
    4be4:	0d 92       	st	X+, r0
    4be6:	8a 95       	dec	r24
    4be8:	e1 f7       	brne	.-8      	; 0x4be2 <MifareDetectionAppProcess+0x278>
			if (!keyb_falg) {
    4bea:	80 91 43 21 	lds	r24, 0x2143	; 0x802143 <keyb_falg>
    4bee:	81 11       	cpse	r24, r1
    4bf0:	17 c0       	rjmp	.+46     	; 0x4c20 <MifareDetectionAppProcess+0x2b6>
				MemoryWriteBlock(data_svae, (turn_falga * MEM_BYTES_PER_BLOCK) + 4096, MEM_BYTES_PER_BLOCK);
    4bf2:	60 91 45 21 	lds	r22, 0x2145	; 0x802145 <turn_falga>
    4bf6:	70 e0       	ldi	r23, 0x00	; 0
    4bf8:	73 95       	inc	r23
    4bfa:	94 e0       	ldi	r25, 0x04	; 4
    4bfc:	66 0f       	add	r22, r22
    4bfe:	77 1f       	adc	r23, r23
    4c00:	9a 95       	dec	r25
    4c02:	e1 f7       	brne	.-8      	; 0x4bfc <MifareDetectionAppProcess+0x292>
    4c04:	40 e1       	ldi	r20, 0x10	; 16
    4c06:	50 e0       	ldi	r21, 0x00	; 0
    4c08:	83 e3       	ldi	r24, 0x33	; 51
    4c0a:	91 e2       	ldi	r25, 0x21	; 33
    4c0c:	0e 94 c8 09 	call	0x1390	; 0x1390 <MemoryWriteBlock>
				turn_falga++;
    4c10:	80 91 45 21 	lds	r24, 0x2145	; 0x802145 <turn_falga>
				turn_falga = turn_falga % 6;
    4c14:	8f 5f       	subi	r24, 0xFF	; 255
    4c16:	66 e0       	ldi	r22, 0x06	; 6
    4c18:	41 d7       	rcall	.+3714   	; 0x5a9c <__udivmodqi4>
    4c1a:	90 93 45 21 	sts	0x2145, r25	; 0x802145 <turn_falga>
    4c1e:	8d cf       	rjmp	.-230    	; 0x4b3a <MifareDetectionAppProcess+0x1d0>
				MemoryWriteBlock(data_svae, (turn_falgb * MEM_BYTES_PER_BLOCK) + 112 + 4096, MEM_BYTES_PER_BLOCK);
    4c20:	60 91 44 21 	lds	r22, 0x2144	; 0x802144 <turn_falgb>
    4c24:	70 e0       	ldi	r23, 0x00	; 0
    4c26:	69 5f       	subi	r22, 0xF9	; 249
    4c28:	7e 4f       	sbci	r23, 0xFE	; 254
    4c2a:	84 e0       	ldi	r24, 0x04	; 4
    4c2c:	66 0f       	add	r22, r22
    4c2e:	77 1f       	adc	r23, r23
    4c30:	8a 95       	dec	r24
    4c32:	e1 f7       	brne	.-8      	; 0x4c2c <MifareDetectionAppProcess+0x2c2>
    4c34:	40 e1       	ldi	r20, 0x10	; 16
    4c36:	50 e0       	ldi	r21, 0x00	; 0
    4c38:	83 e3       	ldi	r24, 0x33	; 51
    4c3a:	91 e2       	ldi	r25, 0x21	; 33
    4c3c:	0e 94 c8 09 	call	0x1390	; 0x1390 <MemoryWriteBlock>
				turn_falgb++;
    4c40:	80 91 44 21 	lds	r24, 0x2144	; 0x802144 <turn_falgb>
				turn_falgb = turn_falgb % 6;
    4c44:	8f 5f       	subi	r24, 0xFF	; 255
    4c46:	66 e0       	ldi	r22, 0x06	; 6
    4c48:	29 d7       	rcall	.+3666   	; 0x5a9c <__udivmodqi4>
    4c4a:	90 93 44 21 	sts	0x2144, r25	; 0x802144 <turn_falgb>
    4c4e:	75 cf       	rjmp	.-278    	; 0x4b3a <MifareDetectionAppProcess+0x1d0>

00004c50 <MifareDetectionInit>:

 void MifareDetectionInit(void) {
	 State = STATE_IDLE;
    4c50:	81 e0       	ldi	r24, 0x01	; 1
    4c52:	80 93 49 21 	sts	0x2149, r24	; 0x802149 <State>
	 CardATQAValue = MFCLASSIC_1K_ATQA_VALUE;
    4c56:	84 e0       	ldi	r24, 0x04	; 4
    4c58:	90 e0       	ldi	r25, 0x00	; 0
    4c5a:	80 93 47 21 	sts	0x2147, r24	; 0x802147 <CardATQAValue>
    4c5e:	90 93 48 21 	sts	0x2148, r25	; 0x802148 <CardATQAValue+0x1>
	 CardSAKValue = MFCLASSIC_1K_SAK_CL1_VALUE;
    4c62:	88 e0       	ldi	r24, 0x08	; 8
    4c64:	80 93 46 21 	sts	0x2146, r24	; 0x802146 <CardSAKValue>
 }
    4c68:	08 95       	ret

00004c6a <MifareDetectionReset>:

 void MifareDetectionReset(void) {
 }
    4c6a:	08 95       	ret

00004c6c <USB_Device_ProcessControlRequest>:
#if !defined(NO_DEVICE_REMOTE_WAKEUP)
bool    USB_Device_RemoteWakeupEnabled;
#endif

void USB_Device_ProcessControlRequest(void)
{
    4c6c:	0f 93       	push	r16
    4c6e:	1f 93       	push	r17
    4c70:	cf 93       	push	r28
    4c72:	df 93       	push	r29
    4c74:	cd b7       	in	r28, 0x3d	; 61
    4c76:	de b7       	in	r29, 0x3e	; 62
    4c78:	ea 97       	sbiw	r28, 0x3a	; 58
    4c7a:	cd bf       	out	0x3d, r28	; 61
    4c7c:	de bf       	out	0x3e, r29	; 62
    4c7e:	0f e6       	ldi	r16, 0x6F	; 111
    4c80:	13 e2       	ldi	r17, 0x23	; 35
	USB_ControlRequest.wLength       = Endpoint_Read_16_LE();
	#else
	uint8_t* RequestHeader = (uint8_t*)&USB_ControlRequest;

	for (uint8_t RequestHeaderByte = 0; RequestHeaderByte < sizeof(USB_Request_Header_t); RequestHeaderByte++)
	  *(RequestHeader++) = Endpoint_Read_8();
    4c82:	8c d2       	rcall	.+1304   	; 0x519c <Endpoint_Read_8>
    4c84:	f8 01       	movw	r30, r16
    4c86:	81 93       	st	Z+, r24
    4c88:	8f 01       	movw	r16, r30
	for (uint8_t RequestHeaderByte = 0; RequestHeaderByte < sizeof(USB_Request_Header_t); RequestHeaderByte++)
    4c8a:	f3 e2       	ldi	r31, 0x23	; 35
    4c8c:	07 37       	cpi	r16, 0x77	; 119
    4c8e:	1f 07       	cpc	r17, r31
    4c90:	c1 f7       	brne	.-16     	; 0x4c82 <USB_Device_ProcessControlRequest+0x16>
	#endif

	EVENT_USB_Device_ControlRequest();
    4c92:	0e 94 69 0e 	call	0x1cd2	; 0x1cd2 <EVENT_USB_Device_ControlRequest>

	if (Endpoint_IsSETUPReceived())
    4c96:	ee d2       	rcall	.+1500   	; 0x5274 <Endpoint_IsSETUPReceived>
    4c98:	88 23       	and	r24, r24
    4c9a:	81 f0       	breq	.+32     	; 0x4cbc <USB_Device_ProcessControlRequest+0x50>
	{
		uint8_t bmRequestType = USB_ControlRequest.bmRequestType;
    4c9c:	80 91 6f 23 	lds	r24, 0x236F	; 0x80236f <USB_ControlRequest>

		switch (USB_ControlRequest.bRequest)
    4ca0:	90 91 70 23 	lds	r25, 0x2370	; 0x802370 <USB_ControlRequest+0x1>
    4ca4:	95 30       	cpi	r25, 0x05	; 5
    4ca6:	09 f4       	brne	.+2      	; 0x4caa <USB_Device_ProcessControlRequest+0x3e>
    4ca8:	b6 c0       	rjmp	.+364    	; 0x4e16 <USB_Device_ProcessControlRequest+0x1aa>
    4caa:	a8 f4       	brcc	.+42     	; 0x4cd6 <USB_Device_ProcessControlRequest+0x6a>
    4cac:	91 30       	cpi	r25, 0x01	; 1
    4cae:	09 f4       	brne	.+2      	; 0x4cb2 <USB_Device_ProcessControlRequest+0x46>
    4cb0:	73 c0       	rjmp	.+230    	; 0x4d98 <USB_Device_ProcessControlRequest+0x12c>
    4cb2:	08 f4       	brcc	.+2      	; 0x4cb6 <USB_Device_ProcessControlRequest+0x4a>
    4cb4:	50 c0       	rjmp	.+160    	; 0x4d56 <USB_Device_ProcessControlRequest+0xea>
    4cb6:	93 30       	cpi	r25, 0x03	; 3
    4cb8:	09 f4       	brne	.+2      	; 0x4cbc <USB_Device_ProcessControlRequest+0x50>
			default:
				break;
		}
	}

	if (Endpoint_IsSETUPReceived())
    4cba:	6e c0       	rjmp	.+220    	; 0x4d98 <USB_Device_ProcessControlRequest+0x12c>
    4cbc:	db d2       	rcall	.+1462   	; 0x5274 <Endpoint_IsSETUPReceived>
	{
		Endpoint_ClearSETUP();
    4cbe:	88 23       	and	r24, r24
    4cc0:	11 f0       	breq	.+4      	; 0x4cc6 <USB_Device_ProcessControlRequest+0x5a>
		Endpoint_StallTransaction();
    4cc2:	f0 d2       	rcall	.+1504   	; 0x52a4 <Endpoint_ClearSETUP>
    4cc4:	1b d3       	rcall	.+1590   	; 0x52fc <Endpoint_StallTransaction>
	}
}
    4cc6:	ea 96       	adiw	r28, 0x3a	; 58
    4cc8:	cd bf       	out	0x3d, r28	; 61
    4cca:	de bf       	out	0x3e, r29	; 62
    4ccc:	df 91       	pop	r29
    4cce:	cf 91       	pop	r28
    4cd0:	1f 91       	pop	r17
    4cd2:	0f 91       	pop	r16
    4cd4:	08 95       	ret
		switch (USB_ControlRequest.bRequest)
    4cd6:	98 30       	cpi	r25, 0x08	; 8
    4cd8:	09 f4       	brne	.+2      	; 0x4cdc <USB_Device_ProcessControlRequest+0x70>
    4cda:	c3 c0       	rjmp	.+390    	; 0x4e62 <USB_Device_ProcessControlRequest+0x1f6>
    4cdc:	99 30       	cpi	r25, 0x09	; 9
    4cde:	09 f4       	brne	.+2      	; 0x4ce2 <USB_Device_ProcessControlRequest+0x76>
    4ce0:	c7 c0       	rjmp	.+398    	; 0x4e70 <USB_Device_ProcessControlRequest+0x204>
    4ce2:	96 30       	cpi	r25, 0x06	; 6
    4ce4:	59 f7       	brne	.-42     	; 0x4cbc <USB_Device_ProcessControlRequest+0x50>
				if ((bmRequestType == (REQDIR_DEVICETOHOST | REQTYPE_STANDARD | REQREC_DEVICE)) ||
    4ce6:	80 58       	subi	r24, 0x80	; 128
    4ce8:	82 30       	cpi	r24, 0x02	; 2
    4cea:	40 f7       	brcc	.-48     	; 0x4cbc <USB_Device_ProcessControlRequest+0x50>
	    !(defined(USE_FLASH_DESCRIPTORS) || defined(USE_EEPROM_DESCRIPTORS) || defined(USE_RAM_DESCRIPTORS))
	uint8_t DescriptorAddressSpace;
	#endif

	#if !defined(NO_INTERNAL_SERIAL) && (USE_INTERNAL_SERIAL != NO_DESCRIPTOR)
	if (USB_ControlRequest.wValue == ((DTYPE_String << 8) | USE_INTERNAL_SERIAL))
    4cec:	80 91 71 23 	lds	r24, 0x2371	; 0x802371 <USB_ControlRequest+0x2>
    4cf0:	90 91 72 23 	lds	r25, 0x2372	; 0x802372 <USB_ControlRequest+0x3>
    4cf4:	8c 3d       	cpi	r24, 0xDC	; 220
    4cf6:	e3 e0       	ldi	r30, 0x03	; 3
    4cf8:	9e 07       	cpc	r25, r30
    4cfa:	09 f0       	breq	.+2      	; 0x4cfe <USB_Device_ProcessControlRequest+0x92>
    4cfc:	a1 c0       	rjmp	.+322    	; 0x4e40 <USB_Device_ProcessControlRequest+0x1d4>
	SignatureDescriptor.Header.Type = DTYPE_String;
    4cfe:	83 e0       	ldi	r24, 0x03	; 3
    4d00:	8a 83       	std	Y+2, r24	; 0x02
	SignatureDescriptor.Header.Size = USB_STRING_LEN(INTERNAL_SERIAL_LENGTH_BITS / 4);
    4d02:	8a e3       	ldi	r24, 0x3A	; 58
    4d04:	89 83       	std	Y+1, r24	; 0x01
				#if (ARCH == ARCH_AVR8)
				return SREG;
				#elif (ARCH == ARCH_UC3)
				return __builtin_mfsr(AVR32_SR);
				#elif (ARCH == ARCH_XMEGA)
				return SREG;
    4d06:	4f b7       	in	r20, 0x3f	; 63
				#if (ARCH == ARCH_AVR8)
				cli();
				#elif (ARCH == ARCH_UC3)
				__builtin_ssrf(AVR32_SR_GM_OFFSET);
				#elif (ARCH == ARCH_XMEGA)
				cli();
    4d08:	f8 94       	cli
				#endif

				GCC_MEMORY_BARRIER();
    4d0a:	de 01       	movw	r26, r28
    4d0c:	13 96       	adiw	r26, 0x03	; 3
				uint_reg_t CurrentGlobalInt = GetGlobalInterruptMask();
				GlobalInterruptDisable();

				uint8_t SigReadAddress = INTERNAL_SERIAL_START_ADDRESS;

				for (uint8_t SerialCharNum = 0; SerialCharNum < (INTERNAL_SERIAL_LENGTH_BITS / 4); SerialCharNum++)
    4d0e:	20 e0       	ldi	r18, 0x00	; 0
				uint8_t SigReadAddress = INTERNAL_SERIAL_START_ADDRESS;
    4d10:	38 e0       	ldi	r19, 0x08	; 8
				{
					uint8_t SerialByte;

					NVM.CMD    = NVM_CMD_READ_CALIB_ROW_gc;
    4d12:	52 e0       	ldi	r21, 0x02	; 2
    4d14:	50 93 ca 01 	sts	0x01CA, r21	; 0x8001ca <__TEXT_REGION_LENGTH__+0x7001ca>
					SerialByte = pgm_read_byte(SigReadAddress);
    4d18:	e3 2f       	mov	r30, r19
    4d1a:	f0 e0       	ldi	r31, 0x00	; 0
    4d1c:	e4 91       	lpm	r30, Z
					NVM.CMD    = 0;
    4d1e:	10 92 ca 01 	sts	0x01CA, r1	; 0x8001ca <__TEXT_REGION_LENGTH__+0x7001ca>

					if (SerialCharNum & 0x01)
    4d22:	20 ff       	sbrs	r18, 0
    4d24:	03 c0       	rjmp	.+6      	; 0x4d2c <USB_Device_ProcessControlRequest+0xc0>
					{
						SerialByte >>= 4;
    4d26:	e2 95       	swap	r30
    4d28:	ef 70       	andi	r30, 0x0F	; 15
						SigReadAddress++;
    4d2a:	3f 5f       	subi	r19, 0xFF	; 255
					}

					SerialByte &= 0x0F;
    4d2c:	ef 70       	andi	r30, 0x0F	; 15
    4d2e:	8e 2f       	mov	r24, r30
    4d30:	90 e0       	ldi	r25, 0x00	; 0

					UnicodeString[SerialCharNum] = cpu_to_le16((SerialByte >= 10) ?
    4d32:	ea 30       	cpi	r30, 0x0A	; 10
    4d34:	08 f4       	brcc	.+2      	; 0x4d38 <USB_Device_ProcessControlRequest+0xcc>
    4d36:	82 c0       	rjmp	.+260    	; 0x4e3c <USB_Device_ProcessControlRequest+0x1d0>
    4d38:	c7 96       	adiw	r24, 0x37	; 55
    4d3a:	8d 93       	st	X+, r24
				for (uint8_t SerialCharNum = 0; SerialCharNum < (INTERNAL_SERIAL_LENGTH_BITS / 4); SerialCharNum++)
    4d3c:	9d 93       	st	X+, r25
    4d3e:	2f 5f       	subi	r18, 0xFF	; 255
    4d40:	2c 31       	cpi	r18, 0x1C	; 28
				SREG = GlobalIntState;
    4d42:	41 f7       	brne	.-48     	; 0x4d14 <USB_Device_ProcessControlRequest+0xa8>
	Endpoint_ClearSETUP();
    4d44:	4f bf       	out	0x3f, r20	; 63
	Endpoint_Write_Control_Stream_LE(&SignatureDescriptor, sizeof(SignatureDescriptor));
    4d46:	ae d2       	rcall	.+1372   	; 0x52a4 <Endpoint_ClearSETUP>
    4d48:	6a e3       	ldi	r22, 0x3A	; 58
    4d4a:	70 e0       	ldi	r23, 0x00	; 0
    4d4c:	ce 01       	movw	r24, r28
    4d4e:	01 96       	adiw	r24, 0x01	; 1
    4d50:	11 d1       	rcall	.+546    	; 0x4f74 <Endpoint_Write_Control_Stream_LE>
	  Endpoint_Write_Control_EStream_LE(DescriptorPointer, DescriptorSize);
	else
	  Endpoint_Write_Control_Stream_LE(DescriptorPointer, DescriptorSize);
	#endif

	Endpoint_ClearOUT();
    4d52:	15 d2       	rcall	.+1066   	; 0x517e <Endpoint_ClearOUT>
    4d54:	b3 cf       	rjmp	.-154    	; 0x4cbc <USB_Device_ProcessControlRequest+0x50>
    4d56:	80 38       	cpi	r24, 0x80	; 128
				if ((bmRequestType == (REQDIR_DEVICETOHOST | REQTYPE_STANDARD | REQREC_DEVICE)) ||
    4d58:	91 f0       	breq	.+36     	; 0x4d7e <USB_Device_ProcessControlRequest+0x112>
    4d5a:	82 38       	cpi	r24, 0x82	; 130
    4d5c:	09 f0       	breq	.+2      	; 0x4d60 <USB_Device_ProcessControlRequest+0xf4>
    4d5e:	ae cf       	rjmp	.-164    	; 0x4cbc <USB_Device_ProcessControlRequest+0x50>
			  CurrentStatus |= FEATURE_REMOTE_WAKEUP_ENABLED;
			#endif
			break;
		case (REQDIR_DEVICETOHOST | REQTYPE_STANDARD | REQREC_ENDPOINT):
			#if !defined(CONTROL_ONLY_DEVICE)
			Endpoint_SelectEndpoint((uint8_t)USB_ControlRequest.wIndex & ENDPOINT_EPNUM_MASK);
    4d60:	80 91 73 23 	lds	r24, 0x2373	; 0x802373 <USB_ControlRequest+0x4>
    4d64:	8f 70       	andi	r24, 0x0F	; 15
    4d66:	3a d2       	rcall	.+1140   	; 0x51dc <Endpoint_SelectEndpoint>
    4d68:	e0 91 79 23 	lds	r30, 0x2379	; 0x802379 <USB_Endpoint_SelectedHandle>
			 *  \return Boolean \c true if the currently selected endpoint is stalled, \c false otherwise.
			 */
			static inline bool Endpoint_IsStalled(void) ATTR_WARN_UNUSED_RESULT ATTR_ALWAYS_INLINE;
			static inline bool Endpoint_IsStalled(void)
			{
				return ((USB_Endpoint_SelectedHandle->CTRL & USB_EP_STALL_bm) ? true : false);
    4d6c:	f0 91 7a 23 	lds	r31, 0x237A	; 0x80237a <USB_Endpoint_SelectedHandle+0x1>
    4d70:	11 81       	ldd	r17, Z+1	; 0x01
    4d72:	12 fb       	bst	r17, 2
    4d74:	11 27       	eor	r17, r17
    4d76:	10 f9       	bld	r17, 0

			CurrentStatus = Endpoint_IsStalled();

			Endpoint_SelectEndpoint(ENDPOINT_CONTROLEP);
    4d78:	80 e0       	ldi	r24, 0x00	; 0
    4d7a:	30 d2       	rcall	.+1120   	; 0x51dc <Endpoint_SelectEndpoint>
	uint8_t CurrentStatus = 0;
    4d7c:	06 c0       	rjmp	.+12     	; 0x4d8a <USB_Device_ProcessControlRequest+0x11e>
			if (USB_Device_RemoteWakeupEnabled)
    4d7e:	10 91 6b 23 	lds	r17, 0x236B	; 0x80236b <USB_Device_CurrentlySelfPowered>
    4d82:	80 91 6c 23 	lds	r24, 0x236C	; 0x80236c <USB_Device_RemoteWakeupEnabled>
			break;
		default:
			return;
	}

	Endpoint_ClearSETUP();
    4d86:	81 11       	cpse	r24, r1
    4d88:	12 60       	ori	r17, 0x02	; 2
			 *  \param[in] Data  Data to write to the currently selected endpoint's FIFO buffer.
			 */
			static inline void Endpoint_Write_16_LE(const uint16_t Data) ATTR_ALWAYS_INLINE;
			static inline void Endpoint_Write_16_LE(const uint16_t Data)
			{
				Endpoint_Write_8(Data & 0xFF);
    4d8a:	8c d2       	rcall	.+1304   	; 0x52a4 <Endpoint_ClearSETUP>
    4d8c:	81 2f       	mov	r24, r17
    4d8e:	16 d2       	rcall	.+1068   	; 0x51bc <Endpoint_Write_8>
				Endpoint_Write_8(Data >> 8);
    4d90:	80 e0       	ldi	r24, 0x00	; 0
	Endpoint_Write_8(USB_Device_ConfigurationNumber);
    4d92:	14 d2       	rcall	.+1064   	; 0x51bc <Endpoint_Write_8>
    4d94:	db d1       	rcall	.+950    	; 0x514c <Endpoint_ClearIN>
	Endpoint_ClearIN();
    4d96:	27 c0       	rjmp	.+78     	; 0x4de6 <USB_Device_ProcessControlRequest+0x17a>
    4d98:	28 2f       	mov	r18, r24
    4d9a:	2d 7f       	andi	r18, 0xFD	; 253
				if ((bmRequestType == (REQDIR_HOSTTODEVICE | REQTYPE_STANDARD | REQREC_DEVICE)) ||
    4d9c:	09 f0       	breq	.+2      	; 0x4da0 <USB_Device_ProcessControlRequest+0x134>
    4d9e:	8e cf       	rjmp	.-228    	; 0x4cbc <USB_Device_ProcessControlRequest+0x50>
    4da0:	88 23       	and	r24, r24
    4da2:	a1 f0       	breq	.+40     	; 0x4dcc <USB_Device_ProcessControlRequest+0x160>
	Endpoint_ClearStatusStage();
}

static void USB_Device_ClearSetFeature(void)
{
	switch (USB_ControlRequest.bmRequestType & CONTROL_REQTYPE_RECIPIENT)
    4da4:	82 30       	cpi	r24, 0x02	; 2
    4da6:	09 f0       	breq	.+2      	; 0x4daa <USB_Device_ProcessControlRequest+0x13e>
    4da8:	89 cf       	rjmp	.-238    	; 0x4cbc <USB_Device_ProcessControlRequest+0x50>
    4daa:	80 91 71 23 	lds	r24, 0x2371	; 0x802371 <USB_ControlRequest+0x2>

			break;
		#endif
		#if !defined(CONTROL_ONLY_DEVICE)
		case REQREC_ENDPOINT:
			if ((uint8_t)USB_ControlRequest.wValue == FEATURE_SEL_EndpointHalt)
    4dae:	81 11       	cpse	r24, r1
    4db0:	17 c0       	rjmp	.+46     	; 0x4de0 <USB_Device_ProcessControlRequest+0x174>
			{
				uint8_t EndpointIndex = ((uint8_t)USB_ControlRequest.wIndex & ENDPOINT_EPNUM_MASK);
    4db2:	10 91 73 23 	lds	r17, 0x2373	; 0x802373 <USB_ControlRequest+0x4>
    4db6:	1f 70       	andi	r17, 0x0F	; 15

				if (EndpointIndex == ENDPOINT_CONTROLEP)
    4db8:	09 f4       	brne	.+2      	; 0x4dbc <USB_Device_ProcessControlRequest+0x150>
    4dba:	80 cf       	rjmp	.-256    	; 0x4cbc <USB_Device_ProcessControlRequest+0x50>
				  return;

				Endpoint_SelectEndpoint(EndpointIndex);
    4dbc:	81 2f       	mov	r24, r17
    4dbe:	0e d2       	rcall	.+1052   	; 0x51dc <Endpoint_SelectEndpoint>
    4dc0:	80 91 70 23 	lds	r24, 0x2370	; 0x802370 <USB_ControlRequest+0x1>

				if (Endpoint_IsEnabled())
				{
					if (USB_ControlRequest.bRequest == REQ_SetFeature)
    4dc4:	83 30       	cpi	r24, 0x03	; 3
    4dc6:	89 f4       	brne	.+34     	; 0x4dea <USB_Device_ProcessControlRequest+0x17e>
					{
						Endpoint_StallTransaction();
    4dc8:	99 d2       	rcall	.+1330   	; 0x52fc <Endpoint_StallTransaction>
    4dca:	0a c0       	rjmp	.+20     	; 0x4de0 <USB_Device_ProcessControlRequest+0x174>
			if ((uint8_t)USB_ControlRequest.wValue == FEATURE_SEL_DeviceRemoteWakeup)
    4dcc:	80 91 71 23 	lds	r24, 0x2371	; 0x802371 <USB_ControlRequest+0x2>
    4dd0:	81 30       	cpi	r24, 0x01	; 1
    4dd2:	09 f0       	breq	.+2      	; 0x4dd6 <USB_Device_ProcessControlRequest+0x16a>
    4dd4:	73 cf       	rjmp	.-282    	; 0x4cbc <USB_Device_ProcessControlRequest+0x50>
			  USB_Device_RemoteWakeupEnabled = (USB_ControlRequest.bRequest == REQ_SetFeature);
    4dd6:	93 30       	cpi	r25, 0x03	; 3
    4dd8:	09 f0       	breq	.+2      	; 0x4ddc <USB_Device_ProcessControlRequest+0x170>
    4dda:	80 e0       	ldi	r24, 0x00	; 0
    4ddc:	80 93 6c 23 	sts	0x236C, r24	; 0x80236c <USB_Device_RemoteWakeupEnabled>
		#endif
		default:
			return;
	}

	Endpoint_SelectEndpoint(ENDPOINT_CONTROLEP);
    4de0:	80 e0       	ldi	r24, 0x00	; 0
    4de2:	fc d1       	rcall	.+1016   	; 0x51dc <Endpoint_SelectEndpoint>
    4de4:	5f d2       	rcall	.+1214   	; 0x52a4 <Endpoint_ClearSETUP>

	Endpoint_ClearSETUP();
    4de6:	4b d3       	rcall	.+1686   	; 0x547e <Endpoint_ClearStatusStage>
    4de8:	69 cf       	rjmp	.-302    	; 0x4cbc <USB_Device_ProcessControlRequest+0x50>
	Endpoint_ClearStatusStage();
    4dea:	e0 91 79 23 	lds	r30, 0x2379	; 0x802379 <USB_Endpoint_SelectedHandle>
    4dee:	f0 91 7a 23 	lds	r31, 0x237A	; 0x80237a <USB_Endpoint_SelectedHandle+0x1>
				USB_Endpoint_SelectedHandle->CTRL &= ~USB_EP_STALL_bm;
    4df2:	81 81       	ldd	r24, Z+1	; 0x01
    4df4:	8b 7f       	andi	r24, 0xFB	; 251
    4df6:	81 83       	std	Z+1, r24	; 0x01
    4df8:	24 e8       	ldi	r18, 0x84	; 132
    4dfa:	12 9f       	mul	r17, r18
    4dfc:	f0 01       	movw	r30, r0
				  USB_Endpoint_FIFOs[Address & ENDPOINT_EPNUM_MASK].OUT.Position = 0;
    4dfe:	11 24       	eor	r1, r1
    4e00:	e3 54       	subi	r30, 0x43	; 67
    4e02:	fc 4d       	sbci	r31, 0xDC	; 220
    4e04:	10 82       	st	Z, r1
				USB_Endpoint_SelectedHandle->STATUS &= ~USB_EP_TOGGLE_bm;
    4e06:	e0 91 79 23 	lds	r30, 0x2379	; 0x802379 <USB_Endpoint_SelectedHandle>
    4e0a:	f0 91 7a 23 	lds	r31, 0x237A	; 0x80237a <USB_Endpoint_SelectedHandle+0x1>
    4e0e:	80 81       	ld	r24, Z
    4e10:	8e 7f       	andi	r24, 0xFE	; 254
    4e12:	80 83       	st	Z, r24
    4e14:	e5 cf       	rjmp	.-54     	; 0x4de0 <USB_Device_ProcessControlRequest+0x174>
				if (bmRequestType == (REQDIR_HOSTTODEVICE | REQTYPE_STANDARD | REQREC_DEVICE))
    4e16:	81 11       	cpse	r24, r1
    4e18:	51 cf       	rjmp	.-350    	; 0x4cbc <USB_Device_ProcessControlRequest+0x50>
	uint8_t DeviceAddress = (USB_ControlRequest.wValue & 0x7F);
    4e1a:	10 91 71 23 	lds	r17, 0x2371	; 0x802371 <USB_ControlRequest+0x2>
    4e1e:	1f 77       	andi	r17, 0x7F	; 127
	Endpoint_ClearSETUP();
    4e20:	41 d2       	rcall	.+1154   	; 0x52a4 <Endpoint_ClearSETUP>
    4e22:	2d d3       	rcall	.+1626   	; 0x547e <Endpoint_ClearStatusStage>
	Endpoint_ClearStatusStage();
    4e24:	03 d2       	rcall	.+1030   	; 0x522c <Endpoint_IsINReady>
    4e26:	88 23       	and	r24, r24
	while (!(Endpoint_IsINReady()));
    4e28:	e9 f3       	breq	.-6      	; 0x4e24 <USB_Device_ProcessControlRequest+0x1b8>
    4e2a:	10 93 c3 04 	sts	0x04C3, r17	; 0x8004c3 <__TEXT_REGION_LENGTH__+0x7004c3>
    4e2e:	83 e0       	ldi	r24, 0x03	; 3
				USB.ADDR = Address;
    4e30:	11 11       	cpse	r17, r1
	USB_DeviceState = (DeviceAddress) ? DEVICE_STATE_Addressed : DEVICE_STATE_Default;
    4e32:	01 c0       	rjmp	.+2      	; 0x4e36 <USB_Device_ProcessControlRequest+0x1ca>
    4e34:	82 e0       	ldi	r24, 0x02	; 2
    4e36:	80 93 6e 23 	sts	0x236E, r24	; 0x80236e <USB_DeviceState>
    4e3a:	40 cf       	rjmp	.-384    	; 0x4cbc <USB_Device_ProcessControlRequest+0x50>
    4e3c:	c0 96       	adiw	r24, 0x30	; 48
					UnicodeString[SerialCharNum] = cpu_to_le16((SerialByte >= 10) ?
    4e3e:	7d cf       	rjmp	.-262    	; 0x4d3a <USB_Device_ProcessControlRequest+0xce>
	if ((DescriptorSize = CALLBACK_USB_GetDescriptor(USB_ControlRequest.wValue, USB_ControlRequest.wIndex,
    4e40:	ae 01       	movw	r20, r28
    4e42:	4f 5f       	subi	r20, 0xFF	; 255
    4e44:	5f 4f       	sbci	r21, 0xFF	; 255
    4e46:	60 91 73 23 	lds	r22, 0x2373	; 0x802373 <USB_ControlRequest+0x4>
    4e4a:	0e 94 ef 06 	call	0xdde	; 0xdde <CALLBACK_USB_GetDescriptor>
    4e4e:	8c 01       	movw	r16, r24
    4e50:	89 2b       	or	r24, r25
    4e52:	09 f4       	brne	.+2      	; 0x4e56 <USB_Device_ProcessControlRequest+0x1ea>
	Endpoint_ClearSETUP();
    4e54:	33 cf       	rjmp	.-410    	; 0x4cbc <USB_Device_ProcessControlRequest+0x50>
    4e56:	26 d2       	rcall	.+1100   	; 0x52a4 <Endpoint_ClearSETUP>
	Endpoint_Write_Control_PStream_LE(DescriptorPointer, DescriptorSize);
    4e58:	b8 01       	movw	r22, r16
    4e5a:	89 81       	ldd	r24, Y+1	; 0x01
    4e5c:	9a 81       	ldd	r25, Y+2	; 0x02
    4e5e:	ff d0       	rcall	.+510    	; 0x505e <Endpoint_Write_Control_PStream_LE>
    4e60:	78 cf       	rjmp	.-272    	; 0x4d52 <USB_Device_ProcessControlRequest+0xe6>
				if (bmRequestType == (REQDIR_DEVICETOHOST | REQTYPE_STANDARD | REQREC_DEVICE))
    4e62:	80 38       	cpi	r24, 0x80	; 128
    4e64:	09 f0       	breq	.+2      	; 0x4e68 <USB_Device_ProcessControlRequest+0x1fc>
    4e66:	2a cf       	rjmp	.-428    	; 0x4cbc <USB_Device_ProcessControlRequest+0x50>
	Endpoint_ClearSETUP();
    4e68:	1d d2       	rcall	.+1082   	; 0x52a4 <Endpoint_ClearSETUP>
    4e6a:	80 91 6a 23 	lds	r24, 0x236A	; 0x80236a <USB_Device_ConfigurationNumber>
	Endpoint_Write_8(USB_Device_ConfigurationNumber);
    4e6e:	91 cf       	rjmp	.-222    	; 0x4d92 <USB_Device_ProcessControlRequest+0x126>
    4e70:	81 11       	cpse	r24, r1
				if (bmRequestType == (REQDIR_HOSTTODEVICE | REQTYPE_STANDARD | REQREC_DEVICE))
    4e72:	24 cf       	rjmp	.-440    	; 0x4cbc <USB_Device_ProcessControlRequest+0x50>
    4e74:	80 91 71 23 	lds	r24, 0x2371	; 0x802371 <USB_ControlRequest+0x2>
	if ((uint8_t)USB_ControlRequest.wValue > FIXED_NUM_CONFIGURATIONS)
    4e78:	82 30       	cpi	r24, 0x02	; 2
    4e7a:	08 f0       	brcs	.+2      	; 0x4e7e <USB_Device_ProcessControlRequest+0x212>
    4e7c:	1f cf       	rjmp	.-450    	; 0x4cbc <USB_Device_ProcessControlRequest+0x50>
    4e7e:	12 d2       	rcall	.+1060   	; 0x52a4 <Endpoint_ClearSETUP>
	Endpoint_ClearSETUP();
    4e80:	80 91 71 23 	lds	r24, 0x2371	; 0x802371 <USB_ControlRequest+0x2>
	USB_Device_ConfigurationNumber = (uint8_t)USB_ControlRequest.wValue;
    4e84:	80 93 6a 23 	sts	0x236A, r24	; 0x80236a <USB_Device_ConfigurationNumber>
    4e88:	fa d2       	rcall	.+1524   	; 0x547e <Endpoint_ClearStatusStage>
    4e8a:	80 91 6a 23 	lds	r24, 0x236A	; 0x80236a <USB_Device_ConfigurationNumber>
	Endpoint_ClearStatusStage();
    4e8e:	88 23       	and	r24, r24
	if (USB_Device_ConfigurationNumber)
    4e90:	31 f0       	breq	.+12     	; 0x4e9e <USB_Device_ProcessControlRequest+0x232>
    4e92:	84 e0       	ldi	r24, 0x04	; 4
    4e94:	80 93 6e 23 	sts	0x236E, r24	; 0x80236e <USB_DeviceState>
	  USB_DeviceState = (USB_Device_IsAddressSet()) ? DEVICE_STATE_Configured : DEVICE_STATE_Powered;
    4e98:	0e 94 65 0e 	call	0x1cca	; 0x1cca <EVENT_USB_Device_ConfigurationChanged>
    4e9c:	0f cf       	rjmp	.-482    	; 0x4cbc <USB_Device_ProcessControlRequest+0x50>
	EVENT_USB_Device_ConfigurationChanged();
    4e9e:	80 91 c3 04 	lds	r24, 0x04C3	; 0x8004c3 <__TEXT_REGION_LENGTH__+0x7004c3>
    4ea2:	81 11       	cpse	r24, r1
				return ((USB.ADDR != 0) ? true : false);
    4ea4:	f6 cf       	rjmp	.-20     	; 0x4e92 <USB_Device_ProcessControlRequest+0x226>
    4ea6:	81 e0       	ldi	r24, 0x01	; 1
	  USB_DeviceState = (USB_Device_IsAddressSet()) ? DEVICE_STATE_Configured : DEVICE_STATE_Powered;
    4ea8:	f5 cf       	rjmp	.-22     	; 0x4e94 <USB_Device_ProcessControlRequest+0x228>

00004eaa <USB_Event_Stub>:
#include "Events.h"

void USB_Event_Stub(void)
{

}
    4eaa:	08 95       	ret

00004eac <USB_USBTask>:
#if defined(USB_CAN_BE_DEVICE) && !defined(DEVICE_STATE_AS_GPIOR)
volatile uint8_t     USB_DeviceState;
#endif

void USB_USBTask(void)
{
    4eac:	cf 93       	push	r28
}

#if defined(USB_CAN_BE_DEVICE)
static void USB_DeviceTask(void)
{
	if (USB_DeviceState == DEVICE_STATE_Unattached)
    4eae:	80 91 6e 23 	lds	r24, 0x236E	; 0x80236e <USB_DeviceState>
    4eb2:	88 23       	and	r24, r24
    4eb4:	51 f0       	breq	.+20     	; 0x4eca <USB_USBTask+0x1e>
				return USB_Endpoint_SelectedEndpoint;
    4eb6:	c0 91 7b 23 	lds	r28, 0x237B	; 0x80237b <USB_Endpoint_SelectedEndpoint>
	  return;

	uint8_t PrevEndpoint = Endpoint_GetCurrentEndpoint();

	Endpoint_SelectEndpoint(ENDPOINT_CONTROLEP);
    4eba:	80 e0       	ldi	r24, 0x00	; 0
    4ebc:	8f d1       	rcall	.+798    	; 0x51dc <Endpoint_SelectEndpoint>

	if (Endpoint_IsSETUPReceived())
    4ebe:	da d1       	rcall	.+948    	; 0x5274 <Endpoint_IsSETUPReceived>
    4ec0:	81 11       	cpse	r24, r1
	  USB_Device_ProcessControlRequest();
    4ec2:	d4 de       	rcall	.-600    	; 0x4c6c <USB_Device_ProcessControlRequest>

	Endpoint_SelectEndpoint(PrevEndpoint);
    4ec4:	8c 2f       	mov	r24, r28
}
    4ec6:	cf 91       	pop	r28
	Endpoint_SelectEndpoint(PrevEndpoint);
    4ec8:	89 c1       	rjmp	.+786    	; 0x51dc <Endpoint_SelectEndpoint>
    4eca:	cf 91       	pop	r28
}
    4ecc:	08 95       	ret

00004ece <Endpoint_Write_Stream_LE>:
    4ece:	af 92       	push	r10
#if defined(TEMPLATE_FUNC_NAME)

uint8_t TEMPLATE_FUNC_NAME (TEMPLATE_BUFFER_TYPE const Buffer,
                            uint16_t Length,
                            uint16_t* const BytesProcessed)
{
    4ed0:	bf 92       	push	r11
    4ed2:	cf 92       	push	r12
    4ed4:	df 92       	push	r13
    4ed6:	ff 92       	push	r15
    4ed8:	0f 93       	push	r16
    4eda:	1f 93       	push	r17
    4edc:	cf 93       	push	r28
    4ede:	df 93       	push	r29
    4ee0:	6c 01       	movw	r12, r24
    4ee2:	eb 01       	movw	r28, r22
    4ee4:	8a 01       	movw	r16, r20
	uint8_t* DataStream      = ((uint8_t*)Buffer + TEMPLATE_BUFFER_OFFSET(Length));
	uint16_t BytesInTransfer = 0;
	uint8_t  ErrorCode;

	if ((ErrorCode = Endpoint_WaitUntilReady()))
    4ee6:	df d2       	rcall	.+1470   	; 0x54a6 <Endpoint_WaitUntilReady>
    4ee8:	f8 2e       	mov	r15, r24
    4eea:	81 11       	cpse	r24, r1
    4eec:	2a c0       	rjmp	.+84     	; 0x4f42 <Endpoint_Write_Stream_LE+0x74>
	  return ErrorCode;

	if (BytesProcessed != NULL)
    4eee:	01 15       	cp	r16, r1
    4ef0:	11 05       	cpc	r17, r1
    4ef2:	39 f0       	breq	.+14     	; 0x4f02 <Endpoint_Write_Stream_LE+0x34>
	{
		Length -= *BytesProcessed;
    4ef4:	f8 01       	movw	r30, r16
    4ef6:	80 81       	ld	r24, Z
    4ef8:	91 81       	ldd	r25, Z+1	; 0x01
    4efa:	c8 1b       	sub	r28, r24
    4efc:	d9 0b       	sbc	r29, r25
		TEMPLATE_BUFFER_MOVE(DataStream, *BytesProcessed);
    4efe:	c8 0e       	add	r12, r24
    4f00:	d9 1e       	adc	r13, r25
{
    4f02:	b1 2c       	mov	r11, r1
    4f04:	a1 2c       	mov	r10, r1
	}

	while (Length)
    4f06:	20 97       	sbiw	r28, 0x00	; 0
    4f08:	e1 f0       	breq	.+56     	; 0x4f42 <Endpoint_Write_Stream_LE+0x74>
			 *          on its direction.
			 */
			static inline bool Endpoint_IsReadWriteAllowed(void) ATTR_WARN_UNUSED_RESULT ATTR_ALWAYS_INLINE;
			static inline bool Endpoint_IsReadWriteAllowed(void)
			{
				return (USB_Endpoint_SelectedFIFO->Position < USB_Endpoint_SelectedFIFO->Length);
    4f0a:	80 91 77 23 	lds	r24, 0x2377	; 0x802377 <USB_Endpoint_SelectedFIFO>
    4f0e:	90 91 78 23 	lds	r25, 0x2378	; 0x802378 <USB_Endpoint_SelectedFIFO+0x1>
    4f12:	fc 01       	movw	r30, r24
    4f14:	ef 5b       	subi	r30, 0xBF	; 191
    4f16:	ff 4f       	sbci	r31, 0xFF	; 255
    4f18:	20 81       	ld	r18, Z
    4f1a:	80 5c       	subi	r24, 0xC0	; 192
    4f1c:	9f 4f       	sbci	r25, 0xFF	; 255
    4f1e:	fc 01       	movw	r30, r24
    4f20:	80 81       	ld	r24, Z
	{
		if (!(Endpoint_IsReadWriteAllowed()))
    4f22:	28 17       	cp	r18, r24
		{
			TEMPLATE_CLEAR_ENDPOINT();
    4f24:	f0 f0       	brcs	.+60     	; 0x4f62 <Endpoint_Write_Stream_LE+0x94>

			#if !defined(INTERRUPT_CONTROL_ENDPOINT)
			USB_USBTask();
    4f26:	12 d1       	rcall	.+548    	; 0x514c <Endpoint_ClearIN>
    4f28:	c1 df       	rcall	.-126    	; 0x4eac <USB_USBTask>
			#endif

			if (BytesProcessed != NULL)
    4f2a:	01 15       	cp	r16, r1
    4f2c:	11 05       	cpc	r17, r1
    4f2e:	a1 f0       	breq	.+40     	; 0x4f58 <Endpoint_Write_Stream_LE+0x8a>
			{
				*BytesProcessed += BytesInTransfer;
    4f30:	f8 01       	movw	r30, r16
    4f32:	80 81       	ld	r24, Z
    4f34:	91 81       	ldd	r25, Z+1	; 0x01
    4f36:	a8 0e       	add	r10, r24
    4f38:	b9 1e       	adc	r11, r25
    4f3a:	a0 82       	st	Z, r10
    4f3c:	b1 82       	std	Z+1, r11	; 0x01
				return ENDPOINT_RWSTREAM_IncompleteTransfer;
    4f3e:	85 e0       	ldi	r24, 0x05	; 5
    4f40:	f8 2e       	mov	r15, r24
			BytesInTransfer++;
		}
	}

	return ENDPOINT_RWSTREAM_NoError;
}
    4f42:	8f 2d       	mov	r24, r15
    4f44:	df 91       	pop	r29
    4f46:	cf 91       	pop	r28
    4f48:	1f 91       	pop	r17
    4f4a:	0f 91       	pop	r16
    4f4c:	ff 90       	pop	r15
    4f4e:	df 90       	pop	r13
    4f50:	cf 90       	pop	r12
    4f52:	bf 90       	pop	r11
    4f54:	af 90       	pop	r10
			if ((ErrorCode = Endpoint_WaitUntilReady()))
    4f56:	08 95       	ret
    4f58:	a6 d2       	rcall	.+1356   	; 0x54a6 <Endpoint_WaitUntilReady>
    4f5a:	88 23       	and	r24, r24
    4f5c:	a1 f2       	breq	.-88     	; 0x4f06 <Endpoint_Write_Stream_LE+0x38>
    4f5e:	f8 2e       	mov	r15, r24
			TEMPLATE_TRANSFER_BYTE(DataStream);
    4f60:	f0 cf       	rjmp	.-32     	; 0x4f42 <Endpoint_Write_Stream_LE+0x74>
    4f62:	f6 01       	movw	r30, r12
    4f64:	81 91       	ld	r24, Z+
    4f66:	6f 01       	movw	r12, r30
    4f68:	29 d1       	rcall	.+594    	; 0x51bc <Endpoint_Write_8>
			Length--;
    4f6a:	21 97       	sbiw	r28, 0x01	; 1
			BytesInTransfer++;
    4f6c:	ff ef       	ldi	r31, 0xFF	; 255
    4f6e:	af 1a       	sub	r10, r31
    4f70:	bf 0a       	sbc	r11, r31
    4f72:	c9 cf       	rjmp	.-110    	; 0x4f06 <Endpoint_Write_Stream_LE+0x38>

00004f74 <Endpoint_Write_Control_Stream_LE>:

#if defined(TEMPLATE_FUNC_NAME)

uint8_t TEMPLATE_FUNC_NAME (const void* const Buffer,
                            uint16_t Length)
{
    4f74:	df 92       	push	r13
    4f76:	ef 92       	push	r14
    4f78:	ff 92       	push	r15
    4f7a:	0f 93       	push	r16
    4f7c:	1f 93       	push	r17
    4f7e:	cf 93       	push	r28
    4f80:	df 93       	push	r29
    4f82:	7c 01       	movw	r14, r24
    4f84:	8b 01       	movw	r16, r22
	uint8_t* DataStream     = ((uint8_t*)Buffer + TEMPLATE_BUFFER_OFFSET(Length));
	bool     LastPacketFull = false;

	Endpoint_SelectEndpoint(USB_Endpoint_SelectedEndpoint | ENDPOINT_DIR_IN);
    4f86:	80 91 7b 23 	lds	r24, 0x237B	; 0x80237b <USB_Endpoint_SelectedEndpoint>
    4f8a:	80 68       	ori	r24, 0x80	; 128
    4f8c:	27 d1       	rcall	.+590    	; 0x51dc <Endpoint_SelectEndpoint>

	if (Length > USB_ControlRequest.wLength)
    4f8e:	80 91 75 23 	lds	r24, 0x2375	; 0x802375 <USB_ControlRequest+0x6>
    4f92:	90 91 76 23 	lds	r25, 0x2376	; 0x802376 <USB_ControlRequest+0x7>
    4f96:	80 17       	cp	r24, r16
    4f98:	91 07       	cpc	r25, r17
    4f9a:	80 f0       	brcs	.+32     	; 0x4fbc <Endpoint_Write_Control_Stream_LE+0x48>
	  Length = USB_ControlRequest.wLength;
	else if (!(Length))
    4f9c:	01 15       	cp	r16, r1
    4f9e:	11 05       	cpc	r17, r1
	  Endpoint_ClearIN();
    4fa0:	09 f4       	brne	.+2      	; 0x4fa4 <Endpoint_Write_Control_Stream_LE+0x30>
    4fa2:	d4 d0       	rcall	.+424    	; 0x514c <Endpoint_ClearIN>
    4fa4:	d1 2c       	mov	r13, r1

	while (Length || LastPacketFull)
    4fa6:	01 15       	cp	r16, r1
    4fa8:	11 05       	cpc	r17, r1
    4faa:	51 f4       	brne	.+20     	; 0x4fc0 <Endpoint_Write_Control_Stream_LE+0x4c>
    4fac:	d1 10       	cpse	r13, r1
			LastPacketFull = (BytesInEndpoint == USB_Device_ControlEndpointSize);
			Endpoint_ClearIN();
		}
	}

	while (!(Endpoint_IsOUTReceived()))
    4fae:	08 c0       	rjmp	.+16     	; 0x4fc0 <Endpoint_Write_Control_Stream_LE+0x4c>
    4fb0:	49 d1       	rcall	.+658    	; 0x5244 <Endpoint_IsOUTReceived>
    4fb2:	88 23       	and	r24, r24
    4fb4:	09 f4       	brne	.+2      	; 0x4fb8 <Endpoint_Write_Control_Stream_LE+0x44>
    4fb6:	48 c0       	rjmp	.+144    	; 0x5048 <Endpoint_Write_Control_Stream_LE+0xd4>
		  return ENDPOINT_RWCSTREAM_DeviceDisconnected;
		else if (USB_DeviceState_LCL == DEVICE_STATE_Suspended)
		  return ENDPOINT_RWCSTREAM_BusSuspended;
	}

	return ENDPOINT_RWCSTREAM_NoError;
    4fb8:	80 e0       	ldi	r24, 0x00	; 0
    4fba:	07 c0       	rjmp	.+14     	; 0x4fca <Endpoint_Write_Control_Stream_LE+0x56>
    4fbc:	8c 01       	movw	r16, r24
    4fbe:	f2 cf       	rjmp	.-28     	; 0x4fa4 <Endpoint_Write_Control_Stream_LE+0x30>
		uint8_t USB_DeviceState_LCL = USB_DeviceState;
    4fc0:	80 91 6e 23 	lds	r24, 0x236E	; 0x80236e <USB_DeviceState>
		if (USB_DeviceState_LCL == DEVICE_STATE_Unattached)
    4fc4:	81 11       	cpse	r24, r1
    4fc6:	09 c0       	rjmp	.+18     	; 0x4fda <Endpoint_Write_Control_Stream_LE+0x66>
		  return ENDPOINT_RWCSTREAM_DeviceDisconnected;
    4fc8:	82 e0       	ldi	r24, 0x02	; 2
}
    4fca:	df 91       	pop	r29
    4fcc:	cf 91       	pop	r28
    4fce:	1f 91       	pop	r17
    4fd0:	0f 91       	pop	r16
    4fd2:	ff 90       	pop	r15
    4fd4:	ef 90       	pop	r14
    4fd6:	df 90       	pop	r13
    4fd8:	08 95       	ret
		else if (USB_DeviceState_LCL == DEVICE_STATE_Suspended)
    4fda:	85 30       	cpi	r24, 0x05	; 5
		  return ENDPOINT_RWCSTREAM_BusSuspended;
    4fdc:	11 f4       	brne	.+4      	; 0x4fe2 <Endpoint_Write_Control_Stream_LE+0x6e>
    4fde:	83 e0       	ldi	r24, 0x03	; 3
		else if (Endpoint_IsSETUPReceived())
    4fe0:	f4 cf       	rjmp	.-24     	; 0x4fca <Endpoint_Write_Control_Stream_LE+0x56>
    4fe2:	48 d1       	rcall	.+656    	; 0x5274 <Endpoint_IsSETUPReceived>
    4fe4:	81 11       	cpse	r24, r1
		else if (Endpoint_IsOUTReceived())
    4fe6:	39 c0       	rjmp	.+114    	; 0x505a <Endpoint_Write_Control_Stream_LE+0xe6>
    4fe8:	2d d1       	rcall	.+602    	; 0x5244 <Endpoint_IsOUTReceived>
    4fea:	81 11       	cpse	r24, r1
    4fec:	e1 cf       	rjmp	.-62     	; 0x4fb0 <Endpoint_Write_Control_Stream_LE+0x3c>
		if (Endpoint_IsINReady())
    4fee:	1e d1       	rcall	.+572    	; 0x522c <Endpoint_IsINReady>
    4ff0:	88 23       	and	r24, r24
    4ff2:	c9 f2       	breq	.-78     	; 0x4fa6 <Endpoint_Write_Control_Stream_LE+0x32>
    4ff4:	20 91 7b 23 	lds	r18, 0x237B	; 0x80237b <USB_Endpoint_SelectedEndpoint>
				if (USB_Endpoint_SelectedEndpoint & ENDPOINT_DIR_IN)
    4ff8:	80 91 77 23 	lds	r24, 0x2377	; 0x802377 <USB_Endpoint_SelectedFIFO>
    4ffc:	90 91 78 23 	lds	r25, 0x2378	; 0x802378 <USB_Endpoint_SelectedFIFO+0x1>
    5000:	fc 01       	movw	r30, r24
    5002:	ef 5b       	subi	r30, 0xBF	; 191
    5004:	ff 4f       	sbci	r31, 0xFF	; 255
    5006:	27 ff       	sbrs	r18, 7
    5008:	0f c0       	rjmp	.+30     	; 0x5028 <Endpoint_Write_Control_Stream_LE+0xb4>
    500a:	c0 81       	ld	r28, Z
				  return USB_Endpoint_SelectedFIFO->Position;
    500c:	d0 e0       	ldi	r29, 0x00	; 0
    500e:	01 15       	cp	r16, r1
			while (Length && (BytesInEndpoint < USB_Device_ControlEndpointSize))
    5010:	11 05       	cpc	r17, r1
    5012:	19 f0       	breq	.+6      	; 0x501a <Endpoint_Write_Control_Stream_LE+0xa6>
    5014:	c8 30       	cpi	r28, 0x08	; 8
    5016:	d1 05       	cpc	r29, r1
    5018:	78 f0       	brcs	.+30     	; 0x5038 <Endpoint_Write_Control_Stream_LE+0xc4>
			LastPacketFull = (BytesInEndpoint == USB_Device_ControlEndpointSize);
    501a:	dd 24       	eor	r13, r13
    501c:	d3 94       	inc	r13
    501e:	28 97       	sbiw	r28, 0x08	; 8
    5020:	09 f0       	breq	.+2      	; 0x5024 <Endpoint_Write_Control_Stream_LE+0xb0>
    5022:	d1 2c       	mov	r13, r1
			Endpoint_ClearIN();
    5024:	93 d0       	rcall	.+294    	; 0x514c <Endpoint_ClearIN>
    5026:	bf cf       	rjmp	.-130    	; 0x4fa6 <Endpoint_Write_Control_Stream_LE+0x32>
    5028:	80 5c       	subi	r24, 0xC0	; 192
				  return (USB_Endpoint_SelectedFIFO->Length - USB_Endpoint_SelectedFIFO->Position);
    502a:	9f 4f       	sbci	r25, 0xFF	; 255
    502c:	dc 01       	movw	r26, r24
    502e:	cc 91       	ld	r28, X
    5030:	80 81       	ld	r24, Z
    5032:	c8 1b       	sub	r28, r24
    5034:	dd 0b       	sbc	r29, r29
    5036:	eb cf       	rjmp	.-42     	; 0x500e <Endpoint_Write_Control_Stream_LE+0x9a>
				TEMPLATE_TRANSFER_BYTE(DataStream);
    5038:	f7 01       	movw	r30, r14
    503a:	81 91       	ld	r24, Z+
    503c:	7f 01       	movw	r14, r30
    503e:	be d0       	rcall	.+380    	; 0x51bc <Endpoint_Write_8>
    5040:	01 50       	subi	r16, 0x01	; 1
				Length--;
    5042:	11 09       	sbc	r17, r1
    5044:	21 96       	adiw	r28, 0x01	; 1
				BytesInEndpoint++;
    5046:	e3 cf       	rjmp	.-58     	; 0x500e <Endpoint_Write_Control_Stream_LE+0x9a>
    5048:	80 91 6e 23 	lds	r24, 0x236E	; 0x80236e <USB_DeviceState>
		uint8_t USB_DeviceState_LCL = USB_DeviceState;
    504c:	88 23       	and	r24, r24
		if (USB_DeviceState_LCL == DEVICE_STATE_Unattached)
    504e:	09 f4       	brne	.+2      	; 0x5052 <Endpoint_Write_Control_Stream_LE+0xde>
    5050:	bb cf       	rjmp	.-138    	; 0x4fc8 <Endpoint_Write_Control_Stream_LE+0x54>
    5052:	85 30       	cpi	r24, 0x05	; 5
		else if (USB_DeviceState_LCL == DEVICE_STATE_Suspended)
    5054:	09 f0       	breq	.+2      	; 0x5058 <Endpoint_Write_Control_Stream_LE+0xe4>
    5056:	ac cf       	rjmp	.-168    	; 0x4fb0 <Endpoint_Write_Control_Stream_LE+0x3c>
    5058:	c2 cf       	rjmp	.-124    	; 0x4fde <Endpoint_Write_Control_Stream_LE+0x6a>
    505a:	81 e0       	ldi	r24, 0x01	; 1
		  return ENDPOINT_RWCSTREAM_HostAborted;
    505c:	b6 cf       	rjmp	.-148    	; 0x4fca <Endpoint_Write_Control_Stream_LE+0x56>

0000505e <Endpoint_Write_Control_PStream_LE>:
    505e:	df 92       	push	r13
{
    5060:	ef 92       	push	r14
    5062:	ff 92       	push	r15
    5064:	0f 93       	push	r16
    5066:	1f 93       	push	r17
    5068:	cf 93       	push	r28
    506a:	df 93       	push	r29
    506c:	7c 01       	movw	r14, r24
    506e:	8b 01       	movw	r16, r22
	Endpoint_SelectEndpoint(USB_Endpoint_SelectedEndpoint | ENDPOINT_DIR_IN);
    5070:	80 91 7b 23 	lds	r24, 0x237B	; 0x80237b <USB_Endpoint_SelectedEndpoint>
    5074:	80 68       	ori	r24, 0x80	; 128
    5076:	b2 d0       	rcall	.+356    	; 0x51dc <Endpoint_SelectEndpoint>
	if (Length > USB_ControlRequest.wLength)
    5078:	80 91 75 23 	lds	r24, 0x2375	; 0x802375 <USB_ControlRequest+0x6>
    507c:	90 91 76 23 	lds	r25, 0x2376	; 0x802376 <USB_ControlRequest+0x7>
    5080:	80 17       	cp	r24, r16
    5082:	91 07       	cpc	r25, r17
    5084:	80 f0       	brcs	.+32     	; 0x50a6 <Endpoint_Write_Control_PStream_LE+0x48>
	else if (!(Length))
    5086:	01 15       	cp	r16, r1
    5088:	11 05       	cpc	r17, r1
	  Endpoint_ClearIN();
    508a:	09 f4       	brne	.+2      	; 0x508e <Endpoint_Write_Control_PStream_LE+0x30>
    508c:	5f d0       	rcall	.+190    	; 0x514c <Endpoint_ClearIN>
    508e:	d1 2c       	mov	r13, r1
	while (Length || LastPacketFull)
    5090:	01 15       	cp	r16, r1
    5092:	11 05       	cpc	r17, r1
    5094:	51 f4       	brne	.+20     	; 0x50aa <Endpoint_Write_Control_PStream_LE+0x4c>
    5096:	d1 10       	cpse	r13, r1
	while (!(Endpoint_IsOUTReceived()))
    5098:	08 c0       	rjmp	.+16     	; 0x50aa <Endpoint_Write_Control_PStream_LE+0x4c>
    509a:	d4 d0       	rcall	.+424    	; 0x5244 <Endpoint_IsOUTReceived>
    509c:	88 23       	and	r24, r24
    509e:	09 f4       	brne	.+2      	; 0x50a2 <Endpoint_Write_Control_PStream_LE+0x44>
    50a0:	4a c0       	rjmp	.+148    	; 0x5136 <Endpoint_Write_Control_PStream_LE+0xd8>
	return ENDPOINT_RWCSTREAM_NoError;
    50a2:	80 e0       	ldi	r24, 0x00	; 0
    50a4:	07 c0       	rjmp	.+14     	; 0x50b4 <Endpoint_Write_Control_PStream_LE+0x56>
    50a6:	8c 01       	movw	r16, r24
    50a8:	f2 cf       	rjmp	.-28     	; 0x508e <Endpoint_Write_Control_PStream_LE+0x30>
		uint8_t USB_DeviceState_LCL = USB_DeviceState;
    50aa:	80 91 6e 23 	lds	r24, 0x236E	; 0x80236e <USB_DeviceState>
		if (USB_DeviceState_LCL == DEVICE_STATE_Unattached)
    50ae:	81 11       	cpse	r24, r1
    50b0:	09 c0       	rjmp	.+18     	; 0x50c4 <Endpoint_Write_Control_PStream_LE+0x66>
		  return ENDPOINT_RWCSTREAM_DeviceDisconnected;
    50b2:	82 e0       	ldi	r24, 0x02	; 2
}
    50b4:	df 91       	pop	r29
    50b6:	cf 91       	pop	r28
    50b8:	1f 91       	pop	r17
    50ba:	0f 91       	pop	r16
    50bc:	ff 90       	pop	r15
    50be:	ef 90       	pop	r14
    50c0:	df 90       	pop	r13
    50c2:	08 95       	ret
		else if (USB_DeviceState_LCL == DEVICE_STATE_Suspended)
    50c4:	85 30       	cpi	r24, 0x05	; 5
		  return ENDPOINT_RWCSTREAM_BusSuspended;
    50c6:	11 f4       	brne	.+4      	; 0x50cc <Endpoint_Write_Control_PStream_LE+0x6e>
    50c8:	83 e0       	ldi	r24, 0x03	; 3
		else if (Endpoint_IsSETUPReceived())
    50ca:	f4 cf       	rjmp	.-24     	; 0x50b4 <Endpoint_Write_Control_PStream_LE+0x56>
    50cc:	d3 d0       	rcall	.+422    	; 0x5274 <Endpoint_IsSETUPReceived>
    50ce:	81 11       	cpse	r24, r1
		else if (Endpoint_IsOUTReceived())
    50d0:	3b c0       	rjmp	.+118    	; 0x5148 <Endpoint_Write_Control_PStream_LE+0xea>
    50d2:	b8 d0       	rcall	.+368    	; 0x5244 <Endpoint_IsOUTReceived>
    50d4:	81 11       	cpse	r24, r1
    50d6:	e1 cf       	rjmp	.-62     	; 0x509a <Endpoint_Write_Control_PStream_LE+0x3c>
		if (Endpoint_IsINReady())
    50d8:	a9 d0       	rcall	.+338    	; 0x522c <Endpoint_IsINReady>
    50da:	88 23       	and	r24, r24
    50dc:	c9 f2       	breq	.-78     	; 0x5090 <Endpoint_Write_Control_PStream_LE+0x32>
    50de:	20 91 7b 23 	lds	r18, 0x237B	; 0x80237b <USB_Endpoint_SelectedEndpoint>
				if (USB_Endpoint_SelectedEndpoint & ENDPOINT_DIR_IN)
    50e2:	80 91 77 23 	lds	r24, 0x2377	; 0x802377 <USB_Endpoint_SelectedFIFO>
    50e6:	90 91 78 23 	lds	r25, 0x2378	; 0x802378 <USB_Endpoint_SelectedFIFO+0x1>
    50ea:	fc 01       	movw	r30, r24
    50ec:	ef 5b       	subi	r30, 0xBF	; 191
    50ee:	ff 4f       	sbci	r31, 0xFF	; 255
    50f0:	27 ff       	sbrs	r18, 7
    50f2:	0f c0       	rjmp	.+30     	; 0x5112 <Endpoint_Write_Control_PStream_LE+0xb4>
    50f4:	c0 81       	ld	r28, Z
				  return USB_Endpoint_SelectedFIFO->Position;
    50f6:	d0 e0       	ldi	r29, 0x00	; 0
    50f8:	01 15       	cp	r16, r1
			while (Length && (BytesInEndpoint < USB_Device_ControlEndpointSize))
    50fa:	11 05       	cpc	r17, r1
    50fc:	19 f0       	breq	.+6      	; 0x5104 <Endpoint_Write_Control_PStream_LE+0xa6>
    50fe:	c8 30       	cpi	r28, 0x08	; 8
    5100:	d1 05       	cpc	r29, r1
    5102:	78 f0       	brcs	.+30     	; 0x5122 <Endpoint_Write_Control_PStream_LE+0xc4>
			LastPacketFull = (BytesInEndpoint == USB_Device_ControlEndpointSize);
    5104:	dd 24       	eor	r13, r13
    5106:	d3 94       	inc	r13
    5108:	28 97       	sbiw	r28, 0x08	; 8
    510a:	09 f0       	breq	.+2      	; 0x510e <Endpoint_Write_Control_PStream_LE+0xb0>
    510c:	d1 2c       	mov	r13, r1
			Endpoint_ClearIN();
    510e:	1e d0       	rcall	.+60     	; 0x514c <Endpoint_ClearIN>
    5110:	bf cf       	rjmp	.-130    	; 0x5090 <Endpoint_Write_Control_PStream_LE+0x32>
    5112:	80 5c       	subi	r24, 0xC0	; 192
				  return (USB_Endpoint_SelectedFIFO->Length - USB_Endpoint_SelectedFIFO->Position);
    5114:	9f 4f       	sbci	r25, 0xFF	; 255
    5116:	dc 01       	movw	r26, r24
    5118:	cc 91       	ld	r28, X
    511a:	80 81       	ld	r24, Z
    511c:	c8 1b       	sub	r28, r24
    511e:	dd 0b       	sbc	r29, r29
    5120:	eb cf       	rjmp	.-42     	; 0x50f8 <Endpoint_Write_Control_PStream_LE+0x9a>
				TEMPLATE_TRANSFER_BYTE(DataStream);
    5122:	f7 01       	movw	r30, r14
    5124:	84 91       	lpm	r24, Z
    5126:	4a d0       	rcall	.+148    	; 0x51bc <Endpoint_Write_8>
    5128:	ff ef       	ldi	r31, 0xFF	; 255
				TEMPLATE_BUFFER_MOVE(DataStream, 1);
    512a:	ef 1a       	sub	r14, r31
    512c:	ff 0a       	sbc	r15, r31
    512e:	01 50       	subi	r16, 0x01	; 1
				Length--;
    5130:	11 09       	sbc	r17, r1
    5132:	21 96       	adiw	r28, 0x01	; 1
				BytesInEndpoint++;
    5134:	e1 cf       	rjmp	.-62     	; 0x50f8 <Endpoint_Write_Control_PStream_LE+0x9a>
    5136:	80 91 6e 23 	lds	r24, 0x236E	; 0x80236e <USB_DeviceState>
		uint8_t USB_DeviceState_LCL = USB_DeviceState;
    513a:	88 23       	and	r24, r24
		if (USB_DeviceState_LCL == DEVICE_STATE_Unattached)
    513c:	09 f4       	brne	.+2      	; 0x5140 <Endpoint_Write_Control_PStream_LE+0xe2>
    513e:	b9 cf       	rjmp	.-142    	; 0x50b2 <Endpoint_Write_Control_PStream_LE+0x54>
    5140:	85 30       	cpi	r24, 0x05	; 5
		else if (USB_DeviceState_LCL == DEVICE_STATE_Suspended)
    5142:	09 f0       	breq	.+2      	; 0x5146 <Endpoint_Write_Control_PStream_LE+0xe8>
    5144:	aa cf       	rjmp	.-172    	; 0x509a <Endpoint_Write_Control_PStream_LE+0x3c>
    5146:	c0 cf       	rjmp	.-128    	; 0x50c8 <Endpoint_Write_Control_PStream_LE+0x6a>
    5148:	81 e0       	ldi	r24, 0x01	; 1
		  return ENDPOINT_RWCSTREAM_HostAborted;
    514a:	b4 cf       	rjmp	.-152    	; 0x50b4 <Endpoint_Write_Control_PStream_LE+0x56>

0000514c <Endpoint_ClearIN>:
	USB_Endpoint_SelectedFIFO->Position  = 0;
}

void Endpoint_ClearIN(void)
{
	USB_Endpoint_SelectedHandle->CNT     = USB_Endpoint_SelectedFIFO->Position;
    514c:	e0 91 77 23 	lds	r30, 0x2377	; 0x802377 <USB_Endpoint_SelectedFIFO>
    5150:	f0 91 78 23 	lds	r31, 0x2378	; 0x802378 <USB_Endpoint_SelectedFIFO+0x1>
    5154:	ef 5b       	subi	r30, 0xBF	; 191
    5156:	ff 4f       	sbci	r31, 0xFF	; 255
    5158:	80 81       	ld	r24, Z
    515a:	e0 91 79 23 	lds	r30, 0x2379	; 0x802379 <USB_Endpoint_SelectedHandle>
    515e:	f0 91 7a 23 	lds	r31, 0x237A	; 0x80237a <USB_Endpoint_SelectedHandle+0x1>
    5162:	90 e0       	ldi	r25, 0x00	; 0
    5164:	82 83       	std	Z+2, r24	; 0x02
    5166:	93 83       	std	Z+3, r25	; 0x03
	USB_Endpoint_SelectedHandle->STATUS &= ~(USB_EP_TRNCOMPL0_bm | USB_EP_BUSNACK0_bm | USB_EP_OVF_bm);
    5168:	80 81       	ld	r24, Z
    516a:	8d 79       	andi	r24, 0x9D	; 157
    516c:	80 83       	st	Z, r24
	USB_Endpoint_SelectedFIFO->Position  = 0;
    516e:	e0 91 77 23 	lds	r30, 0x2377	; 0x802377 <USB_Endpoint_SelectedFIFO>
    5172:	f0 91 78 23 	lds	r31, 0x2378	; 0x802378 <USB_Endpoint_SelectedFIFO+0x1>
    5176:	ef 5b       	subi	r30, 0xBF	; 191
    5178:	ff 4f       	sbci	r31, 0xFF	; 255
    517a:	10 82       	st	Z, r1
}
    517c:	08 95       	ret

0000517e <Endpoint_ClearOUT>:

void Endpoint_ClearOUT(void)
{
	USB_Endpoint_SelectedHandle->STATUS &= ~(USB_EP_TRNCOMPL0_bm | USB_EP_BUSNACK0_bm | USB_EP_OVF_bm);
    517e:	e0 91 79 23 	lds	r30, 0x2379	; 0x802379 <USB_Endpoint_SelectedHandle>
    5182:	f0 91 7a 23 	lds	r31, 0x237A	; 0x80237a <USB_Endpoint_SelectedHandle+0x1>
    5186:	80 81       	ld	r24, Z
    5188:	8d 79       	andi	r24, 0x9D	; 157
    518a:	80 83       	st	Z, r24
	USB_Endpoint_SelectedFIFO->Position  = 0;
    518c:	e0 91 77 23 	lds	r30, 0x2377	; 0x802377 <USB_Endpoint_SelectedFIFO>
    5190:	f0 91 78 23 	lds	r31, 0x2378	; 0x802378 <USB_Endpoint_SelectedFIFO+0x1>
    5194:	ef 5b       	subi	r30, 0xBF	; 191
    5196:	ff 4f       	sbci	r31, 0xFF	; 255
    5198:	10 82       	st	Z, r1
}
    519a:	08 95       	ret

0000519c <Endpoint_Read_8>:
	}
}

uint8_t Endpoint_Read_8(void)
{
	return USB_Endpoint_SelectedFIFO->Data[USB_Endpoint_SelectedFIFO->Position++];
    519c:	80 91 77 23 	lds	r24, 0x2377	; 0x802377 <USB_Endpoint_SelectedFIFO>
    51a0:	90 91 78 23 	lds	r25, 0x2378	; 0x802378 <USB_Endpoint_SelectedFIFO+0x1>
    51a4:	dc 01       	movw	r26, r24
    51a6:	af 5b       	subi	r26, 0xBF	; 191
    51a8:	bf 4f       	sbci	r27, 0xFF	; 255
    51aa:	ec 91       	ld	r30, X
    51ac:	21 e0       	ldi	r18, 0x01	; 1
    51ae:	2e 0f       	add	r18, r30
    51b0:	2c 93       	st	X, r18
    51b2:	e8 0f       	add	r30, r24
    51b4:	f9 2f       	mov	r31, r25
    51b6:	f1 1d       	adc	r31, r1
    51b8:	80 81       	ld	r24, Z
}
    51ba:	08 95       	ret

000051bc <Endpoint_Write_8>:

void Endpoint_Write_8(const uint8_t Data)
{
	USB_Endpoint_SelectedFIFO->Data[USB_Endpoint_SelectedFIFO->Position++] = Data;
    51bc:	20 91 77 23 	lds	r18, 0x2377	; 0x802377 <USB_Endpoint_SelectedFIFO>
    51c0:	30 91 78 23 	lds	r19, 0x2378	; 0x802378 <USB_Endpoint_SelectedFIFO+0x1>
    51c4:	d9 01       	movw	r26, r18
    51c6:	af 5b       	subi	r26, 0xBF	; 191
    51c8:	bf 4f       	sbci	r27, 0xFF	; 255
    51ca:	ec 91       	ld	r30, X
    51cc:	91 e0       	ldi	r25, 0x01	; 1
    51ce:	9e 0f       	add	r25, r30
    51d0:	9c 93       	st	X, r25
    51d2:	e2 0f       	add	r30, r18
    51d4:	f3 2f       	mov	r31, r19
    51d6:	f1 1d       	adc	r31, r1
    51d8:	80 83       	st	Z, r24
}
    51da:	08 95       	ret

000051dc <Endpoint_SelectEndpoint>:

void Endpoint_SelectEndpoint(const uint8_t Address)
{
	uint8_t EndpointNumber = (Address & ENDPOINT_EPNUM_MASK);
    51dc:	28 2f       	mov	r18, r24
    51de:	2f 70       	andi	r18, 0x0F	; 15

	USB_Endpoint_SelectedEndpoint = Address;
    51e0:	80 93 7b 23 	sts	0x237B, r24	; 0x80237b <USB_Endpoint_SelectedEndpoint>

	Endpoint_FIFOPair_t* EndpointFIFOPair = &USB_Endpoint_FIFOs[EndpointNumber];
	USB_EndpointTable_t* EndpointTable    = (USB_EndpointTable_t*)USB.EPPTR;
    51e4:	40 91 c6 04 	lds	r20, 0x04C6	; 0x8004c6 <__TEXT_REGION_LENGTH__+0x7004c6>
    51e8:	50 91 c7 04 	lds	r21, 0x04C7	; 0x8004c7 <__TEXT_REGION_LENGTH__+0x7004c7>
    51ec:	94 e8       	ldi	r25, 0x84	; 132
    51ee:	29 9f       	mul	r18, r25
    51f0:	b0 01       	movw	r22, r0
    51f2:	11 24       	eor	r1, r1
    51f4:	90 e1       	ldi	r25, 0x10	; 16
    51f6:	29 9f       	mul	r18, r25
    51f8:	90 01       	movw	r18, r0
    51fa:	11 24       	eor	r1, r1

	if (Address & ENDPOINT_DIR_IN)
    51fc:	87 ff       	sbrs	r24, 7
    51fe:	0f c0       	rjmp	.+30     	; 0x521e <Endpoint_SelectEndpoint+0x42>
	{
		USB_Endpoint_SelectedFIFO   = &EndpointFIFOPair->IN;
    5200:	62 54       	subi	r22, 0x42	; 66
    5202:	7c 4d       	sbci	r23, 0xDC	; 220
    5204:	60 93 77 23 	sts	0x2377, r22	; 0x802377 <USB_Endpoint_SelectedFIFO>
    5208:	70 93 78 23 	sts	0x2378, r23	; 0x802378 <USB_Endpoint_SelectedFIFO+0x1>
		USB_Endpoint_SelectedHandle = &EndpointTable->Endpoints[EndpointNumber].IN;
    520c:	28 5f       	subi	r18, 0xF8	; 248
    520e:	3f 4f       	sbci	r19, 0xFF	; 255
	}
	else
	{
		USB_Endpoint_SelectedFIFO   = &EndpointFIFOPair->OUT;
		USB_Endpoint_SelectedHandle = &EndpointTable->Endpoints[EndpointNumber].OUT;
    5210:	24 0f       	add	r18, r20
    5212:	35 1f       	adc	r19, r21
    5214:	20 93 79 23 	sts	0x2379, r18	; 0x802379 <USB_Endpoint_SelectedHandle>
    5218:	30 93 7a 23 	sts	0x237A, r19	; 0x80237a <USB_Endpoint_SelectedHandle+0x1>
	}
}
    521c:	08 95       	ret
		USB_Endpoint_SelectedFIFO   = &EndpointFIFOPair->OUT;
    521e:	64 58       	subi	r22, 0x84	; 132
    5220:	7c 4d       	sbci	r23, 0xDC	; 220
    5222:	60 93 77 23 	sts	0x2377, r22	; 0x802377 <USB_Endpoint_SelectedFIFO>
    5226:	70 93 78 23 	sts	0x2378, r23	; 0x802378 <USB_Endpoint_SelectedFIFO+0x1>
    522a:	f2 cf       	rjmp	.-28     	; 0x5210 <Endpoint_SelectEndpoint+0x34>

0000522c <Endpoint_IsINReady>:
	Endpoint_SelectEndpoint(USB_Endpoint_SelectedEndpoint | ENDPOINT_DIR_IN);
    522c:	80 91 7b 23 	lds	r24, 0x237B	; 0x80237b <USB_Endpoint_SelectedEndpoint>
    5230:	80 68       	ori	r24, 0x80	; 128
    5232:	d4 df       	rcall	.-88     	; 0x51dc <Endpoint_SelectEndpoint>
	return ((USB_Endpoint_SelectedHandle->STATUS & USB_EP_BUSNACK0_bm) ? true : false);
    5234:	e0 91 79 23 	lds	r30, 0x2379	; 0x802379 <USB_Endpoint_SelectedHandle>
    5238:	f0 91 7a 23 	lds	r31, 0x237A	; 0x80237a <USB_Endpoint_SelectedHandle+0x1>
    523c:	80 81       	ld	r24, Z
}
    523e:	86 95       	lsr	r24
    5240:	81 70       	andi	r24, 0x01	; 1
    5242:	08 95       	ret

00005244 <Endpoint_IsOUTReceived>:
	Endpoint_SelectEndpoint(USB_Endpoint_SelectedEndpoint & ~ENDPOINT_DIR_IN);
    5244:	80 91 7b 23 	lds	r24, 0x237B	; 0x80237b <USB_Endpoint_SelectedEndpoint>
    5248:	8f 77       	andi	r24, 0x7F	; 127
    524a:	c8 df       	rcall	.-112    	; 0x51dc <Endpoint_SelectEndpoint>
	if (USB_Endpoint_SelectedHandle->STATUS & USB_EP_TRNCOMPL0_bm)
    524c:	e0 91 79 23 	lds	r30, 0x2379	; 0x802379 <USB_Endpoint_SelectedHandle>
    5250:	f0 91 7a 23 	lds	r31, 0x237A	; 0x80237a <USB_Endpoint_SelectedHandle+0x1>
    5254:	80 81       	ld	r24, Z
    5256:	85 ff       	sbrs	r24, 5
    5258:	0b c0       	rjmp	.+22     	; 0x5270 <Endpoint_IsOUTReceived+0x2c>
		USB_Endpoint_SelectedFIFO->Length = USB_Endpoint_SelectedHandle->CNT;
    525a:	82 81       	ldd	r24, Z+2	; 0x02
    525c:	93 81       	ldd	r25, Z+3	; 0x03
    525e:	e0 91 77 23 	lds	r30, 0x2377	; 0x802377 <USB_Endpoint_SelectedFIFO>
    5262:	f0 91 78 23 	lds	r31, 0x2378	; 0x802378 <USB_Endpoint_SelectedFIFO+0x1>
    5266:	e0 5c       	subi	r30, 0xC0	; 192
    5268:	ff 4f       	sbci	r31, 0xFF	; 255
    526a:	80 83       	st	Z, r24
		return true;
    526c:	81 e0       	ldi	r24, 0x01	; 1
    526e:	08 95       	ret
	return false;
    5270:	80 e0       	ldi	r24, 0x00	; 0
}
    5272:	08 95       	ret

00005274 <Endpoint_IsSETUPReceived>:
	Endpoint_SelectEndpoint(USB_Endpoint_SelectedEndpoint & ~ENDPOINT_DIR_IN);
    5274:	80 91 7b 23 	lds	r24, 0x237B	; 0x80237b <USB_Endpoint_SelectedEndpoint>
    5278:	8f 77       	andi	r24, 0x7F	; 127
    527a:	b0 df       	rcall	.-160    	; 0x51dc <Endpoint_SelectEndpoint>
	if (USB_Endpoint_SelectedHandle->STATUS & USB_EP_SETUP_bm)
    527c:	e0 91 79 23 	lds	r30, 0x2379	; 0x802379 <USB_Endpoint_SelectedHandle>
    5280:	f0 91 7a 23 	lds	r31, 0x237A	; 0x80237a <USB_Endpoint_SelectedHandle+0x1>
    5284:	80 81       	ld	r24, Z
    5286:	84 ff       	sbrs	r24, 4
    5288:	0b c0       	rjmp	.+22     	; 0x52a0 <Endpoint_IsSETUPReceived+0x2c>
		USB_Endpoint_SelectedFIFO->Length = USB_Endpoint_SelectedHandle->CNT;
    528a:	82 81       	ldd	r24, Z+2	; 0x02
    528c:	93 81       	ldd	r25, Z+3	; 0x03
    528e:	e0 91 77 23 	lds	r30, 0x2377	; 0x802377 <USB_Endpoint_SelectedFIFO>
    5292:	f0 91 78 23 	lds	r31, 0x2378	; 0x802378 <USB_Endpoint_SelectedFIFO+0x1>
    5296:	e0 5c       	subi	r30, 0xC0	; 192
    5298:	ff 4f       	sbci	r31, 0xFF	; 255
    529a:	80 83       	st	Z, r24
		return true;
    529c:	81 e0       	ldi	r24, 0x01	; 1
    529e:	08 95       	ret
	return false;
    52a0:	80 e0       	ldi	r24, 0x00	; 0
}
    52a2:	08 95       	ret

000052a4 <Endpoint_ClearSETUP>:
	Endpoint_SelectEndpoint(USB_Endpoint_SelectedEndpoint & ~ENDPOINT_DIR_IN);
    52a4:	80 91 7b 23 	lds	r24, 0x237B	; 0x80237b <USB_Endpoint_SelectedEndpoint>
    52a8:	8f 77       	andi	r24, 0x7F	; 127
    52aa:	98 df       	rcall	.-208    	; 0x51dc <Endpoint_SelectEndpoint>
	USB_Endpoint_SelectedHandle->STATUS &= ~(USB_EP_SETUP_bm | USB_EP_TRNCOMPL0_bm | USB_EP_BUSNACK0_bm | USB_EP_OVF_bm);
    52ac:	e0 91 79 23 	lds	r30, 0x2379	; 0x802379 <USB_Endpoint_SelectedHandle>
    52b0:	f0 91 7a 23 	lds	r31, 0x237A	; 0x80237a <USB_Endpoint_SelectedHandle+0x1>
    52b4:	80 81       	ld	r24, Z
    52b6:	8d 78       	andi	r24, 0x8D	; 141
    52b8:	80 83       	st	Z, r24
	USB_Endpoint_SelectedHandle->STATUS |= USB_EP_TOGGLE_bm;
    52ba:	e0 91 79 23 	lds	r30, 0x2379	; 0x802379 <USB_Endpoint_SelectedHandle>
    52be:	f0 91 7a 23 	lds	r31, 0x237A	; 0x80237a <USB_Endpoint_SelectedHandle+0x1>
    52c2:	80 81       	ld	r24, Z
    52c4:	81 60       	ori	r24, 0x01	; 1
    52c6:	80 83       	st	Z, r24
	USB_Endpoint_SelectedFIFO->Position  = 0;
    52c8:	e0 91 77 23 	lds	r30, 0x2377	; 0x802377 <USB_Endpoint_SelectedFIFO>
    52cc:	f0 91 78 23 	lds	r31, 0x2378	; 0x802378 <USB_Endpoint_SelectedFIFO+0x1>
    52d0:	ef 5b       	subi	r30, 0xBF	; 191
    52d2:	ff 4f       	sbci	r31, 0xFF	; 255
    52d4:	10 82       	st	Z, r1
	Endpoint_SelectEndpoint(USB_Endpoint_SelectedEndpoint | ENDPOINT_DIR_IN);
    52d6:	80 91 7b 23 	lds	r24, 0x237B	; 0x80237b <USB_Endpoint_SelectedEndpoint>
    52da:	80 68       	ori	r24, 0x80	; 128
    52dc:	7f df       	rcall	.-258    	; 0x51dc <Endpoint_SelectEndpoint>
	USB_Endpoint_SelectedHandle->STATUS |= USB_EP_TOGGLE_bm;
    52de:	e0 91 79 23 	lds	r30, 0x2379	; 0x802379 <USB_Endpoint_SelectedHandle>
    52e2:	f0 91 7a 23 	lds	r31, 0x237A	; 0x80237a <USB_Endpoint_SelectedHandle+0x1>
    52e6:	80 81       	ld	r24, Z
    52e8:	81 60       	ori	r24, 0x01	; 1
    52ea:	80 83       	st	Z, r24
	USB_Endpoint_SelectedFIFO->Position  = 0;
    52ec:	e0 91 77 23 	lds	r30, 0x2377	; 0x802377 <USB_Endpoint_SelectedFIFO>
    52f0:	f0 91 78 23 	lds	r31, 0x2378	; 0x802378 <USB_Endpoint_SelectedFIFO+0x1>
    52f4:	ef 5b       	subi	r30, 0xBF	; 191
    52f6:	ff 4f       	sbci	r31, 0xFF	; 255
    52f8:	10 82       	st	Z, r1
}
    52fa:	08 95       	ret

000052fc <Endpoint_StallTransaction>:
	USB_Endpoint_SelectedHandle->CTRL |= USB_EP_STALL_bm;
    52fc:	e0 91 79 23 	lds	r30, 0x2379	; 0x802379 <USB_Endpoint_SelectedHandle>
    5300:	f0 91 7a 23 	lds	r31, 0x237A	; 0x80237a <USB_Endpoint_SelectedHandle+0x1>
    5304:	81 81       	ldd	r24, Z+1	; 0x01
    5306:	84 60       	ori	r24, 0x04	; 4
    5308:	81 83       	std	Z+1, r24	; 0x01
	if ((USB_Endpoint_SelectedHandle->CTRL & USB_EP_TYPE_gm) == USB_EP_TYPE_CONTROL_gc)
    530a:	e0 91 79 23 	lds	r30, 0x2379	; 0x802379 <USB_Endpoint_SelectedHandle>
    530e:	f0 91 7a 23 	lds	r31, 0x237A	; 0x80237a <USB_Endpoint_SelectedHandle+0x1>
    5312:	81 81       	ldd	r24, Z+1	; 0x01
    5314:	80 7c       	andi	r24, 0xC0	; 192
    5316:	80 34       	cpi	r24, 0x40	; 64
    5318:	59 f4       	brne	.+22     	; 0x5330 <Endpoint_StallTransaction+0x34>
		Endpoint_SelectEndpoint(USB_Endpoint_SelectedEndpoint ^ ENDPOINT_DIR_IN);
    531a:	80 91 7b 23 	lds	r24, 0x237B	; 0x80237b <USB_Endpoint_SelectedEndpoint>
    531e:	80 58       	subi	r24, 0x80	; 128
    5320:	5d df       	rcall	.-326    	; 0x51dc <Endpoint_SelectEndpoint>
		USB_Endpoint_SelectedHandle->CTRL |= USB_EP_STALL_bm;
    5322:	e0 91 79 23 	lds	r30, 0x2379	; 0x802379 <USB_Endpoint_SelectedHandle>
    5326:	f0 91 7a 23 	lds	r31, 0x237A	; 0x80237a <USB_Endpoint_SelectedHandle+0x1>
    532a:	81 81       	ldd	r24, Z+1	; 0x01
    532c:	84 60       	ori	r24, 0x04	; 4
    532e:	81 83       	std	Z+1, r24	; 0x01
}
    5330:	08 95       	ret

00005332 <Endpoint_ConfigureEndpoint_PRV>:
}

bool Endpoint_ConfigureEndpoint_PRV(const uint8_t Address,
                                    const uint8_t Config,
                                    const uint8_t Size)
{
    5332:	1f 93       	push	r17
    5334:	cf 93       	push	r28
    5336:	df 93       	push	r29
    5338:	c8 2f       	mov	r28, r24
    533a:	16 2f       	mov	r17, r22
    533c:	d4 2f       	mov	r29, r20
	Endpoint_SelectEndpoint(Address);
    533e:	4e df       	rcall	.-356    	; 0x51dc <Endpoint_SelectEndpoint>

	USB_Endpoint_SelectedHandle->CTRL    = 0;
    5340:	e0 91 79 23 	lds	r30, 0x2379	; 0x802379 <USB_Endpoint_SelectedHandle>
    5344:	f0 91 7a 23 	lds	r31, 0x237A	; 0x80237a <USB_Endpoint_SelectedHandle+0x1>
    5348:	11 82       	std	Z+1, r1	; 0x01
	USB_Endpoint_SelectedHandle->STATUS  = (Address & ENDPOINT_DIR_IN) ? USB_EP_BUSNACK0_bm : 0;
    534a:	e0 91 79 23 	lds	r30, 0x2379	; 0x802379 <USB_Endpoint_SelectedHandle>
    534e:	f0 91 7a 23 	lds	r31, 0x237A	; 0x80237a <USB_Endpoint_SelectedHandle+0x1>
    5352:	8c 2f       	mov	r24, r28
    5354:	86 fb       	bst	r24, 6
    5356:	88 0f       	add	r24, r24
    5358:	88 0b       	sbc	r24, r24
    535a:	80 f9       	bld	r24, 0
    535c:	82 70       	andi	r24, 0x02	; 2
    535e:	80 83       	st	Z, r24
	USB_Endpoint_SelectedHandle->CTRL    = Config;
    5360:	e0 91 79 23 	lds	r30, 0x2379	; 0x802379 <USB_Endpoint_SelectedHandle>
    5364:	f0 91 7a 23 	lds	r31, 0x237A	; 0x80237a <USB_Endpoint_SelectedHandle+0x1>
    5368:	11 83       	std	Z+1, r17	; 0x01
	USB_Endpoint_SelectedHandle->CNT     = 0;
    536a:	e0 91 79 23 	lds	r30, 0x2379	; 0x802379 <USB_Endpoint_SelectedHandle>
    536e:	f0 91 7a 23 	lds	r31, 0x237A	; 0x80237a <USB_Endpoint_SelectedHandle+0x1>
    5372:	12 82       	std	Z+2, r1	; 0x02
    5374:	13 82       	std	Z+3, r1	; 0x03
	USB_Endpoint_SelectedHandle->DATAPTR = (intptr_t)USB_Endpoint_SelectedFIFO->Data;
    5376:	80 91 77 23 	lds	r24, 0x2377	; 0x802377 <USB_Endpoint_SelectedFIFO>
    537a:	90 91 78 23 	lds	r25, 0x2378	; 0x802378 <USB_Endpoint_SelectedFIFO+0x1>
    537e:	84 83       	std	Z+4, r24	; 0x04
    5380:	95 83       	std	Z+5, r25	; 0x05

	USB_Endpoint_SelectedFIFO->Length    = (Address & ENDPOINT_DIR_IN) ? Size : 0;
    5382:	cc 0f       	add	r28, r28
    5384:	cc 0b       	sbc	r28, r28
    5386:	cd 23       	and	r28, r29
    5388:	fc 01       	movw	r30, r24
    538a:	e0 5c       	subi	r30, 0xC0	; 192
    538c:	ff 4f       	sbci	r31, 0xFF	; 255
    538e:	c0 83       	st	Z, r28
	USB_Endpoint_SelectedFIFO->Position  = 0;
    5390:	8f 5b       	subi	r24, 0xBF	; 191
    5392:	9f 4f       	sbci	r25, 0xFF	; 255
    5394:	fc 01       	movw	r30, r24
    5396:	10 82       	st	Z, r1

	return true;
}
    5398:	81 e0       	ldi	r24, 0x01	; 1
    539a:	df 91       	pop	r29
    539c:	cf 91       	pop	r28
    539e:	1f 91       	pop	r17
    53a0:	08 95       	ret

000053a2 <Endpoint_ConfigureEndpointTable>:
{
    53a2:	cf 92       	push	r12
    53a4:	df 92       	push	r13
    53a6:	ef 92       	push	r14
    53a8:	ff 92       	push	r15
    53aa:	0f 93       	push	r16
    53ac:	1f 93       	push	r17
    53ae:	cf 93       	push	r28
    53b0:	df 93       	push	r29
    53b2:	c6 2e       	mov	r12, r22
    53b4:	8c 01       	movw	r16, r24
	for (uint8_t i = 0; i < Entries; i++)
    53b6:	d1 2c       	mov	r13, r1
    53b8:	dc 10       	cpse	r13, r12
    53ba:	02 c0       	rjmp	.+4      	; 0x53c0 <Endpoint_ConfigureEndpointTable+0x1e>
	return true;
    53bc:	81 e0       	ldi	r24, 0x01	; 1
    53be:	1c c0       	rjmp	.+56     	; 0x53f8 <Endpoint_ConfigureEndpointTable+0x56>
		if (!(Table[i].Address))
    53c0:	f8 01       	movw	r30, r16
    53c2:	d0 81       	ld	r29, Z
    53c4:	d1 11       	cpse	r29, r1
    53c6:	04 c0       	rjmp	.+8      	; 0x53d0 <Endpoint_ConfigureEndpointTable+0x2e>
	for (uint8_t i = 0; i < Entries; i++)
    53c8:	d3 94       	inc	r13
    53ca:	0b 5f       	subi	r16, 0xFB	; 251
    53cc:	1f 4f       	sbci	r17, 0xFF	; 255
    53ce:	f4 cf       	rjmp	.-24     	; 0x53b8 <Endpoint_ConfigureEndpointTable+0x16>
		if (!(Endpoint_ConfigureEndpoint(Table[i].Address, Table[i].Type, Table[i].Size, Table[i].Banks)))
    53d0:	e1 80       	ldd	r14, Z+1	; 0x01
    53d2:	f2 80       	ldd	r15, Z+2	; 0x02
    53d4:	23 81       	ldd	r18, Z+3	; 0x03
				uint8_t EPConfigMask = (USB_EP_INTDSBL_bm | ((Banks > 1) ? USB_EP_PINGPONG_bm : 0) | Endpoint_BytesToEPSizeMask(Size));
    53d6:	84 81       	ldd	r24, Z+4	; 0x04
    53d8:	38 e1       	ldi	r19, 0x18	; 24
    53da:	82 30       	cpi	r24, 0x02	; 2
    53dc:	08 f4       	brcc	.+2      	; 0x53e0 <Endpoint_ConfigureEndpointTable+0x3e>
    53de:	38 e0       	ldi	r19, 0x08	; 8
				uint16_t CheckBytes = 8;
    53e0:	88 e0       	ldi	r24, 0x08	; 8
    53e2:	90 e0       	ldi	r25, 0x00	; 0
				uint8_t  MaskVal    = 0;
    53e4:	c0 e0       	ldi	r28, 0x00	; 0
				while (CheckBytes < Bytes)
    53e6:	8e 15       	cp	r24, r14
    53e8:	9f 05       	cpc	r25, r15
    53ea:	78 f0       	brcs	.+30     	; 0x540a <Endpoint_ConfigureEndpointTable+0x68>
				uint8_t EPConfigMask = (USB_EP_INTDSBL_bm | ((Banks > 1) ? USB_EP_PINGPONG_bm : 0) | Endpoint_BytesToEPSizeMask(Size));
    53ec:	c3 2b       	or	r28, r19
				if ((Address & ENDPOINT_EPNUM_MASK) >= ENDPOINT_TOTAL_ENDPOINTS)
    53ee:	8d 2f       	mov	r24, r29
    53f0:	8f 70       	andi	r24, 0x0F	; 15
    53f2:	86 30       	cpi	r24, 0x06	; 6
    53f4:	70 f0       	brcs	.+28     	; 0x5412 <Endpoint_ConfigureEndpointTable+0x70>
			return false;
    53f6:	80 e0       	ldi	r24, 0x00	; 0
}
    53f8:	df 91       	pop	r29
    53fa:	cf 91       	pop	r28
    53fc:	1f 91       	pop	r17
    53fe:	0f 91       	pop	r16
    5400:	ff 90       	pop	r15
    5402:	ef 90       	pop	r14
    5404:	df 90       	pop	r13
    5406:	cf 90       	pop	r12
    5408:	08 95       	ret
					MaskVal++;
    540a:	cf 5f       	subi	r28, 0xFF	; 255
					CheckBytes <<= 1;
    540c:	88 0f       	add	r24, r24
    540e:	99 1f       	adc	r25, r25
    5410:	ea cf       	rjmp	.-44     	; 0x53e6 <Endpoint_ConfigureEndpointTable+0x44>
				EPConfigMask &= ~USB_EP_PINGPONG_bm;
    5412:	cf 7e       	andi	r28, 0xEF	; 239
				if (Size > 64)
    5414:	f1 e4       	ldi	r31, 0x41	; 65
    5416:	ef 16       	cp	r14, r31
    5418:	f1 04       	cpc	r15, r1
    541a:	68 f7       	brcc	.-38     	; 0x53f6 <Endpoint_ConfigureEndpointTable+0x54>
				switch (Type)
    541c:	22 23       	and	r18, r18
    541e:	21 f0       	breq	.+8      	; 0x5428 <Endpoint_ConfigureEndpointTable+0x86>
    5420:	21 30       	cpi	r18, 0x01	; 1
    5422:	79 f0       	breq	.+30     	; 0x5442 <Endpoint_ConfigureEndpointTable+0xa0>
						EPConfigMask |= USB_EP_TYPE_BULK_gc;
    5424:	c0 68       	ori	r28, 0x80	; 128
    5426:	06 c0       	rjmp	.+12     	; 0x5434 <Endpoint_ConfigureEndpointTable+0x92>
						EPConfigMask |= USB_EP_TYPE_CONTROL_gc;
    5428:	c0 64       	ori	r28, 0x40	; 64
				  Endpoint_ConfigureEndpoint_PRV(Address ^ ENDPOINT_DIR_IN, EPConfigMask, Size);
    542a:	4e 2d       	mov	r20, r14
    542c:	6c 2f       	mov	r22, r28
    542e:	80 e8       	ldi	r24, 0x80	; 128
    5430:	8d 0f       	add	r24, r29
    5432:	7f df       	rcall	.-258    	; 0x5332 <Endpoint_ConfigureEndpoint_PRV>
				return Endpoint_ConfigureEndpoint_PRV(Address, EPConfigMask, Size);
    5434:	4e 2d       	mov	r20, r14
    5436:	6c 2f       	mov	r22, r28
    5438:	8d 2f       	mov	r24, r29
    543a:	7b df       	rcall	.-266    	; 0x5332 <Endpoint_ConfigureEndpoint_PRV>
		if (!(Endpoint_ConfigureEndpoint(Table[i].Address, Table[i].Type, Table[i].Size, Table[i].Banks)))
    543c:	81 11       	cpse	r24, r1
    543e:	c4 cf       	rjmp	.-120    	; 0x53c8 <Endpoint_ConfigureEndpointTable+0x26>
    5440:	da cf       	rjmp	.-76     	; 0x53f6 <Endpoint_ConfigureEndpointTable+0x54>
						EPConfigMask |= USB_EP_TYPE_ISOCHRONOUS_gc;
    5442:	c0 6c       	ori	r28, 0xC0	; 192
    5444:	f7 cf       	rjmp	.-18     	; 0x5434 <Endpoint_ConfigureEndpointTable+0x92>

00005446 <Endpoint_ClearEndpoints>:

void Endpoint_ClearEndpoints(void)
{
    5446:	90 e0       	ldi	r25, 0x00	; 0
    5448:	80 e0       	ldi	r24, 0x00	; 0
	for (uint8_t EPNum = 0; EPNum < ENDPOINT_TOTAL_ENDPOINTS; EPNum++)
	{
		((USB_EndpointTable_t*)USB.EPPTR)->Endpoints[EPNum].IN.CTRL  = 0;
    544a:	a0 91 c6 04 	lds	r26, 0x04C6	; 0x8004c6 <__TEXT_REGION_LENGTH__+0x7004c6>
    544e:	b0 91 c7 04 	lds	r27, 0x04C7	; 0x8004c7 <__TEXT_REGION_LENGTH__+0x7004c7>
    5452:	9c 01       	movw	r18, r24
    5454:	44 e0       	ldi	r20, 0x04	; 4
    5456:	22 0f       	add	r18, r18
    5458:	33 1f       	adc	r19, r19
    545a:	4a 95       	dec	r20
    545c:	e1 f7       	brne	.-8      	; 0x5456 <Endpoint_ClearEndpoints+0x10>
    545e:	a2 0f       	add	r26, r18
    5460:	b3 1f       	adc	r27, r19
    5462:	19 96       	adiw	r26, 0x09	; 9
    5464:	1c 92       	st	X, r1
		((USB_EndpointTable_t*)USB.EPPTR)->Endpoints[EPNum].OUT.CTRL = 0;
    5466:	e0 91 c6 04 	lds	r30, 0x04C6	; 0x8004c6 <__TEXT_REGION_LENGTH__+0x7004c6>
    546a:	f0 91 c7 04 	lds	r31, 0x04C7	; 0x8004c7 <__TEXT_REGION_LENGTH__+0x7004c7>
    546e:	e2 0f       	add	r30, r18
    5470:	f3 1f       	adc	r31, r19
    5472:	11 82       	std	Z+1, r1	; 0x01
    5474:	01 96       	adiw	r24, 0x01	; 1
	for (uint8_t EPNum = 0; EPNum < ENDPOINT_TOTAL_ENDPOINTS; EPNum++)
    5476:	86 30       	cpi	r24, 0x06	; 6
    5478:	91 05       	cpc	r25, r1
    547a:	39 f7       	brne	.-50     	; 0x544a <Endpoint_ClearEndpoints+0x4>
	}
}
    547c:	08 95       	ret

0000547e <Endpoint_ClearStatusStage>:

void Endpoint_ClearStatusStage(void)
{
	if (USB_ControlRequest.bmRequestType & REQDIR_DEVICETOHOST)
    547e:	80 91 6f 23 	lds	r24, 0x236F	; 0x80236f <USB_ControlRequest>
    5482:	87 ff       	sbrs	r24, 7
    5484:	0c c0       	rjmp	.+24     	; 0x549e <Endpoint_ClearStatusStage+0x20>
	{
		while (!(Endpoint_IsOUTReceived()))
    5486:	de de       	rcall	.-580    	; 0x5244 <Endpoint_IsOUTReceived>
    5488:	81 11       	cpse	r24, r1
		{
			if (USB_DeviceState == DEVICE_STATE_Unattached)
			  return;
		}

		Endpoint_ClearOUT();
    548a:	79 ce       	rjmp	.-782    	; 0x517e <Endpoint_ClearOUT>
    548c:	80 91 6e 23 	lds	r24, 0x236E	; 0x80236e <USB_DeviceState>
			if (USB_DeviceState == DEVICE_STATE_Unattached)
    5490:	81 11       	cpse	r24, r1
    5492:	f9 cf       	rjmp	.-14     	; 0x5486 <Endpoint_ClearStatusStage+0x8>
    5494:	08 95       	ret
			  return;
		}

		Endpoint_ClearIN();
	}
}
    5496:	80 91 6e 23 	lds	r24, 0x236E	; 0x80236e <USB_DeviceState>
			if (USB_DeviceState == DEVICE_STATE_Unattached)
    549a:	88 23       	and	r24, r24
    549c:	d9 f3       	breq	.-10     	; 0x5494 <Endpoint_ClearStatusStage+0x16>
		while (!(Endpoint_IsINReady()))
    549e:	c6 de       	rcall	.-628    	; 0x522c <Endpoint_IsINReady>
    54a0:	88 23       	and	r24, r24
    54a2:	c9 f3       	breq	.-14     	; 0x5496 <Endpoint_ClearStatusStage+0x18>
		Endpoint_ClearIN();
    54a4:	53 ce       	rjmp	.-858    	; 0x514c <Endpoint_ClearIN>

000054a6 <Endpoint_WaitUntilReady>:
    54a6:	0f 93       	push	r16

#if !defined(CONTROL_ONLY_DEVICE)
uint8_t Endpoint_WaitUntilReady(void)
{
    54a8:	1f 93       	push	r17
    54aa:	cf 93       	push	r28
			 *  \return Current USB frame number from the USB controller.
			 */
			static inline uint16_t USB_Device_GetFrameNumber(void) ATTR_ALWAYS_INLINE ATTR_WARN_UNUSED_RESULT;
			static inline uint16_t USB_Device_GetFrameNumber(void)
			{
				return ((USB_EndpointTable_t*)USB.EPPTR)->FrameNum;
    54ac:	e0 91 c6 04 	lds	r30, 0x04C6	; 0x8004c6 <__TEXT_REGION_LENGTH__+0x7004c6>
    54b0:	f0 91 c7 04 	lds	r31, 0x04C7	; 0x8004c7 <__TEXT_REGION_LENGTH__+0x7004c7>
    54b4:	e0 5a       	subi	r30, 0xA0	; 160
    54b6:	ff 4f       	sbci	r31, 0xFF	; 255
    54b8:	00 81       	ld	r16, Z
    54ba:	11 81       	ldd	r17, Z+1	; 0x01
	#if (USB_STREAM_TIMEOUT_MS < 0xFF)
	uint8_t  TimeoutMSRem = USB_STREAM_TIMEOUT_MS;
    54bc:	c4 e6       	ldi	r28, 0x64	; 100
				return (USB_Endpoint_SelectedEndpoint & ENDPOINT_DIR_IN);
    54be:	80 91 7b 23 	lds	r24, 0x237B	; 0x80237b <USB_Endpoint_SelectedEndpoint>

	uint16_t PreviousFrameNumber = USB_Device_GetFrameNumber();

	for (;;)
	{
		if (Endpoint_GetEndpointDirection() == ENDPOINT_DIR_IN)
    54c2:	87 ff       	sbrs	r24, 7
    54c4:	12 c0       	rjmp	.+36     	; 0x54ea <Endpoint_WaitUntilReady+0x44>
		{
			if (Endpoint_IsINReady())
    54c6:	b2 de       	rcall	.-668    	; 0x522c <Endpoint_IsINReady>
    54c8:	81 11       	cpse	r24, r1
    54ca:	0a c0       	rjmp	.+20     	; 0x54e0 <Endpoint_WaitUntilReady+0x3a>
		{
			if (Endpoint_IsOUTReceived())
			  return ENDPOINT_READYWAIT_NoError;
		}

		uint8_t USB_DeviceState_LCL = USB_DeviceState;
    54cc:	80 91 6e 23 	lds	r24, 0x236E	; 0x80236e <USB_DeviceState>

		if (USB_DeviceState_LCL == DEVICE_STATE_Unattached)
    54d0:	81 11       	cpse	r24, r1
    54d2:	0d c0       	rjmp	.+26     	; 0x54ee <Endpoint_WaitUntilReady+0x48>
		  return ENDPOINT_READYWAIT_DeviceDisconnected;
    54d4:	82 e0       	ldi	r24, 0x02	; 2
    54d6:	05 c0       	rjmp	.+10     	; 0x54e2 <Endpoint_WaitUntilReady+0x3c>
    54d8:	8c 2f       	mov	r24, r28
    54da:	89 01       	movw	r16, r18
    54dc:	c8 2f       	mov	r28, r24
    54de:	ef cf       	rjmp	.-34     	; 0x54be <Endpoint_WaitUntilReady+0x18>
			  return ENDPOINT_READYWAIT_NoError;
    54e0:	80 e0       	ldi	r24, 0x00	; 0

			if (!(TimeoutMSRem--))
			  return ENDPOINT_READYWAIT_Timeout;
		}
	}
}
    54e2:	cf 91       	pop	r28
    54e4:	1f 91       	pop	r17
    54e6:	0f 91       	pop	r16
			if (Endpoint_IsOUTReceived())
    54e8:	08 95       	ret
    54ea:	ac de       	rcall	.-680    	; 0x5244 <Endpoint_IsOUTReceived>
    54ec:	ed cf       	rjmp	.-38     	; 0x54c8 <Endpoint_WaitUntilReady+0x22>
		else if (USB_DeviceState_LCL == DEVICE_STATE_Suspended)
    54ee:	85 30       	cpi	r24, 0x05	; 5
    54f0:	c1 f0       	breq	.+48     	; 0x5522 <Endpoint_WaitUntilReady+0x7c>
				return ((USB_Endpoint_SelectedHandle->CTRL & USB_EP_STALL_bm) ? true : false);
    54f2:	e0 91 79 23 	lds	r30, 0x2379	; 0x802379 <USB_Endpoint_SelectedHandle>
    54f6:	f0 91 7a 23 	lds	r31, 0x237A	; 0x80237a <USB_Endpoint_SelectedHandle+0x1>
    54fa:	81 81       	ldd	r24, Z+1	; 0x01
		else if (Endpoint_IsStalled())
    54fc:	82 fd       	sbrc	r24, 2
    54fe:	13 c0       	rjmp	.+38     	; 0x5526 <Endpoint_WaitUntilReady+0x80>
    5500:	e0 91 c6 04 	lds	r30, 0x04C6	; 0x8004c6 <__TEXT_REGION_LENGTH__+0x7004c6>
    5504:	f0 91 c7 04 	lds	r31, 0x04C7	; 0x8004c7 <__TEXT_REGION_LENGTH__+0x7004c7>
    5508:	e0 5a       	subi	r30, 0xA0	; 160
    550a:	ff 4f       	sbci	r31, 0xFF	; 255
    550c:	20 81       	ld	r18, Z
    550e:	31 81       	ldd	r19, Z+1	; 0x01
		if (CurrentFrameNumber != PreviousFrameNumber)
    5510:	02 17       	cp	r16, r18
    5512:	13 07       	cpc	r17, r19
    5514:	09 f3       	breq	.-62     	; 0x54d8 <Endpoint_WaitUntilReady+0x32>
			if (!(TimeoutMSRem--))
    5516:	8f ef       	ldi	r24, 0xFF	; 255
    5518:	8c 0f       	add	r24, r28
    551a:	c1 11       	cpse	r28, r1
    551c:	de cf       	rjmp	.-68     	; 0x54da <Endpoint_WaitUntilReady+0x34>
			  return ENDPOINT_READYWAIT_Timeout;
    551e:	84 e0       	ldi	r24, 0x04	; 4
    5520:	e0 cf       	rjmp	.-64     	; 0x54e2 <Endpoint_WaitUntilReady+0x3c>
		  return ENDPOINT_READYWAIT_BusSuspended;
    5522:	83 e0       	ldi	r24, 0x03	; 3
    5524:	de cf       	rjmp	.-68     	; 0x54e2 <Endpoint_WaitUntilReady+0x3c>
		  return ENDPOINT_READYWAIT_EndpointStalled;
    5526:	81 e0       	ldi	r24, 0x01	; 1
    5528:	dc cf       	rjmp	.-72     	; 0x54e2 <Endpoint_WaitUntilReady+0x3c>

0000552a <USB_Disable>:
	USB_ResetInterface();
}

void USB_Disable(void)
{
	USB_INT_DisableAllInterrupts();
    552a:	63 d0       	rcall	.+198    	; 0x55f2 <USB_INT_DisableAllInterrupts>
	USB_INT_ClearAllInterrupts();
    552c:	69 d0       	rcall	.+210    	; 0x5600 <USB_INT_ClearAllInterrupts>
    552e:	e0 ec       	ldi	r30, 0xC0	; 192
			 *  enumerating the device once attached until \ref USB_Attach() is called.
			 */
			static inline void USB_Detach(void) ATTR_ALWAYS_INLINE;
			static inline void USB_Detach(void)
			{
				USB.CTRLB &= ~USB_ATTACH_bm;
    5530:	f4 e0       	ldi	r31, 0x04	; 4
    5532:	81 81       	ldd	r24, Z+1	; 0x01
    5534:	8e 7f       	andi	r24, 0xFE	; 254
    5536:	81 83       	std	Z+1, r24	; 0x01
    5538:	80 81       	ld	r24, Z
			}

			static inline void USB_Controller_Disable(void) ATTR_ALWAYS_INLINE;
			static inline void USB_Controller_Disable(void)
			{
				USB.CTRLA &= ~USB_ENABLE_bm;
    553a:	8f 77       	andi	r24, 0x7F	; 127
    553c:	80 83       	st	Z, r24
    553e:	10 92 6d 23 	sts	0x236D, r1	; 0x80236d <USB_IsInitialized>

	USB_Detach();
	USB_Controller_Disable();

	USB_IsInitialized = false;
    5542:	08 95       	ret

00005544 <USB_ResetInterface>:
}
    5544:	cf 93       	push	r28

void USB_ResetInterface(void)
{
    5546:	df 93       	push	r29
	#if defined(USB_DEVICE_OPT_FULLSPEED)
	if (USB_Options & USB_DEVICE_OPT_LOWSPEED)
	  CLK.USBCTRL = (((F_USB / 6000000) - 1) << CLK_USBPSDIV_gp);
	else
	  CLK.USBCTRL = (((F_USB / 48000000) - 1) << CLK_USBPSDIV_gp);
    5548:	e0 e4       	ldi	r30, 0x40	; 64
    554a:	f0 e0       	ldi	r31, 0x00	; 0
    554c:	14 82       	std	Z+4, r1	; 0x04
	#else
	CLK.USBCTRL = (((F_USB / 6000000) - 1) << CLK_USBPSDIV_gp);
	#endif

	if (USB_Options & USB_OPT_PLLCLKSRC)
	  CLK.USBCTRL |= (CLK_USBSRC_PLL_gc   | CLK_USBSEN_bm);
    554e:	84 81       	ldd	r24, Z+4	; 0x04
    5550:	81 60       	ori	r24, 0x01	; 1
    5552:	84 83       	std	Z+4, r24	; 0x04
	else
	  CLK.USBCTRL |= (CLK_USBSRC_RC32M_gc | CLK_USBSEN_bm);

	USB_Device_SetDeviceAddress(0);

	USB_INT_DisableAllInterrupts();
    5554:	4e d0       	rcall	.+156    	; 0x55f2 <USB_INT_DisableAllInterrupts>
	USB_INT_ClearAllInterrupts();
    5556:	54 d0       	rcall	.+168    	; 0x5600 <USB_INT_ClearAllInterrupts>
    5558:	c0 ec       	ldi	r28, 0xC0	; 192
			}

			static inline void USB_Controller_Reset(void) ATTR_ALWAYS_INLINE;
			static inline void USB_Controller_Reset(void)
			{
				USB.CTRLA &= ~USB_ENABLE_bm;
    555a:	d4 e0       	ldi	r29, 0x04	; 4
    555c:	88 81       	ld	r24, Y
    555e:	8f 77       	andi	r24, 0x7F	; 127
    5560:	88 83       	st	Y, r24
    5562:	88 81       	ld	r24, Y
				USB.CTRLA |=  USB_ENABLE_bm;
    5564:	80 68       	ori	r24, 0x80	; 128
    5566:	88 83       	st	Y, r24
    5568:	10 92 6e 23 	sts	0x236E, r1	; 0x80236e <USB_DeviceState>
}

#if defined(USB_CAN_BE_DEVICE)
static void USB_Init_Device(void)
{
	USB_DeviceState                 = DEVICE_STATE_Unattached;
    556c:	10 92 6a 23 	sts	0x236A, r1	; 0x80236a <USB_Device_ConfigurationNumber>
	USB_Device_ConfigurationNumber  = 0;
    5570:	10 92 6c 23 	sts	0x236C, r1	; 0x80236c <USB_Device_RemoteWakeupEnabled>

	#if !defined(NO_DEVICE_REMOTE_WAKEUP)
	USB_Device_RemoteWakeupEnabled  = false;
    5574:	10 92 6b 23 	sts	0x236B, r1	; 0x80236b <USB_Device_CurrentlySelfPowered>
	#endif

	#if !defined(NO_DEVICE_SELF_POWER)
	USB_Device_CurrentlySelfPowered = false;
    5578:	88 81       	ld	r24, Y
			}

			static inline void USB_Device_SetFullSpeed(void) ATTR_ALWAYS_INLINE;
			static inline void USB_Device_SetFullSpeed(void)
			{
				USB.CTRLA |=  USB_SPEED_bm;
    557a:	80 64       	ori	r24, 0x40	; 64
    557c:	88 83       	st	Y, r24
    557e:	48 e0       	ldi	r20, 0x08	; 8
				  Endpoint_ConfigureEndpoint_PRV(Address ^ ENDPOINT_DIR_IN, EPConfigMask, Size);
    5580:	68 e4       	ldi	r22, 0x48	; 72
    5582:	80 e8       	ldi	r24, 0x80	; 128
    5584:	d6 de       	rcall	.-596    	; 0x5332 <Endpoint_ConfigureEndpoint_PRV>
    5586:	48 e0       	ldi	r20, 0x08	; 8
				return Endpoint_ConfigureEndpoint_PRV(Address, EPConfigMask, Size);
    5588:	68 e4       	ldi	r22, 0x48	; 72
    558a:	80 e0       	ldi	r24, 0x00	; 0
    558c:	d2 de       	rcall	.-604    	; 0x5332 <Endpoint_ConfigureEndpoint_PRV>
    558e:	88 85       	ldd	r24, Y+8	; 0x08
			static inline void USB_INT_Enable(const uint8_t Interrupt)
			{
				switch (Interrupt)
				{
					case USB_INT_BUSEVENTI:
						USB.INTCTRLA |= USB_BUSEVIE_bm;
    5590:	80 64       	ori	r24, 0x40	; 64
    5592:	88 87       	std	Y+8, r24	; 0x08
    5594:	89 81       	ldd	r24, Y+1	; 0x01
				USB.CTRLB |= USB_ATTACH_bm;
    5596:	81 60       	ori	r24, 0x01	; 1
    5598:	89 83       	std	Y+1, r24	; 0x01
    559a:	df 91       	pop	r29
}
    559c:	cf 91       	pop	r28
    559e:	08 95       	ret

000055a0 <USB_Init>:
    55a0:	cf 93       	push	r28
{
    55a2:	df 93       	push	r29
				#if (ARCH == ARCH_AVR8)
				return SREG;
				#elif (ARCH == ARCH_UC3)
				return __builtin_mfsr(AVR32_SR);
				#elif (ARCH == ARCH_XMEGA)
				return SREG;
    55a4:	3f b7       	in	r19, 0x3f	; 63
				#if (ARCH == ARCH_AVR8)
				cli();
				#elif (ARCH == ARCH_UC3)
				__builtin_ssrf(AVR32_SR_GM_OFFSET);
				#elif (ARCH == ARCH_XMEGA)
				cli();
    55a6:	f8 94       	cli
	NVM.CMD  = NVM_CMD_READ_CALIB_ROW_gc;
    55a8:	c0 ec       	ldi	r28, 0xC0	; 192
    55aa:	d1 e0       	ldi	r29, 0x01	; 1
    55ac:	22 e0       	ldi	r18, 0x02	; 2
    55ae:	2a 87       	std	Y+10, r18	; 0x0a
	USB.CAL0 = pgm_read_byte(offsetof(NVM_PROD_SIGNATURES_t, USBCAL0));
    55b0:	ea e1       	ldi	r30, 0x1A	; 26
    55b2:	f0 e0       	ldi	r31, 0x00	; 0
    55b4:	e4 91       	lpm	r30, Z
    55b6:	a0 ec       	ldi	r26, 0xC0	; 192
    55b8:	b4 e0       	ldi	r27, 0x04	; 4
    55ba:	da 96       	adiw	r26, 0x3a	; 58
    55bc:	ec 93       	st	X, r30
    55be:	da 97       	sbiw	r26, 0x3a	; 58
	USB.CAL1 = pgm_read_byte(offsetof(NVM_PROD_SIGNATURES_t, USBCAL1));
    55c0:	eb e1       	ldi	r30, 0x1B	; 27
    55c2:	f0 e0       	ldi	r31, 0x00	; 0
    55c4:	e4 91       	lpm	r30, Z
    55c6:	db 96       	adiw	r26, 0x3b	; 59
    55c8:	ec 93       	st	X, r30
    55ca:	db 97       	sbiw	r26, 0x3b	; 59
	NVM.CMD  = NVM_CMD_NO_OPERATION_gc;
    55cc:	1a 86       	std	Y+10, r1	; 0x0a
	USB.EPPTR = ((intptr_t)&USB_EndpointTable[1] & ~(1 << 0));
    55ce:	85 e9       	ldi	r24, 0x95	; 149
    55d0:	96 e2       	ldi	r25, 0x26	; 38
    55d2:	8e 7f       	andi	r24, 0xFE	; 254
    55d4:	16 96       	adiw	r26, 0x06	; 6
    55d6:	8d 93       	st	X+, r24
    55d8:	9c 93       	st	X, r25
    55da:	17 97       	sbiw	r26, 0x07	; 7
	USB.CTRLA = (USB_STFRNUM_bm | ((ENDPOINT_TOTAL_ENDPOINTS - 1) << USB_MAXEP_gp));
    55dc:	85 e1       	ldi	r24, 0x15	; 21
    55de:	8c 93       	st	X, r24
	  USB.INTCTRLA = (2 << USB_INTLVL_gp);
    55e0:	18 96       	adiw	r26, 0x08	; 8
    55e2:	2c 93       	st	X, r18
				SREG = GlobalIntState;
    55e4:	3f bf       	out	0x3f, r19	; 63
	USB_IsInitialized = true;
    55e6:	81 e0       	ldi	r24, 0x01	; 1
    55e8:	80 93 6d 23 	sts	0x236D, r24	; 0x80236d <USB_IsInitialized>
}
    55ec:	df 91       	pop	r29
    55ee:	cf 91       	pop	r28
	USB_ResetInterface();
    55f0:	a9 cf       	rjmp	.-174    	; 0x5544 <USB_ResetInterface>

000055f2 <USB_INT_DisableAllInterrupts>:
#define  __INCLUDE_FROM_USB_DRIVER
#include "../USBInterrupt.h"

void USB_INT_DisableAllInterrupts(void)
{
	USB.INTCTRLA    &= USB_INTLVL_gm;
    55f2:	e0 ec       	ldi	r30, 0xC0	; 192
    55f4:	f4 e0       	ldi	r31, 0x04	; 4
    55f6:	80 85       	ldd	r24, Z+8	; 0x08
    55f8:	83 70       	andi	r24, 0x03	; 3
    55fa:	80 87       	std	Z+8, r24	; 0x08
	USB.INTCTRLB     = 0;
    55fc:	11 86       	std	Z+9, r1	; 0x09
}
    55fe:	08 95       	ret

00005600 <USB_INT_ClearAllInterrupts>:

void USB_INT_ClearAllInterrupts(void)
{
	USB.INTFLAGSACLR = 0xFF;
    5600:	e0 ec       	ldi	r30, 0xC0	; 192
    5602:	f4 e0       	ldi	r31, 0x04	; 4
    5604:	8f ef       	ldi	r24, 0xFF	; 255
    5606:	82 87       	std	Z+10, r24	; 0x0a
	USB.INTFLAGSBCLR = 0xFF;
    5608:	84 87       	std	Z+12, r24	; 0x0c
}
    560a:	08 95       	ret

0000560c <__vector_125>:

ISR(USB_BUSEVENT_vect)
{
    560c:	1f 92       	push	r1
    560e:	0f 92       	push	r0
    5610:	0f b6       	in	r0, 0x3f	; 63
    5612:	0f 92       	push	r0
    5614:	11 24       	eor	r1, r1
    5616:	2f 93       	push	r18
    5618:	3f 93       	push	r19
    561a:	4f 93       	push	r20
    561c:	5f 93       	push	r21
    561e:	6f 93       	push	r22
    5620:	7f 93       	push	r23
    5622:	8f 93       	push	r24
    5624:	9f 93       	push	r25
    5626:	af 93       	push	r26
    5628:	bf 93       	push	r27
    562a:	ef 93       	push	r30
    562c:	ff 93       	push	r31
					case USB_INT_BUSEVENTI_Resume:
						return ((USB.INTFLAGSACLR & USB_RESUMEIF_bm) ? true : false);
					case USB_INT_BUSEVENTI_Reset:
						return ((USB.INTFLAGSACLR & USB_RSTIF_bm) ? true : false);
					case USB_INT_SOFI:
						return ((USB.INTFLAGSACLR & USB_SOFIF_bm) ? true : false);
    562e:	80 91 ca 04 	lds	r24, 0x04CA	; 0x8004ca <__TEXT_REGION_LENGTH__+0x7004ca>
	#if !defined(NO_SOF_EVENTS)
	if (USB_INT_HasOccurred(USB_INT_SOFI) && USB_INT_IsEnabled(USB_INT_SOFI))
    5632:	87 ff       	sbrs	r24, 7
    5634:	08 c0       	rjmp	.+16     	; 0x5646 <__vector_125+0x3a>
						return ((USB.INTCTRLA & USB_SOFIE_bm) ? true : false);
    5636:	80 91 c8 04 	lds	r24, 0x04C8	; 0x8004c8 <__TEXT_REGION_LENGTH__+0x7004c8>
    563a:	87 ff       	sbrs	r24, 7
    563c:	04 c0       	rjmp	.+8      	; 0x5646 <__vector_125+0x3a>
						USB.INTFLAGSACLR = USB_SOFIF_bm;
    563e:	80 e8       	ldi	r24, 0x80	; 128
    5640:	80 93 ca 04 	sts	0x04CA, r24	; 0x8004ca <__TEXT_REGION_LENGTH__+0x7004ca>
	{
		USB_INT_Clear(USB_INT_SOFI);

		EVENT_USB_Device_StartOfFrame();
    5644:	32 dc       	rcall	.-1948   	; 0x4eaa <USB_Event_Stub>
						return ((USB.INTFLAGSACLR & USB_SUSPENDIF_bm) ? true : false);
    5646:	80 91 ca 04 	lds	r24, 0x04CA	; 0x8004ca <__TEXT_REGION_LENGTH__+0x7004ca>
	}
	#endif

	if (USB_INT_HasOccurred(USB_INT_BUSEVENTI_Suspend))
    564a:	86 ff       	sbrs	r24, 6
    564c:	07 c0       	rjmp	.+14     	; 0x565c <__vector_125+0x50>
						USB.INTFLAGSACLR = USB_SUSPENDIF_bm;
    564e:	80 e4       	ldi	r24, 0x40	; 64
    5650:	80 93 ca 04 	sts	0x04CA, r24	; 0x8004ca <__TEXT_REGION_LENGTH__+0x7004ca>
	{
		USB_INT_Clear(USB_INT_BUSEVENTI_Suspend);

		#if !defined(NO_LIMITED_CONTROLLER_CONNECT)
		USB_DeviceState = DEVICE_STATE_Unattached;
    5654:	10 92 6e 23 	sts	0x236E, r1	; 0x80236e <USB_DeviceState>
		EVENT_USB_Device_Disconnect();
    5658:	0e 94 64 0e 	call	0x1cc8	; 0x1cc8 <EVENT_USB_Device_Disconnect>
						return ((USB.INTFLAGSACLR & USB_RESUMEIF_bm) ? true : false);
    565c:	80 91 ca 04 	lds	r24, 0x04CA	; 0x8004ca <__TEXT_REGION_LENGTH__+0x7004ca>
		USB_DeviceState = DEVICE_STATE_Suspended;
		EVENT_USB_Device_Suspend();
		#endif
	}

	if (USB_INT_HasOccurred(USB_INT_BUSEVENTI_Resume))
    5660:	85 ff       	sbrs	r24, 5
    5662:	0c c0       	rjmp	.+24     	; 0x567c <__vector_125+0x70>
						USB.INTFLAGSACLR = USB_RESUMEIF_bm;
    5664:	80 e2       	ldi	r24, 0x20	; 32
    5666:	80 93 ca 04 	sts	0x04CA, r24	; 0x8004ca <__TEXT_REGION_LENGTH__+0x7004ca>
	{
		USB_INT_Clear(USB_INT_BUSEVENTI_Resume);

		if (USB_Device_ConfigurationNumber)
    566a:	80 91 6a 23 	lds	r24, 0x236A	; 0x80236a <USB_Device_ConfigurationNumber>
    566e:	88 23       	and	r24, r24
    5670:	71 f1       	breq	.+92     	; 0x56ce <__vector_125+0xc2>
		  USB_DeviceState = DEVICE_STATE_Configured;
    5672:	84 e0       	ldi	r24, 0x04	; 4
		else
		  USB_DeviceState = (USB_Device_IsAddressSet()) ? DEVICE_STATE_Addressed : DEVICE_STATE_Powered;
    5674:	80 93 6e 23 	sts	0x236E, r24	; 0x80236e <USB_DeviceState>

		#if !defined(NO_LIMITED_CONTROLLER_CONNECT)
		EVENT_USB_Device_Connect();
    5678:	0e 94 63 0e 	call	0x1cc6	; 0x1cc6 <EVENT_USB_Device_Connect>
						return ((USB.INTFLAGSACLR & USB_RSTIF_bm) ? true : false);
    567c:	80 91 ca 04 	lds	r24, 0x04CA	; 0x8004ca <__TEXT_REGION_LENGTH__+0x7004ca>
		#else
		EVENT_USB_Device_WakeUp();
		#endif
	}

	if (USB_INT_HasOccurred(USB_INT_BUSEVENTI_Reset))
    5680:	84 ff       	sbrs	r24, 4
    5682:	14 c0       	rjmp	.+40     	; 0x56ac <__vector_125+0xa0>
						USB.INTFLAGSACLR = USB_RSTIF_bm;
    5684:	80 e1       	ldi	r24, 0x10	; 16
    5686:	80 93 ca 04 	sts	0x04CA, r24	; 0x8004ca <__TEXT_REGION_LENGTH__+0x7004ca>
	{
		USB_INT_Clear(USB_INT_BUSEVENTI_Reset);

		USB_DeviceState                = DEVICE_STATE_Default;
    568a:	82 e0       	ldi	r24, 0x02	; 2
    568c:	80 93 6e 23 	sts	0x236E, r24	; 0x80236e <USB_DeviceState>
		USB_Device_ConfigurationNumber = 0;
    5690:	10 92 6a 23 	sts	0x236A, r1	; 0x80236a <USB_Device_ConfigurationNumber>
			}

			static inline void USB_Device_EnableDeviceAddress(const uint8_t Address) ATTR_ALWAYS_INLINE;
			static inline void USB_Device_EnableDeviceAddress(const uint8_t Address)
			{
				USB.ADDR = Address;
    5694:	10 92 c3 04 	sts	0x04C3, r1	; 0x8004c3 <__TEXT_REGION_LENGTH__+0x7004c3>

		USB_Device_EnableDeviceAddress(0);

		Endpoint_ClearEndpoints();
    5698:	d6 de       	rcall	.-596    	; 0x5446 <Endpoint_ClearEndpoints>
						EPConfigMask |= USB_EP_TYPE_BULK_gc;
						break;
				}

				if (Type == EP_TYPE_CONTROL)
				  Endpoint_ConfigureEndpoint_PRV(Address ^ ENDPOINT_DIR_IN, EPConfigMask, Size);
    569a:	48 e0       	ldi	r20, 0x08	; 8
    569c:	68 e4       	ldi	r22, 0x48	; 72
    569e:	80 e8       	ldi	r24, 0x80	; 128
    56a0:	48 de       	rcall	.-880    	; 0x5332 <Endpoint_ConfigureEndpoint_PRV>

				return Endpoint_ConfigureEndpoint_PRV(Address, EPConfigMask, Size);
    56a2:	48 e0       	ldi	r20, 0x08	; 8
    56a4:	68 e4       	ldi	r22, 0x48	; 72
    56a6:	80 e0       	ldi	r24, 0x00	; 0
		Endpoint_ConfigureEndpoint(ENDPOINT_CONTROLEP, EP_TYPE_CONTROL,
		                           USB_Device_ControlEndpointSize, 1);

		EVENT_USB_Device_Reset();
    56a8:	44 de       	rcall	.-888    	; 0x5332 <Endpoint_ConfigureEndpoint_PRV>
    56aa:	ff db       	rcall	.-2050   	; 0x4eaa <USB_Event_Stub>
	}
}
    56ac:	ff 91       	pop	r31
    56ae:	ef 91       	pop	r30
    56b0:	bf 91       	pop	r27
    56b2:	af 91       	pop	r26
    56b4:	9f 91       	pop	r25
    56b6:	8f 91       	pop	r24
    56b8:	7f 91       	pop	r23
    56ba:	6f 91       	pop	r22
    56bc:	5f 91       	pop	r21
    56be:	4f 91       	pop	r20
    56c0:	3f 91       	pop	r19
    56c2:	2f 91       	pop	r18
    56c4:	0f 90       	pop	r0
    56c6:	0f be       	out	0x3f, r0	; 63
    56c8:	0f 90       	pop	r0
    56ca:	1f 90       	pop	r1
    56cc:	18 95       	reti
			}

			static inline bool USB_Device_IsAddressSet(void) ATTR_ALWAYS_INLINE ATTR_WARN_UNUSED_RESULT;
			static inline bool USB_Device_IsAddressSet(void)
			{
				return ((USB.ADDR != 0) ? true : false);
    56ce:	80 91 c3 04 	lds	r24, 0x04C3	; 0x8004c3 <__TEXT_REGION_LENGTH__+0x7004c3>
		  USB_DeviceState = (USB_Device_IsAddressSet()) ? DEVICE_STATE_Addressed : DEVICE_STATE_Powered;
    56d2:	81 11       	cpse	r24, r1
    56d4:	02 c0       	rjmp	.+4      	; 0x56da <__vector_125+0xce>
    56d6:	81 e0       	ldi	r24, 0x01	; 1
    56d8:	cd cf       	rjmp	.-102    	; 0x5674 <__vector_125+0x68>
    56da:	83 e0       	ldi	r24, 0x03	; 3
    56dc:	cb cf       	rjmp	.-106    	; 0x5674 <__vector_125+0x68>

000056de <CDC_Device_ConfigureEndpoints>:
			break;
	}
}

bool CDC_Device_ConfigureEndpoints(USB_ClassInfo_CDC_Device_t* const CDCInterfaceInfo)
{
    56de:	cf 93       	push	r28
    56e0:	df 93       	push	r29
    56e2:	ec 01       	movw	r28, r24
	memset(&CDCInterfaceInfo->State, 0x00, sizeof(CDCInterfaceInfo->State));
    56e4:	fc 01       	movw	r30, r24
    56e6:	70 96       	adiw	r30, 0x10	; 16
    56e8:	8b e0       	ldi	r24, 0x0B	; 11
    56ea:	df 01       	movw	r26, r30
    56ec:	1d 92       	st	X+, r1
    56ee:	8a 95       	dec	r24
    56f0:	e9 f7       	brne	.-6      	; 0x56ec <CDC_Device_ConfigureEndpoints+0xe>

	CDCInterfaceInfo->Config.DataINEndpoint.Type       = EP_TYPE_BULK;
    56f2:	82 e0       	ldi	r24, 0x02	; 2
    56f4:	8c 83       	std	Y+4, r24	; 0x04
	CDCInterfaceInfo->Config.DataOUTEndpoint.Type      = EP_TYPE_BULK;
    56f6:	89 87       	std	Y+9, r24	; 0x09
	CDCInterfaceInfo->Config.NotificationEndpoint.Type = EP_TYPE_INTERRUPT;
    56f8:	83 e0       	ldi	r24, 0x03	; 3
    56fa:	8e 87       	std	Y+14, r24	; 0x0e

	if (!(Endpoint_ConfigureEndpointTable(&CDCInterfaceInfo->Config.DataINEndpoint, 1)))
    56fc:	61 e0       	ldi	r22, 0x01	; 1
    56fe:	ce 01       	movw	r24, r28
    5700:	01 96       	adiw	r24, 0x01	; 1
    5702:	4f de       	rcall	.-866    	; 0x53a2 <Endpoint_ConfigureEndpointTable>
    5704:	88 23       	and	r24, r24
    5706:	61 f0       	breq	.+24     	; 0x5720 <CDC_Device_ConfigureEndpoints+0x42>
	  return false;

	if (!(Endpoint_ConfigureEndpointTable(&CDCInterfaceInfo->Config.DataOUTEndpoint, 1)))
    5708:	61 e0       	ldi	r22, 0x01	; 1
    570a:	ce 01       	movw	r24, r28
    570c:	06 96       	adiw	r24, 0x06	; 6
    570e:	49 de       	rcall	.-878    	; 0x53a2 <Endpoint_ConfigureEndpointTable>
    5710:	88 23       	and	r24, r24
    5712:	31 f0       	breq	.+12     	; 0x5720 <CDC_Device_ConfigureEndpoints+0x42>
	  return false;

	if (!(Endpoint_ConfigureEndpointTable(&CDCInterfaceInfo->Config.NotificationEndpoint, 1)))
    5714:	61 e0       	ldi	r22, 0x01	; 1
    5716:	ce 01       	movw	r24, r28
    5718:	0b 96       	adiw	r24, 0x0b	; 11
	  return false;

	return true;
}
    571a:	df 91       	pop	r29
	if (!(Endpoint_ConfigureEndpointTable(&CDCInterfaceInfo->Config.NotificationEndpoint, 1)))
    571c:	cf 91       	pop	r28
    571e:	41 ce       	rjmp	.-894    	; 0x53a2 <Endpoint_ConfigureEndpointTable>
}
    5720:	80 e0       	ldi	r24, 0x00	; 0
    5722:	df 91       	pop	r29
    5724:	cf 91       	pop	r28
    5726:	08 95       	ret

00005728 <CDC_Device_SendString>:
	#endif
}

uint8_t CDC_Device_SendString(USB_ClassInfo_CDC_Device_t* const CDCInterfaceInfo,
                              const char* const String)
{
    5728:	cf 93       	push	r28
    572a:	df 93       	push	r29
    572c:	eb 01       	movw	r28, r22
	if ((USB_DeviceState != DEVICE_STATE_Configured) || !(CDCInterfaceInfo->State.LineEncoding.BaudRateBPS))
    572e:	20 91 6e 23 	lds	r18, 0x236E	; 0x80236e <USB_DeviceState>
    5732:	24 30       	cpi	r18, 0x04	; 4
    5734:	c9 f4       	brne	.+50     	; 0x5768 <CDC_Device_SendString+0x40>
    5736:	fc 01       	movw	r30, r24
    5738:	44 89       	ldd	r20, Z+20	; 0x14
    573a:	55 89       	ldd	r21, Z+21	; 0x15
    573c:	66 89       	ldd	r22, Z+22	; 0x16
    573e:	77 89       	ldd	r23, Z+23	; 0x17
    5740:	45 2b       	or	r20, r21
    5742:	46 2b       	or	r20, r22
    5744:	47 2b       	or	r20, r23
    5746:	81 f0       	breq	.+32     	; 0x5768 <CDC_Device_SendString+0x40>
	  return ENDPOINT_RWSTREAM_DeviceDisconnected;

	Endpoint_SelectEndpoint(CDCInterfaceInfo->Config.DataINEndpoint.Address);
    5748:	81 81       	ldd	r24, Z+1	; 0x01
    574a:	48 dd       	rcall	.-1392   	; 0x51dc <Endpoint_SelectEndpoint>
	return Endpoint_Write_Stream_LE(String, strlen(String), NULL);
    574c:	fe 01       	movw	r30, r28
    574e:	01 90       	ld	r0, Z+
    5750:	00 20       	and	r0, r0
    5752:	e9 f7       	brne	.-6      	; 0x574e <CDC_Device_SendString+0x26>
    5754:	31 97       	sbiw	r30, 0x01	; 1
    5756:	bf 01       	movw	r22, r30
    5758:	6c 1b       	sub	r22, r28
    575a:	7d 0b       	sbc	r23, r29
    575c:	50 e0       	ldi	r21, 0x00	; 0
    575e:	40 e0       	ldi	r20, 0x00	; 0
    5760:	ce 01       	movw	r24, r28
}
    5762:	df 91       	pop	r29
	return Endpoint_Write_Stream_LE(String, strlen(String), NULL);
    5764:	cf 91       	pop	r28
    5766:	b3 cb       	rjmp	.-2202   	; 0x4ece <Endpoint_Write_Stream_LE>
}
    5768:	82 e0       	ldi	r24, 0x02	; 2
    576a:	df 91       	pop	r29
    576c:	cf 91       	pop	r28
    576e:	08 95       	ret

00005770 <CDC_Device_SendData>:

uint8_t CDC_Device_SendData(USB_ClassInfo_CDC_Device_t* const CDCInterfaceInfo,
                            const void* const Buffer,
                            const uint16_t Length)
{
    5770:	0f 93       	push	r16
    5772:	1f 93       	push	r17
    5774:	cf 93       	push	r28
    5776:	df 93       	push	r29
    5778:	eb 01       	movw	r28, r22
    577a:	8a 01       	movw	r16, r20
	if ((USB_DeviceState != DEVICE_STATE_Configured) || !(CDCInterfaceInfo->State.LineEncoding.BaudRateBPS))
    577c:	20 91 6e 23 	lds	r18, 0x236E	; 0x80236e <USB_DeviceState>
    5780:	24 30       	cpi	r18, 0x04	; 4
    5782:	a1 f4       	brne	.+40     	; 0x57ac <CDC_Device_SendData+0x3c>
    5784:	fc 01       	movw	r30, r24
    5786:	44 89       	ldd	r20, Z+20	; 0x14
    5788:	55 89       	ldd	r21, Z+21	; 0x15
    578a:	66 89       	ldd	r22, Z+22	; 0x16
    578c:	77 89       	ldd	r23, Z+23	; 0x17
    578e:	45 2b       	or	r20, r21
    5790:	46 2b       	or	r20, r22
    5792:	47 2b       	or	r20, r23
    5794:	59 f0       	breq	.+22     	; 0x57ac <CDC_Device_SendData+0x3c>
	  return ENDPOINT_RWSTREAM_DeviceDisconnected;

	Endpoint_SelectEndpoint(CDCInterfaceInfo->Config.DataINEndpoint.Address);
    5796:	81 81       	ldd	r24, Z+1	; 0x01
    5798:	21 dd       	rcall	.-1470   	; 0x51dc <Endpoint_SelectEndpoint>
	return Endpoint_Write_Stream_LE(Buffer, Length, NULL);
    579a:	50 e0       	ldi	r21, 0x00	; 0
    579c:	40 e0       	ldi	r20, 0x00	; 0
    579e:	b8 01       	movw	r22, r16
    57a0:	ce 01       	movw	r24, r28
}
    57a2:	df 91       	pop	r29
    57a4:	cf 91       	pop	r28
    57a6:	1f 91       	pop	r17
	return Endpoint_Write_Stream_LE(Buffer, Length, NULL);
    57a8:	0f 91       	pop	r16
    57aa:	91 cb       	rjmp	.-2270   	; 0x4ece <Endpoint_Write_Stream_LE>
}
    57ac:	82 e0       	ldi	r24, 0x02	; 2
    57ae:	df 91       	pop	r29
    57b0:	cf 91       	pop	r28
    57b2:	1f 91       	pop	r17
    57b4:	0f 91       	pop	r16
    57b6:	08 95       	ret

000057b8 <CDC_Device_SendByte>:

uint8_t CDC_Device_SendByte(USB_ClassInfo_CDC_Device_t* const CDCInterfaceInfo,
                            const uint8_t Data)
{
    57b8:	cf 93       	push	r28
    57ba:	c6 2f       	mov	r28, r22
	if ((USB_DeviceState != DEVICE_STATE_Configured) || !(CDCInterfaceInfo->State.LineEncoding.BaudRateBPS))
    57bc:	20 91 6e 23 	lds	r18, 0x236E	; 0x80236e <USB_DeviceState>
    57c0:	24 30       	cpi	r18, 0x04	; 4
    57c2:	19 f5       	brne	.+70     	; 0x580a <CDC_Device_SendByte+0x52>
    57c4:	fc 01       	movw	r30, r24
    57c6:	44 89       	ldd	r20, Z+20	; 0x14
    57c8:	55 89       	ldd	r21, Z+21	; 0x15
    57ca:	66 89       	ldd	r22, Z+22	; 0x16
    57cc:	77 89       	ldd	r23, Z+23	; 0x17
    57ce:	45 2b       	or	r20, r21
    57d0:	46 2b       	or	r20, r22
    57d2:	47 2b       	or	r20, r23
    57d4:	d1 f0       	breq	.+52     	; 0x580a <CDC_Device_SendByte+0x52>
	  return ENDPOINT_RWSTREAM_DeviceDisconnected;

	Endpoint_SelectEndpoint(CDCInterfaceInfo->Config.DataINEndpoint.Address);
    57d6:	81 81       	ldd	r24, Z+1	; 0x01
    57d8:	01 dd       	rcall	.-1534   	; 0x51dc <Endpoint_SelectEndpoint>
			 *          on its direction.
			 */
			static inline bool Endpoint_IsReadWriteAllowed(void) ATTR_WARN_UNUSED_RESULT ATTR_ALWAYS_INLINE;
			static inline bool Endpoint_IsReadWriteAllowed(void)
			{
				return (USB_Endpoint_SelectedFIFO->Position < USB_Endpoint_SelectedFIFO->Length);
    57da:	80 91 77 23 	lds	r24, 0x2377	; 0x802377 <USB_Endpoint_SelectedFIFO>
    57de:	90 91 78 23 	lds	r25, 0x2378	; 0x802378 <USB_Endpoint_SelectedFIFO+0x1>
    57e2:	fc 01       	movw	r30, r24
    57e4:	ef 5b       	subi	r30, 0xBF	; 191
    57e6:	ff 4f       	sbci	r31, 0xFF	; 255
    57e8:	20 81       	ld	r18, Z
    57ea:	80 5c       	subi	r24, 0xC0	; 192
    57ec:	9f 4f       	sbci	r25, 0xFF	; 255
    57ee:	fc 01       	movw	r30, r24
    57f0:	80 81       	ld	r24, Z

	if (!(Endpoint_IsReadWriteAllowed()))
    57f2:	28 17       	cp	r18, r24
    57f4:	28 f4       	brcc	.+10     	; 0x5800 <CDC_Device_SendByte+0x48>

		if ((ErrorCode = Endpoint_WaitUntilReady()) != ENDPOINT_READYWAIT_NoError)
		  return ErrorCode;
	}

	Endpoint_Write_8(Data);
    57f6:	8c 2f       	mov	r24, r28
    57f8:	e1 dc       	rcall	.-1598   	; 0x51bc <Endpoint_Write_8>
	return ENDPOINT_READYWAIT_NoError;
    57fa:	80 e0       	ldi	r24, 0x00	; 0
}
    57fc:	cf 91       	pop	r28
		Endpoint_ClearIN();
    57fe:	08 95       	ret
    5800:	a5 dc       	rcall	.-1718   	; 0x514c <Endpoint_ClearIN>
		if ((ErrorCode = Endpoint_WaitUntilReady()) != ENDPOINT_READYWAIT_NoError)
    5802:	51 de       	rcall	.-862    	; 0x54a6 <Endpoint_WaitUntilReady>
    5804:	88 23       	and	r24, r24
    5806:	b9 f3       	breq	.-18     	; 0x57f6 <CDC_Device_SendByte+0x3e>
    5808:	f9 cf       	rjmp	.-14     	; 0x57fc <CDC_Device_SendByte+0x44>
    580a:	82 e0       	ldi	r24, 0x02	; 2
	  return ENDPOINT_RWSTREAM_DeviceDisconnected;
    580c:	f7 cf       	rjmp	.-18     	; 0x57fc <CDC_Device_SendByte+0x44>

0000580e <CDC_Device_Flush>:
    580e:	cf 93       	push	r28

uint8_t CDC_Device_Flush(USB_ClassInfo_CDC_Device_t* const CDCInterfaceInfo)
{
    5810:	df 93       	push	r29
	if ((USB_DeviceState != DEVICE_STATE_Configured) || !(CDCInterfaceInfo->State.LineEncoding.BaudRateBPS))
    5812:	20 91 6e 23 	lds	r18, 0x236E	; 0x80236e <USB_DeviceState>
    5816:	24 30       	cpi	r18, 0x04	; 4
    5818:	c1 f5       	brne	.+112    	; 0x588a <CDC_Device_Flush+0x7c>
    581a:	fc 01       	movw	r30, r24
    581c:	44 89       	ldd	r20, Z+20	; 0x14
    581e:	55 89       	ldd	r21, Z+21	; 0x15
    5820:	66 89       	ldd	r22, Z+22	; 0x16
    5822:	77 89       	ldd	r23, Z+23	; 0x17
    5824:	45 2b       	or	r20, r21
    5826:	46 2b       	or	r20, r22
    5828:	47 2b       	or	r20, r23
    582a:	79 f1       	breq	.+94     	; 0x588a <CDC_Device_Flush+0x7c>
	  return ENDPOINT_RWSTREAM_DeviceDisconnected;

	uint8_t ErrorCode;

	Endpoint_SelectEndpoint(CDCInterfaceInfo->Config.DataINEndpoint.Address);
    582c:	81 81       	ldd	r24, Z+1	; 0x01
    582e:	d6 dc       	rcall	.-1620   	; 0x51dc <Endpoint_SelectEndpoint>
				if (USB_Endpoint_SelectedEndpoint & ENDPOINT_DIR_IN)
    5830:	20 91 7b 23 	lds	r18, 0x237B	; 0x80237b <USB_Endpoint_SelectedEndpoint>
    5834:	80 91 77 23 	lds	r24, 0x2377	; 0x802377 <USB_Endpoint_SelectedFIFO>
    5838:	90 91 78 23 	lds	r25, 0x2378	; 0x802378 <USB_Endpoint_SelectedFIFO+0x1>
				  return USB_Endpoint_SelectedFIFO->Position;
    583c:	fc 01       	movw	r30, r24
				if (USB_Endpoint_SelectedEndpoint & ENDPOINT_DIR_IN)
    583e:	27 ff       	sbrs	r18, 7
    5840:	0b c0       	rjmp	.+22     	; 0x5858 <CDC_Device_Flush+0x4a>
				  return USB_Endpoint_SelectedFIFO->Position;
    5842:	ef 5b       	subi	r30, 0xBF	; 191
    5844:	ff 4f       	sbci	r31, 0xFF	; 255
    5846:	20 81       	ld	r18, Z
    5848:	30 e0       	ldi	r19, 0x00	; 0

	if (!(Endpoint_BytesInEndpoint()))
    584a:	23 2b       	or	r18, r19
    584c:	69 f4       	brne	.+26     	; 0x5868 <CDC_Device_Flush+0x5a>
	  return ENDPOINT_READYWAIT_NoError;
    584e:	c0 e0       	ldi	r28, 0x00	; 0

		Endpoint_ClearIN();
	}

	return ENDPOINT_READYWAIT_NoError;
}
    5850:	8c 2f       	mov	r24, r28
    5852:	df 91       	pop	r29
    5854:	cf 91       	pop	r28
    5856:	08 95       	ret
				  return (USB_Endpoint_SelectedFIFO->Length - USB_Endpoint_SelectedFIFO->Position);
    5858:	e0 5c       	subi	r30, 0xC0	; 192
    585a:	ff 4f       	sbci	r31, 0xFF	; 255
    585c:	20 81       	ld	r18, Z
    585e:	31 96       	adiw	r30, 0x01	; 1
    5860:	30 81       	ld	r19, Z
    5862:	23 1b       	sub	r18, r19
    5864:	33 0b       	sbc	r19, r19
    5866:	f1 cf       	rjmp	.-30     	; 0x584a <CDC_Device_Flush+0x3c>
				return (USB_Endpoint_SelectedFIFO->Position < USB_Endpoint_SelectedFIFO->Length);
    5868:	fc 01       	movw	r30, r24
    586a:	ef 5b       	subi	r30, 0xBF	; 191
    586c:	ff 4f       	sbci	r31, 0xFF	; 255
    586e:	d0 81       	ld	r29, Z
    5870:	80 5c       	subi	r24, 0xC0	; 192
    5872:	9f 4f       	sbci	r25, 0xFF	; 255
    5874:	fc 01       	movw	r30, r24
	Endpoint_ClearIN();
    5876:	c0 81       	ld	r28, Z
    5878:	69 dc       	rcall	.-1838   	; 0x514c <Endpoint_ClearIN>
	if (BankFull)
    587a:	dc 17       	cp	r29, r28
		if ((ErrorCode = Endpoint_WaitUntilReady()) != ENDPOINT_READYWAIT_NoError)
    587c:	40 f3       	brcs	.-48     	; 0x584e <CDC_Device_Flush+0x40>
    587e:	13 de       	rcall	.-986    	; 0x54a6 <Endpoint_WaitUntilReady>
    5880:	c8 2f       	mov	r28, r24
    5882:	81 11       	cpse	r24, r1
		Endpoint_ClearIN();
    5884:	e5 cf       	rjmp	.-54     	; 0x5850 <CDC_Device_Flush+0x42>
    5886:	62 dc       	rcall	.-1852   	; 0x514c <Endpoint_ClearIN>
    5888:	e3 cf       	rjmp	.-58     	; 0x5850 <CDC_Device_Flush+0x42>
	  return ENDPOINT_RWSTREAM_DeviceDisconnected;
    588a:	c2 e0       	ldi	r28, 0x02	; 2
    588c:	e1 cf       	rjmp	.-62     	; 0x5850 <CDC_Device_Flush+0x42>

0000588e <CDC_Device_USBTask>:
{
    588e:	cf 93       	push	r28
    5890:	df 93       	push	r29
    5892:	ec 01       	movw	r28, r24
	if ((USB_DeviceState != DEVICE_STATE_Configured) || !(CDCInterfaceInfo->State.LineEncoding.BaudRateBPS))
    5894:	80 91 6e 23 	lds	r24, 0x236E	; 0x80236e <USB_DeviceState>
    5898:	84 30       	cpi	r24, 0x04	; 4
    589a:	89 f4       	brne	.+34     	; 0x58be <CDC_Device_USBTask+0x30>
    589c:	8c 89       	ldd	r24, Y+20	; 0x14
    589e:	9d 89       	ldd	r25, Y+21	; 0x15
    58a0:	ae 89       	ldd	r26, Y+22	; 0x16
    58a2:	bf 89       	ldd	r27, Y+23	; 0x17
    58a4:	89 2b       	or	r24, r25
    58a6:	8a 2b       	or	r24, r26
    58a8:	8b 2b       	or	r24, r27
    58aa:	49 f0       	breq	.+18     	; 0x58be <CDC_Device_USBTask+0x30>
	Endpoint_SelectEndpoint(CDCInterfaceInfo->Config.DataINEndpoint.Address);
    58ac:	89 81       	ldd	r24, Y+1	; 0x01
    58ae:	96 dc       	rcall	.-1748   	; 0x51dc <Endpoint_SelectEndpoint>
	if (Endpoint_IsINReady())
    58b0:	bd dc       	rcall	.-1670   	; 0x522c <Endpoint_IsINReady>
    58b2:	88 23       	and	r24, r24
    58b4:	21 f0       	breq	.+8      	; 0x58be <CDC_Device_USBTask+0x30>
    58b6:	ce 01       	movw	r24, r28
	  CDC_Device_Flush(CDCInterfaceInfo);
    58b8:	df 91       	pop	r29
}
    58ba:	cf 91       	pop	r28
	  CDC_Device_Flush(CDCInterfaceInfo);
    58bc:	a8 cf       	rjmp	.-176    	; 0x580e <CDC_Device_Flush>
    58be:	df 91       	pop	r29
}
    58c0:	cf 91       	pop	r28
    58c2:	08 95       	ret

000058c4 <CDC_Device_ReceiveByte>:
    58c4:	cf 93       	push	r28
		return 0;
	}
}

int16_t CDC_Device_ReceiveByte(USB_ClassInfo_CDC_Device_t* const CDCInterfaceInfo)
{
    58c6:	df 93       	push	r29
	if ((USB_DeviceState != DEVICE_STATE_Configured) || !(CDCInterfaceInfo->State.LineEncoding.BaudRateBPS))
    58c8:	20 91 6e 23 	lds	r18, 0x236E	; 0x80236e <USB_DeviceState>
    58cc:	24 30       	cpi	r18, 0x04	; 4
    58ce:	31 f0       	breq	.+12     	; 0x58dc <CDC_Device_ReceiveByte+0x18>
	  return -1;
    58d0:	cf ef       	ldi	r28, 0xFF	; 255
    58d2:	df ef       	ldi	r29, 0xFF	; 255
		if (!(Endpoint_BytesInEndpoint()))
		  Endpoint_ClearOUT();
	}

	return ReceivedByte;
}
    58d4:	ce 01       	movw	r24, r28
    58d6:	df 91       	pop	r29
    58d8:	cf 91       	pop	r28
    58da:	08 95       	ret
	if ((USB_DeviceState != DEVICE_STATE_Configured) || !(CDCInterfaceInfo->State.LineEncoding.BaudRateBPS))
    58dc:	dc 01       	movw	r26, r24
    58de:	54 96       	adiw	r26, 0x14	; 20
    58e0:	4d 91       	ld	r20, X+
    58e2:	5d 91       	ld	r21, X+
    58e4:	6d 91       	ld	r22, X+
    58e6:	7c 91       	ld	r23, X
    58e8:	57 97       	sbiw	r26, 0x17	; 23
    58ea:	45 2b       	or	r20, r21
    58ec:	46 2b       	or	r20, r22
    58ee:	47 2b       	or	r20, r23
    58f0:	79 f3       	breq	.-34     	; 0x58d0 <CDC_Device_ReceiveByte+0xc>
	Endpoint_SelectEndpoint(CDCInterfaceInfo->Config.DataOUTEndpoint.Address);
    58f2:	16 96       	adiw	r26, 0x06	; 6
    58f4:	8c 91       	ld	r24, X
    58f6:	72 dc       	rcall	.-1820   	; 0x51dc <Endpoint_SelectEndpoint>
	if (Endpoint_IsOUTReceived())
    58f8:	a5 dc       	rcall	.-1718   	; 0x5244 <Endpoint_IsOUTReceived>
    58fa:	88 23       	and	r24, r24
    58fc:	49 f3       	breq	.-46     	; 0x58d0 <CDC_Device_ReceiveByte+0xc>
    58fe:	20 91 7b 23 	lds	r18, 0x237B	; 0x80237b <USB_Endpoint_SelectedEndpoint>
				if (USB_Endpoint_SelectedEndpoint & ENDPOINT_DIR_IN)
    5902:	80 91 77 23 	lds	r24, 0x2377	; 0x802377 <USB_Endpoint_SelectedFIFO>
    5906:	90 91 78 23 	lds	r25, 0x2378	; 0x802378 <USB_Endpoint_SelectedFIFO+0x1>
    590a:	fc 01       	movw	r30, r24
    590c:	ef 5b       	subi	r30, 0xBF	; 191
    590e:	ff 4f       	sbci	r31, 0xFF	; 255
    5910:	27 ff       	sbrs	r18, 7
    5912:	1a c0       	rjmp	.+52     	; 0x5948 <CDC_Device_ReceiveByte+0x84>
    5914:	80 81       	ld	r24, Z
				  return USB_Endpoint_SelectedFIFO->Position;
    5916:	90 e0       	ldi	r25, 0x00	; 0
    5918:	cf ef       	ldi	r28, 0xFF	; 255
	int16_t ReceivedByte = -1;
    591a:	df ef       	ldi	r29, 0xFF	; 255
    591c:	89 2b       	or	r24, r25
		if (Endpoint_BytesInEndpoint())
    591e:	19 f0       	breq	.+6      	; 0x5926 <CDC_Device_ReceiveByte+0x62>
		  ReceivedByte = Endpoint_Read_8();
    5920:	3d dc       	rcall	.-1926   	; 0x519c <Endpoint_Read_8>
    5922:	c8 2f       	mov	r28, r24
    5924:	d0 e0       	ldi	r29, 0x00	; 0
    5926:	20 91 7b 23 	lds	r18, 0x237B	; 0x80237b <USB_Endpoint_SelectedEndpoint>
				if (USB_Endpoint_SelectedEndpoint & ENDPOINT_DIR_IN)
    592a:	80 91 77 23 	lds	r24, 0x2377	; 0x802377 <USB_Endpoint_SelectedFIFO>
    592e:	90 91 78 23 	lds	r25, 0x2378	; 0x802378 <USB_Endpoint_SelectedFIFO+0x1>
    5932:	fc 01       	movw	r30, r24
    5934:	ef 5b       	subi	r30, 0xBF	; 191
    5936:	ff 4f       	sbci	r31, 0xFF	; 255
    5938:	27 ff       	sbrs	r18, 7
    593a:	0e c0       	rjmp	.+28     	; 0x5958 <CDC_Device_ReceiveByte+0x94>
    593c:	20 81       	ld	r18, Z
				  return USB_Endpoint_SelectedFIFO->Position;
    593e:	30 e0       	ldi	r19, 0x00	; 0
		if (!(Endpoint_BytesInEndpoint()))
    5940:	23 2b       	or	r18, r19
    5942:	41 f6       	brne	.-112    	; 0x58d4 <CDC_Device_ReceiveByte+0x10>
		  Endpoint_ClearOUT();
    5944:	1c dc       	rcall	.-1992   	; 0x517e <Endpoint_ClearOUT>
    5946:	c6 cf       	rjmp	.-116    	; 0x58d4 <CDC_Device_ReceiveByte+0x10>
    5948:	80 5c       	subi	r24, 0xC0	; 192
				  return (USB_Endpoint_SelectedFIFO->Length - USB_Endpoint_SelectedFIFO->Position);
    594a:	9f 4f       	sbci	r25, 0xFF	; 255
    594c:	dc 01       	movw	r26, r24
    594e:	8c 91       	ld	r24, X
    5950:	90 81       	ld	r25, Z
    5952:	89 1b       	sub	r24, r25
    5954:	99 0b       	sbc	r25, r25
    5956:	e0 cf       	rjmp	.-64     	; 0x5918 <CDC_Device_ReceiveByte+0x54>
    5958:	80 5c       	subi	r24, 0xC0	; 192
    595a:	9f 4f       	sbci	r25, 0xFF	; 255
    595c:	dc 01       	movw	r26, r24
    595e:	2c 91       	ld	r18, X
    5960:	80 81       	ld	r24, Z
    5962:	28 1b       	sub	r18, r24
    5964:	33 0b       	sbc	r19, r19
    5966:	ec cf       	rjmp	.-40     	; 0x5940 <CDC_Device_ReceiveByte+0x7c>

00005968 <CDC_Device_Event_Stub>:
    5968:	08 95       	ret

0000596a <CDC_Device_ProcessControlRequest>:
{
    596a:	ff 92       	push	r15
    596c:	0f 93       	push	r16
    596e:	1f 93       	push	r17
    5970:	cf 93       	push	r28
    5972:	df 93       	push	r29
    5974:	ec 01       	movw	r28, r24
	if (!(Endpoint_IsSETUPReceived()))
    5976:	7e dc       	rcall	.-1796   	; 0x5274 <Endpoint_IsSETUPReceived>
    5978:	88 23       	and	r24, r24
    597a:	81 f0       	breq	.+32     	; 0x599c <CDC_Device_ProcessControlRequest+0x32>
	if (USB_ControlRequest.wIndex != CDCInterfaceInfo->Config.ControlInterfaceNumber)
    597c:	28 81       	ld	r18, Y
    597e:	80 91 73 23 	lds	r24, 0x2373	; 0x802373 <USB_ControlRequest+0x4>
    5982:	90 91 74 23 	lds	r25, 0x2374	; 0x802374 <USB_ControlRequest+0x5>
    5986:	28 17       	cp	r18, r24
    5988:	19 06       	cpc	r1, r25
    598a:	41 f4       	brne	.+16     	; 0x599c <CDC_Device_ProcessControlRequest+0x32>
	switch (USB_ControlRequest.bRequest)
    598c:	80 91 70 23 	lds	r24, 0x2370	; 0x802370 <USB_ControlRequest+0x1>
    5990:	81 32       	cpi	r24, 0x21	; 33
    5992:	f1 f0       	breq	.+60     	; 0x59d0 <CDC_Device_ProcessControlRequest+0x66>
    5994:	48 f4       	brcc	.+18     	; 0x59a8 <CDC_Device_ProcessControlRequest+0x3e>
    5996:	80 32       	cpi	r24, 0x20	; 32
    5998:	09 f4       	brne	.+2      	; 0x599c <CDC_Device_ProcessControlRequest+0x32>
    599a:	3a c0       	rjmp	.+116    	; 0x5a10 <CDC_Device_ProcessControlRequest+0xa6>
}
    599c:	df 91       	pop	r29
    599e:	cf 91       	pop	r28
    59a0:	1f 91       	pop	r17
    59a2:	0f 91       	pop	r16
    59a4:	ff 90       	pop	r15
    59a6:	08 95       	ret
	switch (USB_ControlRequest.bRequest)
    59a8:	82 32       	cpi	r24, 0x22	; 34
    59aa:	09 f4       	brne	.+2      	; 0x59ae <CDC_Device_ProcessControlRequest+0x44>
    59ac:	63 c0       	rjmp	.+198    	; 0x5a74 <CDC_Device_ProcessControlRequest+0x10a>
    59ae:	83 32       	cpi	r24, 0x23	; 35
    59b0:	a9 f7       	brne	.-22     	; 0x599c <CDC_Device_ProcessControlRequest+0x32>
			if (USB_ControlRequest.bmRequestType == (REQDIR_HOSTTODEVICE | REQTYPE_CLASS | REQREC_INTERFACE))
    59b2:	80 91 6f 23 	lds	r24, 0x236F	; 0x80236f <USB_ControlRequest>
    59b6:	81 32       	cpi	r24, 0x21	; 33
				Endpoint_ClearSETUP();
    59b8:	89 f7       	brne	.-30     	; 0x599c <CDC_Device_ProcessControlRequest+0x32>
				Endpoint_ClearStatusStage();
    59ba:	74 dc       	rcall	.-1816   	; 0x52a4 <Endpoint_ClearSETUP>
    59bc:	60 dd       	rcall	.-1344   	; 0x547e <Endpoint_ClearStatusStage>
				EVENT_CDC_Device_BreakSent(CDCInterfaceInfo, (uint8_t)USB_ControlRequest.wValue);
    59be:	60 91 71 23 	lds	r22, 0x2371	; 0x802371 <USB_ControlRequest+0x2>
    59c2:	ce 01       	movw	r24, r28
}
    59c4:	df 91       	pop	r29
    59c6:	cf 91       	pop	r28
    59c8:	1f 91       	pop	r17
    59ca:	0f 91       	pop	r16
				EVENT_CDC_Device_BreakSent(CDCInterfaceInfo, (uint8_t)USB_ControlRequest.wValue);
    59cc:	ff 90       	pop	r15
    59ce:	cc cf       	rjmp	.-104    	; 0x5968 <CDC_Device_Event_Stub>
			if (USB_ControlRequest.bmRequestType == (REQDIR_DEVICETOHOST | REQTYPE_CLASS | REQREC_INTERFACE))
    59d0:	80 91 6f 23 	lds	r24, 0x236F	; 0x80236f <USB_ControlRequest>
				Endpoint_ClearSETUP();
    59d4:	81 3a       	cpi	r24, 0xA1	; 161
    59d6:	11 f7       	brne	.-60     	; 0x599c <CDC_Device_ProcessControlRequest+0x32>
				while (!(Endpoint_IsINReady()));
    59d8:	65 dc       	rcall	.-1846   	; 0x52a4 <Endpoint_ClearSETUP>
    59da:	28 dc       	rcall	.-1968   	; 0x522c <Endpoint_IsINReady>
    59dc:	88 23       	and	r24, r24
				Endpoint_Write_32_LE(CDCInterfaceInfo->State.LineEncoding.BaudRateBPS);
    59de:	e9 f3       	breq	.-6      	; 0x59da <CDC_Device_ProcessControlRequest+0x70>
    59e0:	8c 89       	ldd	r24, Y+20	; 0x14
			 *  \param[in] Data  Data to write to the currently selected endpoint's FIFO buffer.
			 */
			static inline void Endpoint_Write_32_LE(const uint32_t Data) ATTR_ALWAYS_INLINE;
			static inline void Endpoint_Write_32_LE(const uint32_t Data)
			{
				Endpoint_Write_8(Data & 0xFF);
    59e2:	fd 88       	ldd	r15, Y+21	; 0x15
				Endpoint_Write_8(Data >> 8);
    59e4:	0e 89       	ldd	r16, Y+22	; 0x16
    59e6:	1f 89       	ldd	r17, Y+23	; 0x17
				Endpoint_Write_8(Data >> 16);
    59e8:	e9 db       	rcall	.-2094   	; 0x51bc <Endpoint_Write_8>
    59ea:	8f 2d       	mov	r24, r15
				Endpoint_Write_8(Data >> 24);
    59ec:	e7 db       	rcall	.-2098   	; 0x51bc <Endpoint_Write_8>
    59ee:	80 2f       	mov	r24, r16
    59f0:	e5 db       	rcall	.-2102   	; 0x51bc <Endpoint_Write_8>
				Endpoint_Write_8(CDCInterfaceInfo->State.LineEncoding.CharFormat);
    59f2:	81 2f       	mov	r24, r17
    59f4:	e3 db       	rcall	.-2106   	; 0x51bc <Endpoint_Write_8>
				Endpoint_Write_8(CDCInterfaceInfo->State.LineEncoding.ParityType);
    59f6:	88 8d       	ldd	r24, Y+24	; 0x18
    59f8:	e1 db       	rcall	.-2110   	; 0x51bc <Endpoint_Write_8>
    59fa:	89 8d       	ldd	r24, Y+25	; 0x19
				Endpoint_Write_8(CDCInterfaceInfo->State.LineEncoding.DataBits);
    59fc:	df db       	rcall	.-2114   	; 0x51bc <Endpoint_Write_8>
    59fe:	8a 8d       	ldd	r24, Y+26	; 0x1a
				Endpoint_ClearIN();
    5a00:	dd db       	rcall	.-2118   	; 0x51bc <Endpoint_Write_8>
}
    5a02:	a4 db       	rcall	.-2232   	; 0x514c <Endpoint_ClearIN>
    5a04:	df 91       	pop	r29
    5a06:	cf 91       	pop	r28
				Endpoint_ClearStatusStage();
    5a08:	1f 91       	pop	r17
			if (USB_ControlRequest.bmRequestType == (REQDIR_HOSTTODEVICE | REQTYPE_CLASS | REQREC_INTERFACE))
    5a0a:	0f 91       	pop	r16
    5a0c:	ff 90       	pop	r15
    5a0e:	37 cd       	rjmp	.-1426   	; 0x547e <Endpoint_ClearStatusStage>
    5a10:	80 91 6f 23 	lds	r24, 0x236F	; 0x80236f <USB_ControlRequest>
				Endpoint_ClearSETUP();
    5a14:	81 32       	cpi	r24, 0x21	; 33
				while (!(Endpoint_IsOUTReceived()))
    5a16:	09 f0       	breq	.+2      	; 0x5a1a <CDC_Device_ProcessControlRequest+0xb0>
    5a18:	c1 cf       	rjmp	.-126    	; 0x599c <CDC_Device_ProcessControlRequest+0x32>
    5a1a:	44 dc       	rcall	.-1912   	; 0x52a4 <Endpoint_ClearSETUP>
    5a1c:	13 dc       	rcall	.-2010   	; 0x5244 <Endpoint_IsOUTReceived>
				uint32_t Byte0 = Endpoint_Read_8();
    5a1e:	88 23       	and	r24, r24
    5a20:	21 f1       	breq	.+72     	; 0x5a6a <CDC_Device_ProcessControlRequest+0x100>
    5a22:	bc db       	rcall	.-2184   	; 0x519c <Endpoint_Read_8>
				uint32_t Byte1 = Endpoint_Read_8();
    5a24:	f8 2e       	mov	r15, r24
    5a26:	ba db       	rcall	.-2188   	; 0x519c <Endpoint_Read_8>
				uint32_t Byte2 = Endpoint_Read_8();
    5a28:	18 2f       	mov	r17, r24
    5a2a:	b8 db       	rcall	.-2192   	; 0x519c <Endpoint_Read_8>
				uint32_t Byte3 = Endpoint_Read_8();
    5a2c:	08 2f       	mov	r16, r24
				uint32_t Byte2 = Endpoint_Read_8();
    5a2e:	b6 db       	rcall	.-2196   	; 0x519c <Endpoint_Read_8>
    5a30:	40 2f       	mov	r20, r16
    5a32:	50 e0       	ldi	r21, 0x00	; 0
				return ((Byte3 << 24) | (Byte2 << 16) | (Byte1 << 8) | Byte0);
    5a34:	70 e0       	ldi	r23, 0x00	; 0
    5a36:	60 e0       	ldi	r22, 0x00	; 0
    5a38:	ba 01       	movw	r22, r20
    5a3a:	55 27       	eor	r21, r21
    5a3c:	44 27       	eor	r20, r20
				CDCInterfaceInfo->State.LineEncoding.BaudRateBPS = Endpoint_Read_32_LE();
    5a3e:	78 2b       	or	r23, r24
    5a40:	4f 29       	or	r20, r15
    5a42:	51 2b       	or	r21, r17
    5a44:	4c 8b       	std	Y+20, r20	; 0x14
				CDCInterfaceInfo->State.LineEncoding.CharFormat  = Endpoint_Read_8();
    5a46:	5d 8b       	std	Y+21, r21	; 0x15
    5a48:	6e 8b       	std	Y+22, r22	; 0x16
    5a4a:	7f 8b       	std	Y+23, r23	; 0x17
				CDCInterfaceInfo->State.LineEncoding.ParityType  = Endpoint_Read_8();
    5a4c:	a7 db       	rcall	.-2226   	; 0x519c <Endpoint_Read_8>
    5a4e:	88 8f       	std	Y+24, r24	; 0x18
				CDCInterfaceInfo->State.LineEncoding.DataBits    = Endpoint_Read_8();
    5a50:	a5 db       	rcall	.-2230   	; 0x519c <Endpoint_Read_8>
    5a52:	89 8f       	std	Y+25, r24	; 0x19
    5a54:	a3 db       	rcall	.-2234   	; 0x519c <Endpoint_Read_8>
				Endpoint_ClearOUT();
    5a56:	8a 8f       	std	Y+26, r24	; 0x1a
    5a58:	92 db       	rcall	.-2268   	; 0x517e <Endpoint_ClearOUT>
				Endpoint_ClearStatusStage();
    5a5a:	11 dd       	rcall	.-1502   	; 0x547e <Endpoint_ClearStatusStage>
    5a5c:	ce 01       	movw	r24, r28
				EVENT_CDC_Device_LineEncodingChanged(CDCInterfaceInfo);
    5a5e:	df 91       	pop	r29
}
    5a60:	cf 91       	pop	r28
    5a62:	1f 91       	pop	r17
    5a64:	0f 91       	pop	r16
    5a66:	ff 90       	pop	r15
				EVENT_CDC_Device_LineEncodingChanged(CDCInterfaceInfo);
    5a68:	7f cf       	rjmp	.-258    	; 0x5968 <CDC_Device_Event_Stub>
    5a6a:	80 91 6e 23 	lds	r24, 0x236E	; 0x80236e <USB_DeviceState>
					if (USB_DeviceState == DEVICE_STATE_Unattached)
    5a6e:	81 11       	cpse	r24, r1
    5a70:	d5 cf       	rjmp	.-86     	; 0x5a1c <CDC_Device_ProcessControlRequest+0xb2>
    5a72:	94 cf       	rjmp	.-216    	; 0x599c <CDC_Device_ProcessControlRequest+0x32>
    5a74:	80 91 6f 23 	lds	r24, 0x236F	; 0x80236f <USB_ControlRequest>
			if (USB_ControlRequest.bmRequestType == (REQDIR_HOSTTODEVICE | REQTYPE_CLASS | REQREC_INTERFACE))
    5a78:	81 32       	cpi	r24, 0x21	; 33
    5a7a:	09 f0       	breq	.+2      	; 0x5a7e <CDC_Device_ProcessControlRequest+0x114>
    5a7c:	8f cf       	rjmp	.-226    	; 0x599c <CDC_Device_ProcessControlRequest+0x32>
    5a7e:	12 dc       	rcall	.-2012   	; 0x52a4 <Endpoint_ClearSETUP>
				Endpoint_ClearSETUP();
    5a80:	fe dc       	rcall	.-1540   	; 0x547e <Endpoint_ClearStatusStage>
    5a82:	80 91 71 23 	lds	r24, 0x2371	; 0x802371 <USB_ControlRequest+0x2>
				Endpoint_ClearStatusStage();
    5a86:	90 91 72 23 	lds	r25, 0x2372	; 0x802372 <USB_ControlRequest+0x3>
				CDCInterfaceInfo->State.ControlLineStates.HostToDevice = USB_ControlRequest.wValue;
    5a8a:	88 8b       	std	Y+16, r24	; 0x10
    5a8c:	99 8b       	std	Y+17, r25	; 0x11
    5a8e:	ce 01       	movw	r24, r28
    5a90:	df 91       	pop	r29
    5a92:	cf 91       	pop	r28
				EVENT_CDC_Device_ControLineStateChanged(CDCInterfaceInfo);
    5a94:	1f 91       	pop	r17
}
    5a96:	0f 91       	pop	r16
    5a98:	ff 90       	pop	r15
    5a9a:	66 cf       	rjmp	.-308    	; 0x5968 <CDC_Device_Event_Stub>

00005a9c <__udivmodqi4>:
    5a9c:	99 1b       	sub	r25, r25
    5a9e:	79 e0       	ldi	r23, 0x09	; 9
    5aa0:	04 c0       	rjmp	.+8      	; 0x5aaa <__udivmodqi4_ep>

00005aa2 <__udivmodqi4_loop>:
    5aa2:	99 1f       	adc	r25, r25
    5aa4:	96 17       	cp	r25, r22
    5aa6:	08 f0       	brcs	.+2      	; 0x5aaa <__udivmodqi4_ep>
    5aa8:	96 1b       	sub	r25, r22

00005aaa <__udivmodqi4_ep>:
    5aaa:	88 1f       	adc	r24, r24
    5aac:	7a 95       	dec	r23
    5aae:	c9 f7       	brne	.-14     	; 0x5aa2 <__udivmodqi4_loop>
    5ab0:	80 95       	com	r24
    5ab2:	08 95       	ret

00005ab4 <__udivmodhi4>:
    5ab4:	aa 1b       	sub	r26, r26
    5ab6:	bb 1b       	sub	r27, r27
    5ab8:	51 e1       	ldi	r21, 0x11	; 17
    5aba:	07 c0       	rjmp	.+14     	; 0x5aca <__udivmodhi4_ep>

00005abc <__udivmodhi4_loop>:
    5abc:	aa 1f       	adc	r26, r26
    5abe:	bb 1f       	adc	r27, r27
    5ac0:	a6 17       	cp	r26, r22
    5ac2:	b7 07       	cpc	r27, r23
    5ac4:	10 f0       	brcs	.+4      	; 0x5aca <__udivmodhi4_ep>
    5ac6:	a6 1b       	sub	r26, r22
    5ac8:	b7 0b       	sbc	r27, r23

00005aca <__udivmodhi4_ep>:
    5aca:	88 1f       	adc	r24, r24
    5acc:	99 1f       	adc	r25, r25
    5ace:	5a 95       	dec	r21
    5ad0:	a9 f7       	brne	.-22     	; 0x5abc <__udivmodhi4_loop>
    5ad2:	80 95       	com	r24
    5ad4:	90 95       	com	r25
    5ad6:	bc 01       	movw	r22, r24
    5ad8:	cd 01       	movw	r24, r26
    5ada:	08 95       	ret

00005adc <__divmodhi4>:
    5adc:	97 fb       	bst	r25, 7
    5ade:	07 2e       	mov	r0, r23
    5ae0:	16 f4       	brtc	.+4      	; 0x5ae6 <__divmodhi4+0xa>
    5ae2:	00 94       	com	r0
    5ae4:	06 d0       	rcall	.+12     	; 0x5af2 <__divmodhi4_neg1>
    5ae6:	77 fd       	sbrc	r23, 7
    5ae8:	08 d0       	rcall	.+16     	; 0x5afa <__divmodhi4_neg2>
    5aea:	e4 df       	rcall	.-56     	; 0x5ab4 <__udivmodhi4>
    5aec:	07 fc       	sbrc	r0, 7
    5aee:	05 d0       	rcall	.+10     	; 0x5afa <__divmodhi4_neg2>
    5af0:	3e f4       	brtc	.+14     	; 0x5b00 <__divmodhi4_exit>

00005af2 <__divmodhi4_neg1>:
    5af2:	90 95       	com	r25
    5af4:	81 95       	neg	r24
    5af6:	9f 4f       	sbci	r25, 0xFF	; 255
    5af8:	08 95       	ret

00005afa <__divmodhi4_neg2>:
    5afa:	70 95       	com	r23
    5afc:	61 95       	neg	r22
    5afe:	7f 4f       	sbci	r23, 0xFF	; 255

00005b00 <__divmodhi4_exit>:
    5b00:	08 95       	ret

00005b02 <__udivmodsi4>:
    5b02:	a1 e2       	ldi	r26, 0x21	; 33
    5b04:	1a 2e       	mov	r1, r26
    5b06:	aa 1b       	sub	r26, r26
    5b08:	bb 1b       	sub	r27, r27
    5b0a:	fd 01       	movw	r30, r26
    5b0c:	0d c0       	rjmp	.+26     	; 0x5b28 <__udivmodsi4_ep>

00005b0e <__udivmodsi4_loop>:
    5b0e:	aa 1f       	adc	r26, r26
    5b10:	bb 1f       	adc	r27, r27
    5b12:	ee 1f       	adc	r30, r30
    5b14:	ff 1f       	adc	r31, r31
    5b16:	a2 17       	cp	r26, r18
    5b18:	b3 07       	cpc	r27, r19
    5b1a:	e4 07       	cpc	r30, r20
    5b1c:	f5 07       	cpc	r31, r21
    5b1e:	20 f0       	brcs	.+8      	; 0x5b28 <__udivmodsi4_ep>
    5b20:	a2 1b       	sub	r26, r18
    5b22:	b3 0b       	sbc	r27, r19
    5b24:	e4 0b       	sbc	r30, r20
    5b26:	f5 0b       	sbc	r31, r21

00005b28 <__udivmodsi4_ep>:
    5b28:	66 1f       	adc	r22, r22
    5b2a:	77 1f       	adc	r23, r23
    5b2c:	88 1f       	adc	r24, r24
    5b2e:	99 1f       	adc	r25, r25
    5b30:	1a 94       	dec	r1
    5b32:	69 f7       	brne	.-38     	; 0x5b0e <__udivmodsi4_loop>
    5b34:	60 95       	com	r22
    5b36:	70 95       	com	r23
    5b38:	80 95       	com	r24
    5b3a:	90 95       	com	r25
    5b3c:	9b 01       	movw	r18, r22
    5b3e:	ac 01       	movw	r20, r24
    5b40:	bd 01       	movw	r22, r26
    5b42:	cf 01       	movw	r24, r30
    5b44:	08 95       	ret

00005b46 <__muluhisi3>:
    5b46:	0f d0       	rcall	.+30     	; 0x5b66 <__umulhisi3>
    5b48:	a5 9f       	mul	r26, r21
    5b4a:	90 0d       	add	r25, r0
    5b4c:	b4 9f       	mul	r27, r20
    5b4e:	90 0d       	add	r25, r0
    5b50:	a4 9f       	mul	r26, r20
    5b52:	80 0d       	add	r24, r0
    5b54:	91 1d       	adc	r25, r1
    5b56:	11 24       	eor	r1, r1
    5b58:	08 95       	ret

00005b5a <__mulshisi3>:
    5b5a:	b7 ff       	sbrs	r27, 7
    5b5c:	f4 cf       	rjmp	.-24     	; 0x5b46 <__muluhisi3>

00005b5e <__mulohisi3>:
    5b5e:	f3 df       	rcall	.-26     	; 0x5b46 <__muluhisi3>
    5b60:	82 1b       	sub	r24, r18
    5b62:	93 0b       	sbc	r25, r19
    5b64:	08 95       	ret

00005b66 <__umulhisi3>:
    5b66:	a2 9f       	mul	r26, r18
    5b68:	b0 01       	movw	r22, r0
    5b6a:	b3 9f       	mul	r27, r19
    5b6c:	c0 01       	movw	r24, r0
    5b6e:	a3 9f       	mul	r26, r19
    5b70:	70 0d       	add	r23, r0
    5b72:	81 1d       	adc	r24, r1
    5b74:	11 24       	eor	r1, r1
    5b76:	91 1d       	adc	r25, r1
    5b78:	b2 9f       	mul	r27, r18
    5b7a:	70 0d       	add	r23, r0
    5b7c:	81 1d       	adc	r24, r1
    5b7e:	11 24       	eor	r1, r1
    5b80:	91 1d       	adc	r25, r1
    5b82:	08 95       	ret

00005b84 <do_rand>:
    5b84:	8f 92       	push	r8
    5b86:	9f 92       	push	r9
    5b88:	af 92       	push	r10
    5b8a:	bf 92       	push	r11
    5b8c:	cf 92       	push	r12
    5b8e:	df 92       	push	r13
    5b90:	ef 92       	push	r14
    5b92:	ff 92       	push	r15
    5b94:	cf 93       	push	r28
    5b96:	df 93       	push	r29
    5b98:	ec 01       	movw	r28, r24
    5b9a:	68 81       	ld	r22, Y
    5b9c:	79 81       	ldd	r23, Y+1	; 0x01
    5b9e:	8a 81       	ldd	r24, Y+2	; 0x02
    5ba0:	9b 81       	ldd	r25, Y+3	; 0x03
    5ba2:	61 15       	cp	r22, r1
    5ba4:	71 05       	cpc	r23, r1
    5ba6:	81 05       	cpc	r24, r1
    5ba8:	91 05       	cpc	r25, r1
    5baa:	21 f4       	brne	.+8      	; 0x5bb4 <do_rand+0x30>
    5bac:	64 e2       	ldi	r22, 0x24	; 36
    5bae:	79 ed       	ldi	r23, 0xD9	; 217
    5bb0:	8b e5       	ldi	r24, 0x5B	; 91
    5bb2:	97 e0       	ldi	r25, 0x07	; 7
    5bb4:	2d e1       	ldi	r18, 0x1D	; 29
    5bb6:	33 ef       	ldi	r19, 0xF3	; 243
    5bb8:	41 e0       	ldi	r20, 0x01	; 1
    5bba:	50 e0       	ldi	r21, 0x00	; 0
    5bbc:	49 d3       	rcall	.+1682   	; 0x6250 <__divmodsi4>
    5bbe:	49 01       	movw	r8, r18
    5bc0:	5a 01       	movw	r10, r20
    5bc2:	9b 01       	movw	r18, r22
    5bc4:	ac 01       	movw	r20, r24
    5bc6:	a7 ea       	ldi	r26, 0xA7	; 167
    5bc8:	b1 e4       	ldi	r27, 0x41	; 65
    5bca:	bd df       	rcall	.-134    	; 0x5b46 <__muluhisi3>
    5bcc:	6b 01       	movw	r12, r22
    5bce:	7c 01       	movw	r14, r24
    5bd0:	ac ee       	ldi	r26, 0xEC	; 236
    5bd2:	b4 ef       	ldi	r27, 0xF4	; 244
    5bd4:	a5 01       	movw	r20, r10
    5bd6:	94 01       	movw	r18, r8
    5bd8:	c2 df       	rcall	.-124    	; 0x5b5e <__mulohisi3>
    5bda:	dc 01       	movw	r26, r24
    5bdc:	cb 01       	movw	r24, r22
    5bde:	8c 0d       	add	r24, r12
    5be0:	9d 1d       	adc	r25, r13
    5be2:	ae 1d       	adc	r26, r14
    5be4:	bf 1d       	adc	r27, r15
    5be6:	b7 ff       	sbrs	r27, 7
    5be8:	03 c0       	rjmp	.+6      	; 0x5bf0 <do_rand+0x6c>
    5bea:	01 97       	sbiw	r24, 0x01	; 1
    5bec:	a1 09       	sbc	r26, r1
    5bee:	b0 48       	sbci	r27, 0x80	; 128
    5bf0:	88 83       	st	Y, r24
    5bf2:	99 83       	std	Y+1, r25	; 0x01
    5bf4:	aa 83       	std	Y+2, r26	; 0x02
    5bf6:	bb 83       	std	Y+3, r27	; 0x03
    5bf8:	9f 77       	andi	r25, 0x7F	; 127
    5bfa:	df 91       	pop	r29
    5bfc:	cf 91       	pop	r28
    5bfe:	ff 90       	pop	r15
    5c00:	ef 90       	pop	r14
    5c02:	df 90       	pop	r13
    5c04:	cf 90       	pop	r12
    5c06:	bf 90       	pop	r11
    5c08:	af 90       	pop	r10
    5c0a:	9f 90       	pop	r9
    5c0c:	8f 90       	pop	r8
    5c0e:	08 95       	ret

00005c10 <rand_r>:
    5c10:	b9 cf       	rjmp	.-142    	; 0x5b84 <do_rand>

00005c12 <rand>:
    5c12:	87 e4       	ldi	r24, 0x47	; 71
    5c14:	90 e2       	ldi	r25, 0x20	; 32
    5c16:	b6 cf       	rjmp	.-148    	; 0x5b84 <do_rand>

00005c18 <srand>:
    5c18:	b0 e0       	ldi	r27, 0x00	; 0
    5c1a:	a0 e0       	ldi	r26, 0x00	; 0
    5c1c:	80 93 47 20 	sts	0x2047, r24	; 0x802047 <next>
    5c20:	90 93 48 20 	sts	0x2048, r25	; 0x802048 <next+0x1>
    5c24:	a0 93 49 20 	sts	0x2049, r26	; 0x802049 <next+0x2>
    5c28:	b0 93 4a 20 	sts	0x204A, r27	; 0x80204a <next+0x3>
    5c2c:	08 95       	ret

00005c2e <memcpy_P>:
    5c2e:	fb 01       	movw	r30, r22
    5c30:	dc 01       	movw	r26, r24
    5c32:	02 c0       	rjmp	.+4      	; 0x5c38 <memcpy_P+0xa>
    5c34:	05 90       	lpm	r0, Z+
    5c36:	0d 92       	st	X+, r0
    5c38:	41 50       	subi	r20, 0x01	; 1
    5c3a:	50 40       	sbci	r21, 0x00	; 0
    5c3c:	d8 f7       	brcc	.-10     	; 0x5c34 <memcpy_P+0x6>
    5c3e:	08 95       	ret

00005c40 <strcmp_P>:
    5c40:	fb 01       	movw	r30, r22
    5c42:	dc 01       	movw	r26, r24
    5c44:	8d 91       	ld	r24, X+
    5c46:	05 90       	lpm	r0, Z+
    5c48:	80 19       	sub	r24, r0
    5c4a:	01 10       	cpse	r0, r1
    5c4c:	d9 f3       	breq	.-10     	; 0x5c44 <strcmp_P+0x4>
    5c4e:	99 0b       	sbc	r25, r25
    5c50:	08 95       	ret

00005c52 <strncpy_P>:
    5c52:	fb 01       	movw	r30, r22
    5c54:	dc 01       	movw	r26, r24
    5c56:	41 50       	subi	r20, 0x01	; 1
    5c58:	50 40       	sbci	r21, 0x00	; 0
    5c5a:	48 f0       	brcs	.+18     	; 0x5c6e <strncpy_P+0x1c>
    5c5c:	05 90       	lpm	r0, Z+
    5c5e:	0d 92       	st	X+, r0
    5c60:	00 20       	and	r0, r0
    5c62:	c9 f7       	brne	.-14     	; 0x5c56 <strncpy_P+0x4>
    5c64:	01 c0       	rjmp	.+2      	; 0x5c68 <strncpy_P+0x16>
    5c66:	1d 92       	st	X+, r1
    5c68:	41 50       	subi	r20, 0x01	; 1
    5c6a:	50 40       	sbci	r21, 0x00	; 0
    5c6c:	e0 f7       	brcc	.-8      	; 0x5c66 <strncpy_P+0x14>
    5c6e:	08 95       	ret

00005c70 <memcmp>:
    5c70:	fb 01       	movw	r30, r22
    5c72:	dc 01       	movw	r26, r24
    5c74:	04 c0       	rjmp	.+8      	; 0x5c7e <memcmp+0xe>
    5c76:	8d 91       	ld	r24, X+
    5c78:	01 90       	ld	r0, Z+
    5c7a:	80 19       	sub	r24, r0
    5c7c:	21 f4       	brne	.+8      	; 0x5c86 <memcmp+0x16>
    5c7e:	41 50       	subi	r20, 0x01	; 1
    5c80:	50 40       	sbci	r21, 0x00	; 0
    5c82:	c8 f7       	brcc	.-14     	; 0x5c76 <memcmp+0x6>
    5c84:	88 1b       	sub	r24, r24
    5c86:	99 0b       	sbc	r25, r25
    5c88:	08 95       	ret

00005c8a <memcpy>:
    5c8a:	fb 01       	movw	r30, r22
    5c8c:	dc 01       	movw	r26, r24
    5c8e:	02 c0       	rjmp	.+4      	; 0x5c94 <memcpy+0xa>
    5c90:	01 90       	ld	r0, Z+
    5c92:	0d 92       	st	X+, r0
    5c94:	41 50       	subi	r20, 0x01	; 1
    5c96:	50 40       	sbci	r21, 0x00	; 0
    5c98:	d8 f7       	brcc	.-10     	; 0x5c90 <memcpy+0x6>
    5c9a:	08 95       	ret

00005c9c <memset>:
    5c9c:	dc 01       	movw	r26, r24
    5c9e:	01 c0       	rjmp	.+2      	; 0x5ca2 <memset+0x6>
    5ca0:	6d 93       	st	X+, r22
    5ca2:	41 50       	subi	r20, 0x01	; 1
    5ca4:	50 40       	sbci	r21, 0x00	; 0
    5ca6:	e0 f7       	brcc	.-8      	; 0x5ca0 <memset+0x4>
    5ca8:	08 95       	ret

00005caa <snprintf_P>:
    5caa:	ae e0       	ldi	r26, 0x0E	; 14
    5cac:	b0 e0       	ldi	r27, 0x00	; 0
    5cae:	ea e5       	ldi	r30, 0x5A	; 90
    5cb0:	fe e2       	ldi	r31, 0x2E	; 46
    5cb2:	f8 c2       	rjmp	.+1520   	; 0x62a4 <__prologue_saves__+0x1c>
    5cb4:	0d 89       	ldd	r16, Y+21	; 0x15
    5cb6:	1e 89       	ldd	r17, Y+22	; 0x16
    5cb8:	8f 89       	ldd	r24, Y+23	; 0x17
    5cba:	98 8d       	ldd	r25, Y+24	; 0x18
    5cbc:	2e e0       	ldi	r18, 0x0E	; 14
    5cbe:	2c 83       	std	Y+4, r18	; 0x04
    5cc0:	09 83       	std	Y+1, r16	; 0x01
    5cc2:	1a 83       	std	Y+2, r17	; 0x02
    5cc4:	97 ff       	sbrs	r25, 7
    5cc6:	02 c0       	rjmp	.+4      	; 0x5ccc <snprintf_P+0x22>
    5cc8:	80 e0       	ldi	r24, 0x00	; 0
    5cca:	90 e8       	ldi	r25, 0x80	; 128
    5ccc:	01 97       	sbiw	r24, 0x01	; 1
    5cce:	8d 83       	std	Y+5, r24	; 0x05
    5cd0:	9e 83       	std	Y+6, r25	; 0x06
    5cd2:	ae 01       	movw	r20, r28
    5cd4:	45 5e       	subi	r20, 0xE5	; 229
    5cd6:	5f 4f       	sbci	r21, 0xFF	; 255
    5cd8:	69 8d       	ldd	r22, Y+25	; 0x19
    5cda:	7a 8d       	ldd	r23, Y+26	; 0x1a
    5cdc:	ce 01       	movw	r24, r28
    5cde:	01 96       	adiw	r24, 0x01	; 1
    5ce0:	11 d0       	rcall	.+34     	; 0x5d04 <vfprintf>
    5ce2:	4d 81       	ldd	r20, Y+5	; 0x05
    5ce4:	5e 81       	ldd	r21, Y+6	; 0x06
    5ce6:	57 fd       	sbrc	r21, 7
    5ce8:	0a c0       	rjmp	.+20     	; 0x5cfe <snprintf_P+0x54>
    5cea:	2f 81       	ldd	r18, Y+7	; 0x07
    5cec:	38 85       	ldd	r19, Y+8	; 0x08
    5cee:	42 17       	cp	r20, r18
    5cf0:	53 07       	cpc	r21, r19
    5cf2:	0c f4       	brge	.+2      	; 0x5cf6 <snprintf_P+0x4c>
    5cf4:	9a 01       	movw	r18, r20
    5cf6:	02 0f       	add	r16, r18
    5cf8:	13 1f       	adc	r17, r19
    5cfa:	f8 01       	movw	r30, r16
    5cfc:	10 82       	st	Z, r1
    5cfe:	2e 96       	adiw	r28, 0x0e	; 14
    5d00:	e4 e0       	ldi	r30, 0x04	; 4
    5d02:	e9 c2       	rjmp	.+1490   	; 0x62d6 <__epilogue_restores__+0x1c>

00005d04 <vfprintf>:
    5d04:	ab e0       	ldi	r26, 0x0B	; 11
    5d06:	b0 e0       	ldi	r27, 0x00	; 0
    5d08:	e7 e8       	ldi	r30, 0x87	; 135
    5d0a:	fe e2       	ldi	r31, 0x2E	; 46
    5d0c:	bd c2       	rjmp	.+1402   	; 0x6288 <__prologue_saves__>
    5d0e:	7c 01       	movw	r14, r24
    5d10:	3b 01       	movw	r6, r22
    5d12:	8a 01       	movw	r16, r20
    5d14:	fc 01       	movw	r30, r24
    5d16:	16 82       	std	Z+6, r1	; 0x06
    5d18:	17 82       	std	Z+7, r1	; 0x07
    5d1a:	83 81       	ldd	r24, Z+3	; 0x03
    5d1c:	81 ff       	sbrs	r24, 1
    5d1e:	ba c1       	rjmp	.+884    	; 0x6094 <vfprintf+0x390>
    5d20:	ce 01       	movw	r24, r28
    5d22:	01 96       	adiw	r24, 0x01	; 1
    5d24:	5c 01       	movw	r10, r24
    5d26:	f7 01       	movw	r30, r14
    5d28:	93 81       	ldd	r25, Z+3	; 0x03
    5d2a:	f3 01       	movw	r30, r6
    5d2c:	93 fd       	sbrc	r25, 3
    5d2e:	85 91       	lpm	r24, Z+
    5d30:	93 ff       	sbrs	r25, 3
    5d32:	81 91       	ld	r24, Z+
    5d34:	3f 01       	movw	r6, r30
    5d36:	88 23       	and	r24, r24
    5d38:	09 f4       	brne	.+2      	; 0x5d3c <vfprintf+0x38>
    5d3a:	49 c1       	rjmp	.+658    	; 0x5fce <vfprintf+0x2ca>
    5d3c:	85 32       	cpi	r24, 0x25	; 37
    5d3e:	39 f4       	brne	.+14     	; 0x5d4e <vfprintf+0x4a>
    5d40:	93 fd       	sbrc	r25, 3
    5d42:	85 91       	lpm	r24, Z+
    5d44:	93 ff       	sbrs	r25, 3
    5d46:	81 91       	ld	r24, Z+
    5d48:	3f 01       	movw	r6, r30
    5d4a:	85 32       	cpi	r24, 0x25	; 37
    5d4c:	21 f4       	brne	.+8      	; 0x5d56 <vfprintf+0x52>
    5d4e:	b7 01       	movw	r22, r14
    5d50:	90 e0       	ldi	r25, 0x00	; 0
    5d52:	b9 d1       	rcall	.+882    	; 0x60c6 <fputc>
    5d54:	e8 cf       	rjmp	.-48     	; 0x5d26 <vfprintf+0x22>
    5d56:	91 2c       	mov	r9, r1
    5d58:	21 2c       	mov	r2, r1
    5d5a:	31 2c       	mov	r3, r1
    5d5c:	ff e1       	ldi	r31, 0x1F	; 31
    5d5e:	f3 15       	cp	r31, r3
    5d60:	38 f0       	brcs	.+14     	; 0x5d70 <vfprintf+0x6c>
    5d62:	8b 32       	cpi	r24, 0x2B	; 43
    5d64:	11 f1       	breq	.+68     	; 0x5daa <vfprintf+0xa6>
    5d66:	90 f4       	brcc	.+36     	; 0x5d8c <vfprintf+0x88>
    5d68:	80 32       	cpi	r24, 0x20	; 32
    5d6a:	09 f1       	breq	.+66     	; 0x5dae <vfprintf+0xaa>
    5d6c:	83 32       	cpi	r24, 0x23	; 35
    5d6e:	29 f1       	breq	.+74     	; 0x5dba <vfprintf+0xb6>
    5d70:	37 fc       	sbrc	r3, 7
    5d72:	3c c0       	rjmp	.+120    	; 0x5dec <vfprintf+0xe8>
    5d74:	20 ed       	ldi	r18, 0xD0	; 208
    5d76:	28 0f       	add	r18, r24
    5d78:	2a 30       	cpi	r18, 0x0A	; 10
    5d7a:	50 f5       	brcc	.+84     	; 0x5dd0 <vfprintf+0xcc>
    5d7c:	36 fe       	sbrs	r3, 6
    5d7e:	20 c0       	rjmp	.+64     	; 0x5dc0 <vfprintf+0xbc>
    5d80:	8a e0       	ldi	r24, 0x0A	; 10
    5d82:	98 9e       	mul	r9, r24
    5d84:	20 0d       	add	r18, r0
    5d86:	11 24       	eor	r1, r1
    5d88:	92 2e       	mov	r9, r18
    5d8a:	06 c0       	rjmp	.+12     	; 0x5d98 <vfprintf+0x94>
    5d8c:	8d 32       	cpi	r24, 0x2D	; 45
    5d8e:	91 f0       	breq	.+36     	; 0x5db4 <vfprintf+0xb0>
    5d90:	80 33       	cpi	r24, 0x30	; 48
    5d92:	71 f7       	brne	.-36     	; 0x5d70 <vfprintf+0x6c>
    5d94:	68 94       	set
    5d96:	30 f8       	bld	r3, 0
    5d98:	f3 01       	movw	r30, r6
    5d9a:	93 fd       	sbrc	r25, 3
    5d9c:	85 91       	lpm	r24, Z+
    5d9e:	93 ff       	sbrs	r25, 3
    5da0:	81 91       	ld	r24, Z+
    5da2:	3f 01       	movw	r6, r30
    5da4:	81 11       	cpse	r24, r1
    5da6:	da cf       	rjmp	.-76     	; 0x5d5c <vfprintf+0x58>
    5da8:	21 c0       	rjmp	.+66     	; 0x5dec <vfprintf+0xe8>
    5daa:	68 94       	set
    5dac:	31 f8       	bld	r3, 1
    5dae:	68 94       	set
    5db0:	32 f8       	bld	r3, 2
    5db2:	f2 cf       	rjmp	.-28     	; 0x5d98 <vfprintf+0x94>
    5db4:	68 94       	set
    5db6:	33 f8       	bld	r3, 3
    5db8:	ef cf       	rjmp	.-34     	; 0x5d98 <vfprintf+0x94>
    5dba:	68 94       	set
    5dbc:	34 f8       	bld	r3, 4
    5dbe:	ec cf       	rjmp	.-40     	; 0x5d98 <vfprintf+0x94>
    5dc0:	ea e0       	ldi	r30, 0x0A	; 10
    5dc2:	2e 9e       	mul	r2, r30
    5dc4:	20 0d       	add	r18, r0
    5dc6:	11 24       	eor	r1, r1
    5dc8:	22 2e       	mov	r2, r18
    5dca:	68 94       	set
    5dcc:	35 f8       	bld	r3, 5
    5dce:	e4 cf       	rjmp	.-56     	; 0x5d98 <vfprintf+0x94>
    5dd0:	8e 32       	cpi	r24, 0x2E	; 46
    5dd2:	29 f4       	brne	.+10     	; 0x5dde <vfprintf+0xda>
    5dd4:	36 fc       	sbrc	r3, 6
    5dd6:	fb c0       	rjmp	.+502    	; 0x5fce <vfprintf+0x2ca>
    5dd8:	68 94       	set
    5dda:	36 f8       	bld	r3, 6
    5ddc:	dd cf       	rjmp	.-70     	; 0x5d98 <vfprintf+0x94>
    5dde:	8c 36       	cpi	r24, 0x6C	; 108
    5de0:	19 f4       	brne	.+6      	; 0x5de8 <vfprintf+0xe4>
    5de2:	68 94       	set
    5de4:	37 f8       	bld	r3, 7
    5de6:	d8 cf       	rjmp	.-80     	; 0x5d98 <vfprintf+0x94>
    5de8:	88 36       	cpi	r24, 0x68	; 104
    5dea:	b1 f2       	breq	.-84     	; 0x5d98 <vfprintf+0x94>
    5dec:	98 2f       	mov	r25, r24
    5dee:	9f 7d       	andi	r25, 0xDF	; 223
    5df0:	95 54       	subi	r25, 0x45	; 69
    5df2:	93 30       	cpi	r25, 0x03	; 3
    5df4:	d8 f0       	brcs	.+54     	; 0x5e2c <vfprintf+0x128>
    5df6:	83 36       	cpi	r24, 0x63	; 99
    5df8:	91 f1       	breq	.+100    	; 0x5e5e <vfprintf+0x15a>
    5dfa:	83 37       	cpi	r24, 0x73	; 115
    5dfc:	b1 f1       	breq	.+108    	; 0x5e6a <vfprintf+0x166>
    5dfe:	83 35       	cpi	r24, 0x53	; 83
    5e00:	09 f0       	breq	.+2      	; 0x5e04 <vfprintf+0x100>
    5e02:	5e c0       	rjmp	.+188    	; 0x5ec0 <vfprintf+0x1bc>
    5e04:	28 01       	movw	r4, r16
    5e06:	f2 e0       	ldi	r31, 0x02	; 2
    5e08:	4f 0e       	add	r4, r31
    5e0a:	51 1c       	adc	r5, r1
    5e0c:	f8 01       	movw	r30, r16
    5e0e:	c0 80       	ld	r12, Z
    5e10:	d1 80       	ldd	r13, Z+1	; 0x01
    5e12:	69 2d       	mov	r22, r9
    5e14:	70 e0       	ldi	r23, 0x00	; 0
    5e16:	36 fc       	sbrc	r3, 6
    5e18:	02 c0       	rjmp	.+4      	; 0x5e1e <vfprintf+0x11a>
    5e1a:	6f ef       	ldi	r22, 0xFF	; 255
    5e1c:	7f ef       	ldi	r23, 0xFF	; 255
    5e1e:	c6 01       	movw	r24, r12
    5e20:	3c d1       	rcall	.+632    	; 0x609a <strnlen_P>
    5e22:	4c 01       	movw	r8, r24
    5e24:	68 94       	set
    5e26:	37 f8       	bld	r3, 7
    5e28:	82 01       	movw	r16, r4
    5e2a:	0a c0       	rjmp	.+20     	; 0x5e40 <vfprintf+0x13c>
    5e2c:	0c 5f       	subi	r16, 0xFC	; 252
    5e2e:	1f 4f       	sbci	r17, 0xFF	; 255
    5e30:	ff e3       	ldi	r31, 0x3F	; 63
    5e32:	f9 83       	std	Y+1, r31	; 0x01
    5e34:	88 24       	eor	r8, r8
    5e36:	83 94       	inc	r8
    5e38:	91 2c       	mov	r9, r1
    5e3a:	65 01       	movw	r12, r10
    5e3c:	e8 94       	clt
    5e3e:	37 f8       	bld	r3, 7
    5e40:	33 fe       	sbrs	r3, 3
    5e42:	2a c0       	rjmp	.+84     	; 0x5e98 <vfprintf+0x194>
    5e44:	52 2c       	mov	r5, r2
    5e46:	81 14       	cp	r8, r1
    5e48:	91 04       	cpc	r9, r1
    5e4a:	59 f5       	brne	.+86     	; 0x5ea2 <vfprintf+0x19e>
    5e4c:	55 20       	and	r5, r5
    5e4e:	09 f4       	brne	.+2      	; 0x5e52 <vfprintf+0x14e>
    5e50:	6a cf       	rjmp	.-300    	; 0x5d26 <vfprintf+0x22>
    5e52:	b7 01       	movw	r22, r14
    5e54:	80 e2       	ldi	r24, 0x20	; 32
    5e56:	90 e0       	ldi	r25, 0x00	; 0
    5e58:	36 d1       	rcall	.+620    	; 0x60c6 <fputc>
    5e5a:	5a 94       	dec	r5
    5e5c:	f7 cf       	rjmp	.-18     	; 0x5e4c <vfprintf+0x148>
    5e5e:	f8 01       	movw	r30, r16
    5e60:	80 81       	ld	r24, Z
    5e62:	89 83       	std	Y+1, r24	; 0x01
    5e64:	0e 5f       	subi	r16, 0xFE	; 254
    5e66:	1f 4f       	sbci	r17, 0xFF	; 255
    5e68:	e5 cf       	rjmp	.-54     	; 0x5e34 <vfprintf+0x130>
    5e6a:	28 01       	movw	r4, r16
    5e6c:	f2 e0       	ldi	r31, 0x02	; 2
    5e6e:	4f 0e       	add	r4, r31
    5e70:	51 1c       	adc	r5, r1
    5e72:	f8 01       	movw	r30, r16
    5e74:	c0 80       	ld	r12, Z
    5e76:	d1 80       	ldd	r13, Z+1	; 0x01
    5e78:	69 2d       	mov	r22, r9
    5e7a:	70 e0       	ldi	r23, 0x00	; 0
    5e7c:	36 fc       	sbrc	r3, 6
    5e7e:	02 c0       	rjmp	.+4      	; 0x5e84 <vfprintf+0x180>
    5e80:	6f ef       	ldi	r22, 0xFF	; 255
    5e82:	7f ef       	ldi	r23, 0xFF	; 255
    5e84:	c6 01       	movw	r24, r12
    5e86:	14 d1       	rcall	.+552    	; 0x60b0 <strnlen>
    5e88:	4c 01       	movw	r8, r24
    5e8a:	82 01       	movw	r16, r4
    5e8c:	d7 cf       	rjmp	.-82     	; 0x5e3c <vfprintf+0x138>
    5e8e:	b7 01       	movw	r22, r14
    5e90:	80 e2       	ldi	r24, 0x20	; 32
    5e92:	90 e0       	ldi	r25, 0x00	; 0
    5e94:	18 d1       	rcall	.+560    	; 0x60c6 <fputc>
    5e96:	2a 94       	dec	r2
    5e98:	28 14       	cp	r2, r8
    5e9a:	19 04       	cpc	r1, r9
    5e9c:	09 f0       	breq	.+2      	; 0x5ea0 <vfprintf+0x19c>
    5e9e:	b8 f7       	brcc	.-18     	; 0x5e8e <vfprintf+0x18a>
    5ea0:	d1 cf       	rjmp	.-94     	; 0x5e44 <vfprintf+0x140>
    5ea2:	f6 01       	movw	r30, r12
    5ea4:	37 fc       	sbrc	r3, 7
    5ea6:	85 91       	lpm	r24, Z+
    5ea8:	37 fe       	sbrs	r3, 7
    5eaa:	81 91       	ld	r24, Z+
    5eac:	6f 01       	movw	r12, r30
    5eae:	b7 01       	movw	r22, r14
    5eb0:	90 e0       	ldi	r25, 0x00	; 0
    5eb2:	09 d1       	rcall	.+530    	; 0x60c6 <fputc>
    5eb4:	51 10       	cpse	r5, r1
    5eb6:	5a 94       	dec	r5
    5eb8:	f1 e0       	ldi	r31, 0x01	; 1
    5eba:	8f 1a       	sub	r8, r31
    5ebc:	91 08       	sbc	r9, r1
    5ebe:	c3 cf       	rjmp	.-122    	; 0x5e46 <vfprintf+0x142>
    5ec0:	84 36       	cpi	r24, 0x64	; 100
    5ec2:	19 f0       	breq	.+6      	; 0x5eca <vfprintf+0x1c6>
    5ec4:	89 36       	cpi	r24, 0x69	; 105
    5ec6:	09 f0       	breq	.+2      	; 0x5eca <vfprintf+0x1c6>
    5ec8:	73 c0       	rjmp	.+230    	; 0x5fb0 <vfprintf+0x2ac>
    5eca:	f8 01       	movw	r30, r16
    5ecc:	37 fe       	sbrs	r3, 7
    5ece:	67 c0       	rjmp	.+206    	; 0x5f9e <vfprintf+0x29a>
    5ed0:	60 81       	ld	r22, Z
    5ed2:	71 81       	ldd	r23, Z+1	; 0x01
    5ed4:	82 81       	ldd	r24, Z+2	; 0x02
    5ed6:	93 81       	ldd	r25, Z+3	; 0x03
    5ed8:	0c 5f       	subi	r16, 0xFC	; 252
    5eda:	1f 4f       	sbci	r17, 0xFF	; 255
    5edc:	f3 2d       	mov	r31, r3
    5ede:	ff 76       	andi	r31, 0x6F	; 111
    5ee0:	3f 2e       	mov	r3, r31
    5ee2:	97 ff       	sbrs	r25, 7
    5ee4:	09 c0       	rjmp	.+18     	; 0x5ef8 <vfprintf+0x1f4>
    5ee6:	90 95       	com	r25
    5ee8:	80 95       	com	r24
    5eea:	70 95       	com	r23
    5eec:	61 95       	neg	r22
    5eee:	7f 4f       	sbci	r23, 0xFF	; 255
    5ef0:	8f 4f       	sbci	r24, 0xFF	; 255
    5ef2:	9f 4f       	sbci	r25, 0xFF	; 255
    5ef4:	68 94       	set
    5ef6:	37 f8       	bld	r3, 7
    5ef8:	2a e0       	ldi	r18, 0x0A	; 10
    5efa:	30 e0       	ldi	r19, 0x00	; 0
    5efc:	a5 01       	movw	r20, r10
    5efe:	13 d1       	rcall	.+550    	; 0x6126 <__ultoa_invert>
    5f00:	c8 2e       	mov	r12, r24
    5f02:	ca 18       	sub	r12, r10
    5f04:	8c 2c       	mov	r8, r12
    5f06:	43 2c       	mov	r4, r3
    5f08:	36 fe       	sbrs	r3, 6
    5f0a:	0c c0       	rjmp	.+24     	; 0x5f24 <vfprintf+0x220>
    5f0c:	e8 94       	clt
    5f0e:	40 f8       	bld	r4, 0
    5f10:	c9 14       	cp	r12, r9
    5f12:	40 f4       	brcc	.+16     	; 0x5f24 <vfprintf+0x220>
    5f14:	34 fe       	sbrs	r3, 4
    5f16:	05 c0       	rjmp	.+10     	; 0x5f22 <vfprintf+0x21e>
    5f18:	32 fc       	sbrc	r3, 2
    5f1a:	03 c0       	rjmp	.+6      	; 0x5f22 <vfprintf+0x21e>
    5f1c:	f3 2d       	mov	r31, r3
    5f1e:	fe 7e       	andi	r31, 0xEE	; 238
    5f20:	4f 2e       	mov	r4, r31
    5f22:	89 2c       	mov	r8, r9
    5f24:	44 fe       	sbrs	r4, 4
    5f26:	90 c0       	rjmp	.+288    	; 0x6048 <vfprintf+0x344>
    5f28:	fe 01       	movw	r30, r28
    5f2a:	ec 0d       	add	r30, r12
    5f2c:	f1 1d       	adc	r31, r1
    5f2e:	80 81       	ld	r24, Z
    5f30:	80 33       	cpi	r24, 0x30	; 48
    5f32:	09 f0       	breq	.+2      	; 0x5f36 <vfprintf+0x232>
    5f34:	82 c0       	rjmp	.+260    	; 0x603a <vfprintf+0x336>
    5f36:	24 2d       	mov	r18, r4
    5f38:	29 7e       	andi	r18, 0xE9	; 233
    5f3a:	42 2e       	mov	r4, r18
    5f3c:	84 2d       	mov	r24, r4
    5f3e:	88 70       	andi	r24, 0x08	; 8
    5f40:	58 2e       	mov	r5, r24
    5f42:	43 fc       	sbrc	r4, 3
    5f44:	8f c0       	rjmp	.+286    	; 0x6064 <vfprintf+0x360>
    5f46:	40 fe       	sbrs	r4, 0
    5f48:	89 c0       	rjmp	.+274    	; 0x605c <vfprintf+0x358>
    5f4a:	9c 2c       	mov	r9, r12
    5f4c:	82 14       	cp	r8, r2
    5f4e:	18 f4       	brcc	.+6      	; 0x5f56 <vfprintf+0x252>
    5f50:	2c 0c       	add	r2, r12
    5f52:	92 2c       	mov	r9, r2
    5f54:	98 18       	sub	r9, r8
    5f56:	44 fe       	sbrs	r4, 4
    5f58:	8b c0       	rjmp	.+278    	; 0x6070 <vfprintf+0x36c>
    5f5a:	b7 01       	movw	r22, r14
    5f5c:	80 e3       	ldi	r24, 0x30	; 48
    5f5e:	90 e0       	ldi	r25, 0x00	; 0
    5f60:	b2 d0       	rcall	.+356    	; 0x60c6 <fputc>
    5f62:	42 fe       	sbrs	r4, 2
    5f64:	08 c0       	rjmp	.+16     	; 0x5f76 <vfprintf+0x272>
    5f66:	88 e7       	ldi	r24, 0x78	; 120
    5f68:	90 e0       	ldi	r25, 0x00	; 0
    5f6a:	41 fe       	sbrs	r4, 1
    5f6c:	02 c0       	rjmp	.+4      	; 0x5f72 <vfprintf+0x26e>
    5f6e:	88 e5       	ldi	r24, 0x58	; 88
    5f70:	90 e0       	ldi	r25, 0x00	; 0
    5f72:	b7 01       	movw	r22, r14
    5f74:	a8 d0       	rcall	.+336    	; 0x60c6 <fputc>
    5f76:	c9 14       	cp	r12, r9
    5f78:	08 f4       	brcc	.+2      	; 0x5f7c <vfprintf+0x278>
    5f7a:	86 c0       	rjmp	.+268    	; 0x6088 <vfprintf+0x384>
    5f7c:	ca 94       	dec	r12
    5f7e:	d1 2c       	mov	r13, r1
    5f80:	9f ef       	ldi	r25, 0xFF	; 255
    5f82:	c9 1a       	sub	r12, r25
    5f84:	d9 0a       	sbc	r13, r25
    5f86:	ca 0c       	add	r12, r10
    5f88:	db 1c       	adc	r13, r11
    5f8a:	f6 01       	movw	r30, r12
    5f8c:	82 91       	ld	r24, -Z
    5f8e:	6f 01       	movw	r12, r30
    5f90:	b7 01       	movw	r22, r14
    5f92:	90 e0       	ldi	r25, 0x00	; 0
    5f94:	98 d0       	rcall	.+304    	; 0x60c6 <fputc>
    5f96:	ac 14       	cp	r10, r12
    5f98:	bd 04       	cpc	r11, r13
    5f9a:	b9 f7       	brne	.-18     	; 0x5f8a <vfprintf+0x286>
    5f9c:	57 cf       	rjmp	.-338    	; 0x5e4c <vfprintf+0x148>
    5f9e:	60 81       	ld	r22, Z
    5fa0:	71 81       	ldd	r23, Z+1	; 0x01
    5fa2:	07 2e       	mov	r0, r23
    5fa4:	00 0c       	add	r0, r0
    5fa6:	88 0b       	sbc	r24, r24
    5fa8:	99 0b       	sbc	r25, r25
    5faa:	0e 5f       	subi	r16, 0xFE	; 254
    5fac:	1f 4f       	sbci	r17, 0xFF	; 255
    5fae:	96 cf       	rjmp	.-212    	; 0x5edc <vfprintf+0x1d8>
    5fb0:	d3 2c       	mov	r13, r3
    5fb2:	e8 94       	clt
    5fb4:	d4 f8       	bld	r13, 4
    5fb6:	2a e0       	ldi	r18, 0x0A	; 10
    5fb8:	30 e0       	ldi	r19, 0x00	; 0
    5fba:	85 37       	cpi	r24, 0x75	; 117
    5fbc:	31 f1       	breq	.+76     	; 0x600a <vfprintf+0x306>
    5fbe:	23 2d       	mov	r18, r3
    5fc0:	29 7f       	andi	r18, 0xF9	; 249
    5fc2:	d2 2e       	mov	r13, r18
    5fc4:	8f 36       	cpi	r24, 0x6F	; 111
    5fc6:	f9 f0       	breq	.+62     	; 0x6006 <vfprintf+0x302>
    5fc8:	40 f4       	brcc	.+16     	; 0x5fda <vfprintf+0x2d6>
    5fca:	88 35       	cpi	r24, 0x58	; 88
    5fcc:	a1 f0       	breq	.+40     	; 0x5ff6 <vfprintf+0x2f2>
    5fce:	f7 01       	movw	r30, r14
    5fd0:	86 81       	ldd	r24, Z+6	; 0x06
    5fd2:	97 81       	ldd	r25, Z+7	; 0x07
    5fd4:	2b 96       	adiw	r28, 0x0b	; 11
    5fd6:	e2 e1       	ldi	r30, 0x12	; 18
    5fd8:	70 c1       	rjmp	.+736    	; 0x62ba <__epilogue_restores__>
    5fda:	80 37       	cpi	r24, 0x70	; 112
    5fdc:	49 f0       	breq	.+18     	; 0x5ff0 <vfprintf+0x2ec>
    5fde:	88 37       	cpi	r24, 0x78	; 120
    5fe0:	b1 f7       	brne	.-20     	; 0x5fce <vfprintf+0x2ca>
    5fe2:	d4 fe       	sbrs	r13, 4
    5fe4:	02 c0       	rjmp	.+4      	; 0x5fea <vfprintf+0x2e6>
    5fe6:	68 94       	set
    5fe8:	d2 f8       	bld	r13, 2
    5fea:	20 e1       	ldi	r18, 0x10	; 16
    5fec:	30 e0       	ldi	r19, 0x00	; 0
    5fee:	0d c0       	rjmp	.+26     	; 0x600a <vfprintf+0x306>
    5ff0:	68 94       	set
    5ff2:	d4 f8       	bld	r13, 4
    5ff4:	f6 cf       	rjmp	.-20     	; 0x5fe2 <vfprintf+0x2de>
    5ff6:	34 fe       	sbrs	r3, 4
    5ff8:	03 c0       	rjmp	.+6      	; 0x6000 <vfprintf+0x2fc>
    5ffa:	82 2f       	mov	r24, r18
    5ffc:	86 60       	ori	r24, 0x06	; 6
    5ffe:	d8 2e       	mov	r13, r24
    6000:	20 e1       	ldi	r18, 0x10	; 16
    6002:	32 e0       	ldi	r19, 0x02	; 2
    6004:	02 c0       	rjmp	.+4      	; 0x600a <vfprintf+0x306>
    6006:	28 e0       	ldi	r18, 0x08	; 8
    6008:	30 e0       	ldi	r19, 0x00	; 0
    600a:	f8 01       	movw	r30, r16
    600c:	d7 fe       	sbrs	r13, 7
    600e:	0e c0       	rjmp	.+28     	; 0x602c <vfprintf+0x328>
    6010:	60 81       	ld	r22, Z
    6012:	71 81       	ldd	r23, Z+1	; 0x01
    6014:	82 81       	ldd	r24, Z+2	; 0x02
    6016:	93 81       	ldd	r25, Z+3	; 0x03
    6018:	0c 5f       	subi	r16, 0xFC	; 252
    601a:	1f 4f       	sbci	r17, 0xFF	; 255
    601c:	a5 01       	movw	r20, r10
    601e:	83 d0       	rcall	.+262    	; 0x6126 <__ultoa_invert>
    6020:	c8 2e       	mov	r12, r24
    6022:	ca 18       	sub	r12, r10
    6024:	3d 2c       	mov	r3, r13
    6026:	e8 94       	clt
    6028:	37 f8       	bld	r3, 7
    602a:	6c cf       	rjmp	.-296    	; 0x5f04 <vfprintf+0x200>
    602c:	60 81       	ld	r22, Z
    602e:	71 81       	ldd	r23, Z+1	; 0x01
    6030:	90 e0       	ldi	r25, 0x00	; 0
    6032:	80 e0       	ldi	r24, 0x00	; 0
    6034:	0e 5f       	subi	r16, 0xFE	; 254
    6036:	1f 4f       	sbci	r17, 0xFF	; 255
    6038:	f1 cf       	rjmp	.-30     	; 0x601c <vfprintf+0x318>
    603a:	42 fc       	sbrc	r4, 2
    603c:	02 c0       	rjmp	.+4      	; 0x6042 <vfprintf+0x33e>
    603e:	83 94       	inc	r8
    6040:	7d cf       	rjmp	.-262    	; 0x5f3c <vfprintf+0x238>
    6042:	83 94       	inc	r8
    6044:	83 94       	inc	r8
    6046:	7a cf       	rjmp	.-268    	; 0x5f3c <vfprintf+0x238>
    6048:	84 2d       	mov	r24, r4
    604a:	86 78       	andi	r24, 0x86	; 134
    604c:	09 f4       	brne	.+2      	; 0x6050 <vfprintf+0x34c>
    604e:	76 cf       	rjmp	.-276    	; 0x5f3c <vfprintf+0x238>
    6050:	f6 cf       	rjmp	.-20     	; 0x603e <vfprintf+0x33a>
    6052:	b7 01       	movw	r22, r14
    6054:	80 e2       	ldi	r24, 0x20	; 32
    6056:	90 e0       	ldi	r25, 0x00	; 0
    6058:	36 d0       	rcall	.+108    	; 0x60c6 <fputc>
    605a:	83 94       	inc	r8
    605c:	82 14       	cp	r8, r2
    605e:	c8 f3       	brcs	.-14     	; 0x6052 <vfprintf+0x34e>
    6060:	51 2c       	mov	r5, r1
    6062:	79 cf       	rjmp	.-270    	; 0x5f56 <vfprintf+0x252>
    6064:	52 2c       	mov	r5, r2
    6066:	58 18       	sub	r5, r8
    6068:	82 14       	cp	r8, r2
    606a:	08 f4       	brcc	.+2      	; 0x606e <vfprintf+0x36a>
    606c:	74 cf       	rjmp	.-280    	; 0x5f56 <vfprintf+0x252>
    606e:	f8 cf       	rjmp	.-16     	; 0x6060 <vfprintf+0x35c>
    6070:	84 2d       	mov	r24, r4
    6072:	86 78       	andi	r24, 0x86	; 134
    6074:	09 f4       	brne	.+2      	; 0x6078 <vfprintf+0x374>
    6076:	7f cf       	rjmp	.-258    	; 0x5f76 <vfprintf+0x272>
    6078:	8b e2       	ldi	r24, 0x2B	; 43
    607a:	41 fe       	sbrs	r4, 1
    607c:	80 e2       	ldi	r24, 0x20	; 32
    607e:	47 fc       	sbrc	r4, 7
    6080:	8d e2       	ldi	r24, 0x2D	; 45
    6082:	b7 01       	movw	r22, r14
    6084:	90 e0       	ldi	r25, 0x00	; 0
    6086:	76 cf       	rjmp	.-276    	; 0x5f74 <vfprintf+0x270>
    6088:	b7 01       	movw	r22, r14
    608a:	80 e3       	ldi	r24, 0x30	; 48
    608c:	90 e0       	ldi	r25, 0x00	; 0
    608e:	1b d0       	rcall	.+54     	; 0x60c6 <fputc>
    6090:	9a 94       	dec	r9
    6092:	71 cf       	rjmp	.-286    	; 0x5f76 <vfprintf+0x272>
    6094:	8f ef       	ldi	r24, 0xFF	; 255
    6096:	9f ef       	ldi	r25, 0xFF	; 255
    6098:	9d cf       	rjmp	.-198    	; 0x5fd4 <vfprintf+0x2d0>

0000609a <strnlen_P>:
    609a:	fc 01       	movw	r30, r24
    609c:	05 90       	lpm	r0, Z+
    609e:	61 50       	subi	r22, 0x01	; 1
    60a0:	70 40       	sbci	r23, 0x00	; 0
    60a2:	01 10       	cpse	r0, r1
    60a4:	d8 f7       	brcc	.-10     	; 0x609c <strnlen_P+0x2>
    60a6:	80 95       	com	r24
    60a8:	90 95       	com	r25
    60aa:	8e 0f       	add	r24, r30
    60ac:	9f 1f       	adc	r25, r31
    60ae:	08 95       	ret

000060b0 <strnlen>:
    60b0:	fc 01       	movw	r30, r24
    60b2:	61 50       	subi	r22, 0x01	; 1
    60b4:	70 40       	sbci	r23, 0x00	; 0
    60b6:	01 90       	ld	r0, Z+
    60b8:	01 10       	cpse	r0, r1
    60ba:	d8 f7       	brcc	.-10     	; 0x60b2 <strnlen+0x2>
    60bc:	80 95       	com	r24
    60be:	90 95       	com	r25
    60c0:	8e 0f       	add	r24, r30
    60c2:	9f 1f       	adc	r25, r31
    60c4:	08 95       	ret

000060c6 <fputc>:
    60c6:	0f 93       	push	r16
    60c8:	1f 93       	push	r17
    60ca:	cf 93       	push	r28
    60cc:	df 93       	push	r29
    60ce:	18 2f       	mov	r17, r24
    60d0:	09 2f       	mov	r16, r25
    60d2:	eb 01       	movw	r28, r22
    60d4:	8b 81       	ldd	r24, Y+3	; 0x03
    60d6:	81 fd       	sbrc	r24, 1
    60d8:	09 c0       	rjmp	.+18     	; 0x60ec <fputc+0x26>
    60da:	1f ef       	ldi	r17, 0xFF	; 255
    60dc:	0f ef       	ldi	r16, 0xFF	; 255
    60de:	81 2f       	mov	r24, r17
    60e0:	90 2f       	mov	r25, r16
    60e2:	df 91       	pop	r29
    60e4:	cf 91       	pop	r28
    60e6:	1f 91       	pop	r17
    60e8:	0f 91       	pop	r16
    60ea:	08 95       	ret
    60ec:	82 ff       	sbrs	r24, 2
    60ee:	14 c0       	rjmp	.+40     	; 0x6118 <fputc+0x52>
    60f0:	2e 81       	ldd	r18, Y+6	; 0x06
    60f2:	3f 81       	ldd	r19, Y+7	; 0x07
    60f4:	8c 81       	ldd	r24, Y+4	; 0x04
    60f6:	9d 81       	ldd	r25, Y+5	; 0x05
    60f8:	28 17       	cp	r18, r24
    60fa:	39 07       	cpc	r19, r25
    60fc:	3c f4       	brge	.+14     	; 0x610c <fputc+0x46>
    60fe:	e8 81       	ld	r30, Y
    6100:	f9 81       	ldd	r31, Y+1	; 0x01
    6102:	cf 01       	movw	r24, r30
    6104:	01 96       	adiw	r24, 0x01	; 1
    6106:	88 83       	st	Y, r24
    6108:	99 83       	std	Y+1, r25	; 0x01
    610a:	10 83       	st	Z, r17
    610c:	8e 81       	ldd	r24, Y+6	; 0x06
    610e:	9f 81       	ldd	r25, Y+7	; 0x07
    6110:	01 96       	adiw	r24, 0x01	; 1
    6112:	8e 83       	std	Y+6, r24	; 0x06
    6114:	9f 83       	std	Y+7, r25	; 0x07
    6116:	e3 cf       	rjmp	.-58     	; 0x60de <fputc+0x18>
    6118:	e8 85       	ldd	r30, Y+8	; 0x08
    611a:	f9 85       	ldd	r31, Y+9	; 0x09
    611c:	81 2f       	mov	r24, r17
    611e:	09 95       	icall
    6120:	89 2b       	or	r24, r25
    6122:	a1 f3       	breq	.-24     	; 0x610c <fputc+0x46>
    6124:	da cf       	rjmp	.-76     	; 0x60da <fputc+0x14>

00006126 <__ultoa_invert>:
    6126:	fa 01       	movw	r30, r20
    6128:	aa 27       	eor	r26, r26
    612a:	28 30       	cpi	r18, 0x08	; 8
    612c:	51 f1       	breq	.+84     	; 0x6182 <__ultoa_invert+0x5c>
    612e:	20 31       	cpi	r18, 0x10	; 16
    6130:	81 f1       	breq	.+96     	; 0x6192 <__ultoa_invert+0x6c>
    6132:	e8 94       	clt
    6134:	6f 93       	push	r22
    6136:	6e 7f       	andi	r22, 0xFE	; 254
    6138:	6e 5f       	subi	r22, 0xFE	; 254
    613a:	7f 4f       	sbci	r23, 0xFF	; 255
    613c:	8f 4f       	sbci	r24, 0xFF	; 255
    613e:	9f 4f       	sbci	r25, 0xFF	; 255
    6140:	af 4f       	sbci	r26, 0xFF	; 255
    6142:	b1 e0       	ldi	r27, 0x01	; 1
    6144:	3e d0       	rcall	.+124    	; 0x61c2 <__ultoa_invert+0x9c>
    6146:	b4 e0       	ldi	r27, 0x04	; 4
    6148:	3c d0       	rcall	.+120    	; 0x61c2 <__ultoa_invert+0x9c>
    614a:	67 0f       	add	r22, r23
    614c:	78 1f       	adc	r23, r24
    614e:	89 1f       	adc	r24, r25
    6150:	9a 1f       	adc	r25, r26
    6152:	a1 1d       	adc	r26, r1
    6154:	68 0f       	add	r22, r24
    6156:	79 1f       	adc	r23, r25
    6158:	8a 1f       	adc	r24, r26
    615a:	91 1d       	adc	r25, r1
    615c:	a1 1d       	adc	r26, r1
    615e:	6a 0f       	add	r22, r26
    6160:	71 1d       	adc	r23, r1
    6162:	81 1d       	adc	r24, r1
    6164:	91 1d       	adc	r25, r1
    6166:	a1 1d       	adc	r26, r1
    6168:	20 d0       	rcall	.+64     	; 0x61aa <__ultoa_invert+0x84>
    616a:	09 f4       	brne	.+2      	; 0x616e <__ultoa_invert+0x48>
    616c:	68 94       	set
    616e:	3f 91       	pop	r19
    6170:	2a e0       	ldi	r18, 0x0A	; 10
    6172:	26 9f       	mul	r18, r22
    6174:	11 24       	eor	r1, r1
    6176:	30 19       	sub	r19, r0
    6178:	30 5d       	subi	r19, 0xD0	; 208
    617a:	31 93       	st	Z+, r19
    617c:	de f6       	brtc	.-74     	; 0x6134 <__ultoa_invert+0xe>
    617e:	cf 01       	movw	r24, r30
    6180:	08 95       	ret
    6182:	46 2f       	mov	r20, r22
    6184:	47 70       	andi	r20, 0x07	; 7
    6186:	40 5d       	subi	r20, 0xD0	; 208
    6188:	41 93       	st	Z+, r20
    618a:	b3 e0       	ldi	r27, 0x03	; 3
    618c:	0f d0       	rcall	.+30     	; 0x61ac <__ultoa_invert+0x86>
    618e:	c9 f7       	brne	.-14     	; 0x6182 <__ultoa_invert+0x5c>
    6190:	f6 cf       	rjmp	.-20     	; 0x617e <__ultoa_invert+0x58>
    6192:	46 2f       	mov	r20, r22
    6194:	4f 70       	andi	r20, 0x0F	; 15
    6196:	40 5d       	subi	r20, 0xD0	; 208
    6198:	4a 33       	cpi	r20, 0x3A	; 58
    619a:	18 f0       	brcs	.+6      	; 0x61a2 <__ultoa_invert+0x7c>
    619c:	49 5d       	subi	r20, 0xD9	; 217
    619e:	31 fd       	sbrc	r19, 1
    61a0:	40 52       	subi	r20, 0x20	; 32
    61a2:	41 93       	st	Z+, r20
    61a4:	02 d0       	rcall	.+4      	; 0x61aa <__ultoa_invert+0x84>
    61a6:	a9 f7       	brne	.-22     	; 0x6192 <__ultoa_invert+0x6c>
    61a8:	ea cf       	rjmp	.-44     	; 0x617e <__ultoa_invert+0x58>
    61aa:	b4 e0       	ldi	r27, 0x04	; 4
    61ac:	a6 95       	lsr	r26
    61ae:	97 95       	ror	r25
    61b0:	87 95       	ror	r24
    61b2:	77 95       	ror	r23
    61b4:	67 95       	ror	r22
    61b6:	ba 95       	dec	r27
    61b8:	c9 f7       	brne	.-14     	; 0x61ac <__ultoa_invert+0x86>
    61ba:	00 97       	sbiw	r24, 0x00	; 0
    61bc:	61 05       	cpc	r22, r1
    61be:	71 05       	cpc	r23, r1
    61c0:	08 95       	ret
    61c2:	9b 01       	movw	r18, r22
    61c4:	ac 01       	movw	r20, r24
    61c6:	0a 2e       	mov	r0, r26
    61c8:	06 94       	lsr	r0
    61ca:	57 95       	ror	r21
    61cc:	47 95       	ror	r20
    61ce:	37 95       	ror	r19
    61d0:	27 95       	ror	r18
    61d2:	ba 95       	dec	r27
    61d4:	c9 f7       	brne	.-14     	; 0x61c8 <__ultoa_invert+0xa2>
    61d6:	62 0f       	add	r22, r18
    61d8:	73 1f       	adc	r23, r19
    61da:	84 1f       	adc	r24, r20
    61dc:	95 1f       	adc	r25, r21
    61de:	a0 1d       	adc	r26, r0
    61e0:	08 95       	ret

000061e2 <eeprom_read_block>:
    61e2:	e0 ec       	ldi	r30, 0xC0	; 192
    61e4:	f1 e0       	ldi	r31, 0x01	; 1
    61e6:	a7 85       	ldd	r26, Z+15	; 0x0f
    61e8:	a7 fd       	sbrc	r26, 7
    61ea:	fd cf       	rjmp	.-6      	; 0x61e6 <eeprom_read_block+0x4>
    61ec:	a4 85       	ldd	r26, Z+12	; 0x0c
    61ee:	a8 60       	ori	r26, 0x08	; 8
    61f0:	a4 87       	std	Z+12, r26	; 0x0c
    61f2:	60 50       	subi	r22, 0x00	; 0
    61f4:	70 4f       	sbci	r23, 0xF0	; 240
    61f6:	49 cd       	rjmp	.-1390   	; 0x5c8a <memcpy>

000061f8 <eeprom_write_block>:
    61f8:	dc 01       	movw	r26, r24
    61fa:	cb 01       	movw	r24, r22
    61fc:	02 c0       	rjmp	.+4      	; 0x6202 <eeprom_write_block+0xa>
    61fe:	2d 91       	ld	r18, X+
    6200:	05 d0       	rcall	.+10     	; 0x620c <eeprom_write_r18>
    6202:	41 50       	subi	r20, 0x01	; 1
    6204:	50 40       	sbci	r21, 0x00	; 0
    6206:	d8 f7       	brcc	.-10     	; 0x61fe <eeprom_write_block+0x6>
    6208:	08 95       	ret

0000620a <eeprom_write_byte>:
    620a:	26 2f       	mov	r18, r22

0000620c <eeprom_write_r18>:
    620c:	e0 ec       	ldi	r30, 0xC0	; 192
    620e:	f1 e0       	ldi	r31, 0x01	; 1
    6210:	37 85       	ldd	r19, Z+15	; 0x0f
    6212:	37 fd       	sbrc	r19, 7
    6214:	fd cf       	rjmp	.-6      	; 0x6210 <eeprom_write_r18+0x4>
    6216:	34 85       	ldd	r19, Z+12	; 0x0c
    6218:	37 7f       	andi	r19, 0xF7	; 247
    621a:	34 87       	std	Z+12, r19	; 0x0c
    621c:	37 85       	ldd	r19, Z+15	; 0x0f
    621e:	31 ff       	sbrs	r19, 1
    6220:	09 c0       	rjmp	.+18     	; 0x6234 <eeprom_write_r18+0x28>
    6222:	36 e3       	ldi	r19, 0x36	; 54
    6224:	32 87       	std	Z+10, r19	; 0x0a
    6226:	38 ed       	ldi	r19, 0xD8	; 216
    6228:	34 bf       	out	0x34, r19	; 52
    622a:	31 e0       	ldi	r19, 0x01	; 1
    622c:	33 87       	std	Z+11, r19	; 0x0b
    622e:	37 85       	ldd	r19, Z+15	; 0x0f
    6230:	37 fd       	sbrc	r19, 7
    6232:	fd cf       	rjmp	.-6      	; 0x622e <eeprom_write_r18+0x22>
    6234:	33 e3       	ldi	r19, 0x33	; 51
    6236:	32 87       	std	Z+10, r19	; 0x0a
    6238:	80 83       	st	Z, r24
    623a:	91 83       	std	Z+1, r25	; 0x01
    623c:	12 82       	std	Z+2, r1	; 0x02
    623e:	24 83       	std	Z+4, r18	; 0x04
    6240:	25 e3       	ldi	r18, 0x35	; 53
    6242:	22 87       	std	Z+10, r18	; 0x0a
    6244:	28 ed       	ldi	r18, 0xD8	; 216
    6246:	31 e0       	ldi	r19, 0x01	; 1
    6248:	24 bf       	out	0x34, r18	; 52
    624a:	33 87       	std	Z+11, r19	; 0x0b
    624c:	01 96       	adiw	r24, 0x01	; 1
    624e:	08 95       	ret

00006250 <__divmodsi4>:
    6250:	05 2e       	mov	r0, r21
    6252:	97 fb       	bst	r25, 7
    6254:	16 f4       	brtc	.+4      	; 0x625a <__divmodsi4+0xa>
    6256:	00 94       	com	r0
    6258:	0f d0       	rcall	.+30     	; 0x6278 <__negsi2>
    625a:	57 fd       	sbrc	r21, 7
    625c:	05 d0       	rcall	.+10     	; 0x6268 <__divmodsi4_neg2>
    625e:	51 dc       	rcall	.-1886   	; 0x5b02 <__udivmodsi4>
    6260:	07 fc       	sbrc	r0, 7
    6262:	02 d0       	rcall	.+4      	; 0x6268 <__divmodsi4_neg2>
    6264:	46 f4       	brtc	.+16     	; 0x6276 <__divmodsi4_exit>
    6266:	08 c0       	rjmp	.+16     	; 0x6278 <__negsi2>

00006268 <__divmodsi4_neg2>:
    6268:	50 95       	com	r21
    626a:	40 95       	com	r20
    626c:	30 95       	com	r19
    626e:	21 95       	neg	r18
    6270:	3f 4f       	sbci	r19, 0xFF	; 255
    6272:	4f 4f       	sbci	r20, 0xFF	; 255
    6274:	5f 4f       	sbci	r21, 0xFF	; 255

00006276 <__divmodsi4_exit>:
    6276:	08 95       	ret

00006278 <__negsi2>:
    6278:	90 95       	com	r25
    627a:	80 95       	com	r24
    627c:	70 95       	com	r23
    627e:	61 95       	neg	r22
    6280:	7f 4f       	sbci	r23, 0xFF	; 255
    6282:	8f 4f       	sbci	r24, 0xFF	; 255
    6284:	9f 4f       	sbci	r25, 0xFF	; 255
    6286:	08 95       	ret

00006288 <__prologue_saves__>:
    6288:	2f 92       	push	r2
    628a:	3f 92       	push	r3
    628c:	4f 92       	push	r4
    628e:	5f 92       	push	r5
    6290:	6f 92       	push	r6
    6292:	7f 92       	push	r7
    6294:	8f 92       	push	r8
    6296:	9f 92       	push	r9
    6298:	af 92       	push	r10
    629a:	bf 92       	push	r11
    629c:	cf 92       	push	r12
    629e:	df 92       	push	r13
    62a0:	ef 92       	push	r14
    62a2:	ff 92       	push	r15
    62a4:	0f 93       	push	r16
    62a6:	1f 93       	push	r17
    62a8:	cf 93       	push	r28
    62aa:	df 93       	push	r29
    62ac:	cd b7       	in	r28, 0x3d	; 61
    62ae:	de b7       	in	r29, 0x3e	; 62
    62b0:	ca 1b       	sub	r28, r26
    62b2:	db 0b       	sbc	r29, r27
    62b4:	cd bf       	out	0x3d, r28	; 61
    62b6:	de bf       	out	0x3e, r29	; 62
    62b8:	09 94       	ijmp

000062ba <__epilogue_restores__>:
    62ba:	2a 88       	ldd	r2, Y+18	; 0x12
    62bc:	39 88       	ldd	r3, Y+17	; 0x11
    62be:	48 88       	ldd	r4, Y+16	; 0x10
    62c0:	5f 84       	ldd	r5, Y+15	; 0x0f
    62c2:	6e 84       	ldd	r6, Y+14	; 0x0e
    62c4:	7d 84       	ldd	r7, Y+13	; 0x0d
    62c6:	8c 84       	ldd	r8, Y+12	; 0x0c
    62c8:	9b 84       	ldd	r9, Y+11	; 0x0b
    62ca:	aa 84       	ldd	r10, Y+10	; 0x0a
    62cc:	b9 84       	ldd	r11, Y+9	; 0x09
    62ce:	c8 84       	ldd	r12, Y+8	; 0x08
    62d0:	df 80       	ldd	r13, Y+7	; 0x07
    62d2:	ee 80       	ldd	r14, Y+6	; 0x06
    62d4:	fd 80       	ldd	r15, Y+5	; 0x05
    62d6:	0c 81       	ldd	r16, Y+4	; 0x04
    62d8:	1b 81       	ldd	r17, Y+3	; 0x03
    62da:	aa 81       	ldd	r26, Y+2	; 0x02
    62dc:	b9 81       	ldd	r27, Y+1	; 0x01
    62de:	ce 0f       	add	r28, r30
    62e0:	d1 1d       	adc	r29, r1
    62e2:	cd bf       	out	0x3d, r28	; 61
    62e4:	de bf       	out	0x3e, r29	; 62
    62e6:	ed 01       	movw	r28, r26
    62e8:	08 95       	ret

000062ea <_exit>:
    62ea:	f8 94       	cli

000062ec <__stop_program>:
    62ec:	ff cf       	rjmp	.-2      	; 0x62ec <__stop_program>
